SF:/home/runner/work/deacon/deacon/crates/core/src/cache.rs
FN:110,_RINvNtCshLLWmVuQQJZ_11deacon_core5cache8hash_keypEB4_
FN:86,_RNCNvMs_NtCshLLWmVuQQJZ_11deacon_core5cacheINtB6_8TtlEntrypE3new0B8_
FN:95,_RNvMs_NtCshLLWmVuQQJZ_11deacon_core5cacheINtB4_8TtlEntrypE10is_expiredB6_
FN:81,_RNvMs_NtCshLLWmVuQQJZ_11deacon_core5cacheINtB4_8TtlEntrypE3newB6_
FN:40,_RNvYpINtNtCshLLWmVuQQJZ_11deacon_core5cache5CacheppE8is_emptyB8_
FN:40,_RNvYpINtNtCs1G9XuckPzNo_11deacon_core5cache5CacheppE8is_emptyB8_
FN:110,_RINvNtCs1G9XuckPzNo_11deacon_core5cache8hash_keyNtNtCs8Ty2CzGA6U3_5alloc6string6StringEB4_
FN:110,_RINvNtCs1G9XuckPzNo_11deacon_core5cache8hash_keyReEB4_
FN:86,_RNCNvMs_NtCs1G9XuckPzNo_11deacon_core5cacheINtB6_8TtlEntryNtNtCs8Ty2CzGA6U3_5alloc6string6StringE3new0B8_
FN:86,_RNCNvMs_NtCs1G9XuckPzNo_11deacon_core5cacheINtB6_8TtlEntryReE3new0B8_
FN:95,_RNvMs_NtCs1G9XuckPzNo_11deacon_core5cacheINtB4_8TtlEntryNtNtCs8Ty2CzGA6U3_5alloc6string6StringE10is_expiredB6_
FN:81,_RNvMs_NtCs1G9XuckPzNo_11deacon_core5cacheINtB4_8TtlEntryNtNtCs8Ty2CzGA6U3_5alloc6string6StringE3newB6_
FN:95,_RNvMs_NtCs1G9XuckPzNo_11deacon_core5cacheINtB4_8TtlEntryReE10is_expiredB6_
FN:81,_RNvMs_NtCs1G9XuckPzNo_11deacon_core5cacheINtB4_8TtlEntryReE3newB6_
FN:59,_RNvMNtCs1G9XuckPzNo_11deacon_core5cacheNtB2_10CacheStats3new
FN:63,_RNvMNtCs1G9XuckPzNo_11deacon_core5cacheNtB2_10CacheStats8hit_rate
FN:148,_RNvNtNtCs1G9XuckPzNo_11deacon_core5cache5testss_13test_hash_key
FN:163,_RNvNtNtCs1G9XuckPzNo_11deacon_core5cache5testss_16test_cache_stats
FN:140,_RNvNtNtCs1G9XuckPzNo_11deacon_core5cache5testss_22test_ttl_entry_expired
FN:123,_RNvNtNtCs1G9XuckPzNo_11deacon_core5cache5testss_23test_ttl_entry_creation
FN:132,_RNvNtNtCs1G9XuckPzNo_11deacon_core5cache5testss_28test_ttl_entry_no_expiration
FNDA:0,_RINvNtCshLLWmVuQQJZ_11deacon_core5cache8hash_keypEB4_
FNDA:0,_RNCNvMs_NtCshLLWmVuQQJZ_11deacon_core5cacheINtB6_8TtlEntrypE3new0B8_
FNDA:0,_RNvMs_NtCshLLWmVuQQJZ_11deacon_core5cacheINtB4_8TtlEntrypE10is_expiredB6_
FNDA:0,_RNvMs_NtCshLLWmVuQQJZ_11deacon_core5cacheINtB4_8TtlEntrypE3newB6_
FNDA:0,_RNvYpINtNtCshLLWmVuQQJZ_11deacon_core5cache5CacheppE8is_emptyB8_
FNDA:0,_RNvYpINtNtCs1G9XuckPzNo_11deacon_core5cache5CacheppE8is_emptyB8_
FNDA:46,_RINvNtCs1G9XuckPzNo_11deacon_core5cache8hash_keyNtNtCs8Ty2CzGA6U3_5alloc6string6StringEB4_
FNDA:3,_RINvNtCs1G9XuckPzNo_11deacon_core5cache8hash_keyReEB4_
FNDA:4,_RNCNvMs_NtCs1G9XuckPzNo_11deacon_core5cacheINtB6_8TtlEntryNtNtCs8Ty2CzGA6U3_5alloc6string6StringE3new0B8_
FNDA:2,_RNCNvMs_NtCs1G9XuckPzNo_11deacon_core5cacheINtB6_8TtlEntryReE3new0B8_
FNDA:63,_RNvMs_NtCs1G9XuckPzNo_11deacon_core5cacheINtB4_8TtlEntryNtNtCs8Ty2CzGA6U3_5alloc6string6StringE10is_expiredB6_
FNDA:64,_RNvMs_NtCs1G9XuckPzNo_11deacon_core5cacheINtB4_8TtlEntryNtNtCs8Ty2CzGA6U3_5alloc6string6StringE3newB6_
FNDA:3,_RNvMs_NtCs1G9XuckPzNo_11deacon_core5cacheINtB4_8TtlEntryReE10is_expiredB6_
FNDA:3,_RNvMs_NtCs1G9XuckPzNo_11deacon_core5cacheINtB4_8TtlEntryReE3newB6_
FNDA:29,_RNvMNtCs1G9XuckPzNo_11deacon_core5cacheNtB2_10CacheStats3new
FNDA:4,_RNvMNtCs1G9XuckPzNo_11deacon_core5cacheNtB2_10CacheStats8hit_rate
FNDA:1,_RNvNtNtCs1G9XuckPzNo_11deacon_core5cache5testss_13test_hash_key
FNDA:1,_RNvNtNtCs1G9XuckPzNo_11deacon_core5cache5testss_16test_cache_stats
FNDA:1,_RNvNtNtCs1G9XuckPzNo_11deacon_core5cache5testss_22test_ttl_entry_expired
FNDA:1,_RNvNtNtCs1G9XuckPzNo_11deacon_core5cache5testss_23test_ttl_entry_creation
FNDA:1,_RNvNtNtCs1G9XuckPzNo_11deacon_core5cache5testss_28test_ttl_entry_no_expiration
FNF:12
FNH:11
DA:40,0
DA:41,0
DA:42,0
DA:59,29
DA:60,29
DA:61,29
DA:63,4
DA:64,4
DA:65,1
DA:67,3
DA:69,4
DA:81,67
DA:82,67
DA:83,67
DA:84,67
DA:85,67
DA:86,67
DA:88,67
DA:89,67
DA:90,67
DA:91,67
DA:92,67
DA:93,67
DA:95,66
DA:96,66
DA:97,7
DA:98,7
DA:99,7
DA:100,7
DA:101,7
DA:102,7
DA:104,59
DA:106,66
DA:110,49
DA:111,49
DA:112,49
DA:113,49
DA:114,49
DA:115,49
DA:123,1
DA:124,1
DA:125,1
DA:126,1
DA:127,1
DA:128,1
DA:129,1
DA:132,1
DA:133,1
DA:134,1
DA:135,1
DA:136,1
DA:137,1
DA:140,1
DA:141,1
DA:143,1
DA:144,1
DA:145,1
DA:148,1
DA:149,1
DA:150,1
DA:151,1
DA:153,1
DA:154,1
DA:155,1
DA:157,1
DA:158,1
DA:159,1
DA:160,1
DA:163,1
DA:164,1
DA:165,1
DA:166,1
DA:167,1
DA:169,1
DA:170,1
DA:171,1
DA:172,1
DA:173,1
DA:174,1
DA:175,1
DA:176,1
DA:177,1
BRF:0
BRH:0
LF:83
LH:80
end_of_record
SF:/home/runner/work/deacon/deacon/crates/core/src/cache/disk.rs
FN:43,_RINvMNtNtCshLLWmVuQQJZ_11deacon_core5cache4diskINtB3_9DiskCacheppE3newpEB7_
FN:49,_RNCINvMNtNtCshLLWmVuQQJZ_11deacon_core5cache4diskINtB5_9DiskCacheppE3newpE0B9_
FN:186,_RNCNvMNtNtCshLLWmVuQQJZ_11deacon_core5cache4diskINtB4_9DiskCacheppE10load_entry0B8_
FN:71,_RNCNvMNtNtCshLLWmVuQQJZ_11deacon_core5cache4diskINtB4_9DiskCacheppE10load_index0B8_
FN:92,_RNCNvMNtNtCshLLWmVuQQJZ_11deacon_core5cache4diskINtB4_9DiskCacheppE10save_indexs_0B8_
FN:152,_RNCNvMNtNtCshLLWmVuQQJZ_11deacon_core5cache4diskINtB4_9DiskCacheppE12set_with_ttls_0B8_
FN:289,_RNCNvXININtNtCshLLWmVuQQJZ_11deacon_core5cache4disks_0ppEINtB7_9DiskCacheppEINtB9_5CacheppE3len0Bb_
FN:170,_RNvMNtNtCshLLWmVuQQJZ_11deacon_core5cache4diskINtB2_9DiskCacheppE10load_entryB6_
FN:66,_RNvMNtNtCshLLWmVuQQJZ_11deacon_core5cache4diskINtB2_9DiskCacheppE10load_indexB6_
FN:86,_RNvMNtNtCshLLWmVuQQJZ_11deacon_core5cache4diskINtB2_9DiskCacheppE10save_indexB6_
FN:142,_RNvMNtNtCshLLWmVuQQJZ_11deacon_core5cache4diskINtB2_9DiskCacheppE12set_with_ttlB6_
FN:137,_RNvMNtNtCshLLWmVuQQJZ_11deacon_core5cache4diskINtB2_9DiskCacheppE18get_data_file_pathB6_
FN:123,_RNvMNtNtCshLLWmVuQQJZ_11deacon_core5cache4diskINtB2_9DiskCacheppE19is_metadata_expiredB6_
FN:98,_RNvMNtNtCshLLWmVuQQJZ_11deacon_core5cache4diskINtB2_9DiskCacheppE23cleanup_expired_entriesB6_
FN:208,_RNvXININtNtCshLLWmVuQQJZ_11deacon_core5cache4disks_0ppEINtB5_9DiskCacheppEINtB7_5CacheppE3getB9_
FN:280,_RNvXININtNtCshLLWmVuQQJZ_11deacon_core5cache4disks_0ppEINtB5_9DiskCacheppEINtB7_5CacheppE3lenB9_
FN:204,_RNvXININtNtCshLLWmVuQQJZ_11deacon_core5cache4disks_0ppEINtB5_9DiskCacheppEINtB7_5CacheppE3setB9_
FN:257,_RNvXININtNtCshLLWmVuQQJZ_11deacon_core5cache4disks_0ppEINtB5_9DiskCacheppEINtB7_5CacheppE5clearB9_
FN:296,_RNvXININtNtCshLLWmVuQQJZ_11deacon_core5cache4disks_0ppEINtB5_9DiskCacheppEINtB7_5CacheppE5statsB9_
FN:230,_RNvXININtNtCshLLWmVuQQJZ_11deacon_core5cache4disks_0ppEINtB5_9DiskCacheppEINtB7_5CacheppE6removeB9_
FN:43,_RINvMNtNtCs1G9XuckPzNo_11deacon_core5cache4diskINtB3_9DiskCacheNtNtCs8Ty2CzGA6U3_5alloc6string6StringBZ_E3newRNtNtCsiKSG5X70Gj7_3std4path4PathEB7_
FN:49,_RNCINvMNtNtCs1G9XuckPzNo_11deacon_core5cache4diskINtB5_9DiskCacheNtNtCs8Ty2CzGA6U3_5alloc6string6StringB11_E3newRNtNtCsiKSG5X70Gj7_3std4path4PathE0B9_
FN:186,_RNCNvMNtNtCs1G9XuckPzNo_11deacon_core5cache4diskINtB4_9DiskCacheNtNtCs8Ty2CzGA6U3_5alloc6string6StringB10_E10load_entry0B8_
FN:71,_RNCNvMNtNtCs1G9XuckPzNo_11deacon_core5cache4diskINtB4_9DiskCacheNtNtCs8Ty2CzGA6U3_5alloc6string6StringB10_E10load_index0B8_
FN:92,_RNCNvMNtNtCs1G9XuckPzNo_11deacon_core5cache4diskINtB4_9DiskCacheNtNtCs8Ty2CzGA6U3_5alloc6string6StringB10_E10save_indexs_0B8_
FN:152,_RNCNvMNtNtCs1G9XuckPzNo_11deacon_core5cache4diskINtB4_9DiskCacheNtNtCs8Ty2CzGA6U3_5alloc6string6StringB10_E12set_with_ttls_0B8_
FN:289,_RNCNvXs_NtNtCs1G9XuckPzNo_11deacon_core5cache4diskINtB6_9DiskCacheNtNtCs8Ty2CzGA6U3_5alloc6string6StringB12_EINtB8_5CacheB12_B12_E3len0Ba_
FN:170,_RNvMNtNtCs1G9XuckPzNo_11deacon_core5cache4diskINtB2_9DiskCacheNtNtCs8Ty2CzGA6U3_5alloc6string6StringBY_E10load_entryB6_
FN:66,_RNvMNtNtCs1G9XuckPzNo_11deacon_core5cache4diskINtB2_9DiskCacheNtNtCs8Ty2CzGA6U3_5alloc6string6StringBY_E10load_indexB6_
FN:86,_RNvMNtNtCs1G9XuckPzNo_11deacon_core5cache4diskINtB2_9DiskCacheNtNtCs8Ty2CzGA6U3_5alloc6string6StringBY_E10save_indexB6_
FN:142,_RNvMNtNtCs1G9XuckPzNo_11deacon_core5cache4diskINtB2_9DiskCacheNtNtCs8Ty2CzGA6U3_5alloc6string6StringBY_E12set_with_ttlB6_
FN:137,_RNvMNtNtCs1G9XuckPzNo_11deacon_core5cache4diskINtB2_9DiskCacheNtNtCs8Ty2CzGA6U3_5alloc6string6StringBY_E18get_data_file_pathB6_
FN:123,_RNvMNtNtCs1G9XuckPzNo_11deacon_core5cache4diskINtB2_9DiskCacheNtNtCs8Ty2CzGA6U3_5alloc6string6StringBY_E19is_metadata_expiredB6_
FN:98,_RNvMNtNtCs1G9XuckPzNo_11deacon_core5cache4diskINtB2_9DiskCacheNtNtCs8Ty2CzGA6U3_5alloc6string6StringBY_E23cleanup_expired_entriesB6_
FN:208,_RNvXs_NtNtCs1G9XuckPzNo_11deacon_core5cache4diskINtB4_9DiskCacheNtNtCs8Ty2CzGA6U3_5alloc6string6StringB10_EINtB6_5CacheB10_B10_E3getB8_
FN:280,_RNvXs_NtNtCs1G9XuckPzNo_11deacon_core5cache4diskINtB4_9DiskCacheNtNtCs8Ty2CzGA6U3_5alloc6string6StringB10_EINtB6_5CacheB10_B10_E3lenB8_
FN:204,_RNvXs_NtNtCs1G9XuckPzNo_11deacon_core5cache4diskINtB4_9DiskCacheNtNtCs8Ty2CzGA6U3_5alloc6string6StringB10_EINtB6_5CacheB10_B10_E3setB8_
FN:257,_RNvXs_NtNtCs1G9XuckPzNo_11deacon_core5cache4diskINtB4_9DiskCacheNtNtCs8Ty2CzGA6U3_5alloc6string6StringB10_EINtB6_5CacheB10_B10_E5clearB8_
FN:296,_RNvXs_NtNtCs1G9XuckPzNo_11deacon_core5cache4diskINtB4_9DiskCacheNtNtCs8Ty2CzGA6U3_5alloc6string6StringB10_EINtB6_5CacheB10_B10_E5statsB8_
FN:230,_RNvXs_NtNtCs1G9XuckPzNo_11deacon_core5cache4diskINtB4_9DiskCacheNtNtCs8Ty2CzGA6U3_5alloc6string6StringB10_EINtB6_5CacheB10_B10_E6removeB8_
FN:388,_RNvNtNtNtCs1G9XuckPzNo_11deacon_core5cache4disk5testss_10test_clear
FN:403,_RNvNtNtNtCs1G9XuckPzNo_11deacon_core5cache4disk5testss_10test_stats
FN:342,_RNvNtNtNtCs1G9XuckPzNo_11deacon_core5cache4disk5testss_16test_persistence
FN:320,_RNvNtNtNtCs1G9XuckPzNo_11deacon_core5cache4disk5testss_21test_basic_operations
FN:360,_RNvNtNtNtCs1G9XuckPzNo_11deacon_core5cache4disk5testss_8test_ttl
FNDA:0,_RINvMNtNtCshLLWmVuQQJZ_11deacon_core5cache4diskINtB3_9DiskCacheppE3newpEB7_
FNDA:0,_RNCINvMNtNtCshLLWmVuQQJZ_11deacon_core5cache4diskINtB5_9DiskCacheppE3newpE0B9_
FNDA:0,_RNCNvMNtNtCshLLWmVuQQJZ_11deacon_core5cache4diskINtB4_9DiskCacheppE10load_entry0B8_
FNDA:0,_RNCNvMNtNtCshLLWmVuQQJZ_11deacon_core5cache4diskINtB4_9DiskCacheppE10load_index0B8_
FNDA:0,_RNCNvMNtNtCshLLWmVuQQJZ_11deacon_core5cache4diskINtB4_9DiskCacheppE10save_indexs_0B8_
FNDA:0,_RNCNvMNtNtCshLLWmVuQQJZ_11deacon_core5cache4diskINtB4_9DiskCacheppE12set_with_ttls_0B8_
FNDA:0,_RNCNvXININtNtCshLLWmVuQQJZ_11deacon_core5cache4disks_0ppEINtB7_9DiskCacheppEINtB9_5CacheppE3len0Bb_
FNDA:0,_RNvMNtNtCshLLWmVuQQJZ_11deacon_core5cache4diskINtB2_9DiskCacheppE10load_entryB6_
FNDA:0,_RNvMNtNtCshLLWmVuQQJZ_11deacon_core5cache4diskINtB2_9DiskCacheppE10load_indexB6_
FNDA:0,_RNvMNtNtCshLLWmVuQQJZ_11deacon_core5cache4diskINtB2_9DiskCacheppE10save_indexB6_
FNDA:0,_RNvMNtNtCshLLWmVuQQJZ_11deacon_core5cache4diskINtB2_9DiskCacheppE12set_with_ttlB6_
FNDA:0,_RNvMNtNtCshLLWmVuQQJZ_11deacon_core5cache4diskINtB2_9DiskCacheppE18get_data_file_pathB6_
FNDA:0,_RNvMNtNtCshLLWmVuQQJZ_11deacon_core5cache4diskINtB2_9DiskCacheppE19is_metadata_expiredB6_
FNDA:0,_RNvMNtNtCshLLWmVuQQJZ_11deacon_core5cache4diskINtB2_9DiskCacheppE23cleanup_expired_entriesB6_
FNDA:0,_RNvXININtNtCshLLWmVuQQJZ_11deacon_core5cache4disks_0ppEINtB5_9DiskCacheppEINtB7_5CacheppE3getB9_
FNDA:0,_RNvXININtNtCshLLWmVuQQJZ_11deacon_core5cache4disks_0ppEINtB5_9DiskCacheppEINtB7_5CacheppE3lenB9_
FNDA:0,_RNvXININtNtCshLLWmVuQQJZ_11deacon_core5cache4disks_0ppEINtB5_9DiskCacheppEINtB7_5CacheppE3setB9_
FNDA:0,_RNvXININtNtCshLLWmVuQQJZ_11deacon_core5cache4disks_0ppEINtB5_9DiskCacheppEINtB7_5CacheppE5clearB9_
FNDA:0,_RNvXININtNtCshLLWmVuQQJZ_11deacon_core5cache4disks_0ppEINtB5_9DiskCacheppEINtB7_5CacheppE5statsB9_
FNDA:0,_RNvXININtNtCshLLWmVuQQJZ_11deacon_core5cache4disks_0ppEINtB5_9DiskCacheppEINtB7_5CacheppE6removeB9_
FNDA:14,_RINvMNtNtCs1G9XuckPzNo_11deacon_core5cache4diskINtB3_9DiskCacheNtNtCs8Ty2CzGA6U3_5alloc6string6StringBZ_E3newRNtNtCsiKSG5X70Gj7_3std4path4PathEB7_
FNDA:0,_RNCINvMNtNtCs1G9XuckPzNo_11deacon_core5cache4diskINtB5_9DiskCacheNtNtCs8Ty2CzGA6U3_5alloc6string6StringB11_E3newRNtNtCsiKSG5X70Gj7_3std4path4PathE0B9_
FNDA:0,_RNCNvMNtNtCs1G9XuckPzNo_11deacon_core5cache4diskINtB4_9DiskCacheNtNtCs8Ty2CzGA6U3_5alloc6string6StringB10_E10load_entry0B8_
FNDA:0,_RNCNvMNtNtCs1G9XuckPzNo_11deacon_core5cache4diskINtB4_9DiskCacheNtNtCs8Ty2CzGA6U3_5alloc6string6StringB10_E10load_index0B8_
FNDA:0,_RNCNvMNtNtCs1G9XuckPzNo_11deacon_core5cache4diskINtB4_9DiskCacheNtNtCs8Ty2CzGA6U3_5alloc6string6StringB10_E10save_indexs_0B8_
FNDA:0,_RNCNvMNtNtCs1G9XuckPzNo_11deacon_core5cache4diskINtB4_9DiskCacheNtNtCs8Ty2CzGA6U3_5alloc6string6StringB10_E12set_with_ttls_0B8_
FNDA:9,_RNCNvXs_NtNtCs1G9XuckPzNo_11deacon_core5cache4diskINtB6_9DiskCacheNtNtCs8Ty2CzGA6U3_5alloc6string6StringB12_EINtB8_5CacheB12_B12_E3len0Ba_
FNDA:20,_RNvMNtNtCs1G9XuckPzNo_11deacon_core5cache4diskINtB2_9DiskCacheNtNtCs8Ty2CzGA6U3_5alloc6string6StringBY_E10load_entryB6_
FNDA:14,_RNvMNtNtCs1G9XuckPzNo_11deacon_core5cache4diskINtB2_9DiskCacheNtNtCs8Ty2CzGA6U3_5alloc6string6StringBY_E10load_indexB6_
FNDA:30,_RNvMNtNtCs1G9XuckPzNo_11deacon_core5cache4diskINtB2_9DiskCacheNtNtCs8Ty2CzGA6U3_5alloc6string6StringBY_E10save_indexB6_
FNDA:26,_RNvMNtNtCs1G9XuckPzNo_11deacon_core5cache4diskINtB2_9DiskCacheNtNtCs8Ty2CzGA6U3_5alloc6string6StringBY_E12set_with_ttlB6_
FNDA:26,_RNvMNtNtCs1G9XuckPzNo_11deacon_core5cache4diskINtB2_9DiskCacheNtNtCs8Ty2CzGA6U3_5alloc6string6StringBY_E18get_data_file_pathB6_
FNDA:12,_RNvMNtNtCs1G9XuckPzNo_11deacon_core5cache4diskINtB2_9DiskCacheNtNtCs8Ty2CzGA6U3_5alloc6string6StringBY_E19is_metadata_expiredB6_
FNDA:2,_RNvMNtNtCs1G9XuckPzNo_11deacon_core5cache4diskINtB2_9DiskCacheNtNtCs8Ty2CzGA6U3_5alloc6string6StringBY_E23cleanup_expired_entriesB6_
FNDA:18,_RNvXs_NtNtCs1G9XuckPzNo_11deacon_core5cache4diskINtB4_9DiskCacheNtNtCs8Ty2CzGA6U3_5alloc6string6StringB10_EINtB6_5CacheB10_B10_E3getB8_
FNDA:11,_RNvXs_NtNtCs1G9XuckPzNo_11deacon_core5cache4diskINtB4_9DiskCacheNtNtCs8Ty2CzGA6U3_5alloc6string6StringB10_EINtB6_5CacheB10_B10_E3lenB8_
FNDA:6,_RNvXs_NtNtCs1G9XuckPzNo_11deacon_core5cache4diskINtB4_9DiskCacheNtNtCs8Ty2CzGA6U3_5alloc6string6StringB10_EINtB6_5CacheB10_B10_E3setB8_
FNDA:2,_RNvXs_NtNtCs1G9XuckPzNo_11deacon_core5cache4diskINtB4_9DiskCacheNtNtCs8Ty2CzGA6U3_5alloc6string6StringB10_EINtB6_5CacheB10_B10_E5clearB8_
FNDA:3,_RNvXs_NtNtCs1G9XuckPzNo_11deacon_core5cache4diskINtB4_9DiskCacheNtNtCs8Ty2CzGA6U3_5alloc6string6StringB10_EINtB6_5CacheB10_B10_E5statsB8_
FNDA:2,_RNvXs_NtNtCs1G9XuckPzNo_11deacon_core5cache4diskINtB4_9DiskCacheNtNtCs8Ty2CzGA6U3_5alloc6string6StringB10_EINtB6_5CacheB10_B10_E6removeB8_
FNDA:1,_RNvNtNtNtCs1G9XuckPzNo_11deacon_core5cache4disk5testss_10test_clear
FNDA:1,_RNvNtNtNtCs1G9XuckPzNo_11deacon_core5cache4disk5testss_10test_stats
FNDA:1,_RNvNtNtNtCs1G9XuckPzNo_11deacon_core5cache4disk5testss_16test_persistence
FNDA:1,_RNvNtNtNtCs1G9XuckPzNo_11deacon_core5cache4disk5testss_21test_basic_operations
FNDA:1,_RNvNtNtNtCs1G9XuckPzNo_11deacon_core5cache4disk5testss_8test_ttl
FNF:25
FNH:20
DA:43,14
DA:44,14
DA:47,14
DA:48,0
DA:49,0
DA:50,14
DA:52,14
DA:53,14
DA:54,14
DA:55,14
DA:56,14
DA:57,14
DA:60,14
DA:62,14
DA:63,14
DA:66,14
DA:67,14
DA:69,14
DA:70,2
DA:71,2
DA:73,2
DA:74,2
DA:77,2
DA:79,2
DA:80,12
DA:82,14
DA:83,14
DA:86,30
DA:87,30
DA:88,30
DA:89,30
DA:91,30
DA:92,30
DA:94,30
DA:95,30
DA:98,2
DA:99,2
DA:101,4
DA:102,2
DA:103,0
DA:104,2
DA:107,2
DA:108,0
DA:110,0
DA:111,0
DA:112,0
DA:113,0
DA:114,0
DA:115,0
DA:116,0
DA:119,2
DA:120,2
DA:123,12
DA:124,12
DA:125,1
DA:126,1
DA:127,1
DA:128,1
DA:129,1
DA:130,1
DA:132,11
DA:134,12
DA:137,26
DA:138,26
DA:139,26
DA:142,26
DA:143,26
DA:144,26
DA:147,26
DA:148,26
DA:149,26
DA:151,26
DA:152,26
DA:155,26
DA:156,26
DA:157,26
DA:158,26
DA:159,26
DA:160,26
DA:162,26
DA:163,26
DA:165,26
DA:166,26
DA:167,26
DA:170,20
DA:171,20
DA:172,10
DA:173,10
DA:176,10
DA:177,0
DA:178,10
DA:180,10
DA:181,0
DA:182,0
DA:183,10
DA:185,10
DA:186,10
DA:188,10
DA:189,10
DA:191,10
DA:192,0
DA:193,10
DA:195,10
DA:196,20
DA:204,6
DA:205,6
DA:206,6
DA:208,18
DA:209,18
DA:211,18
DA:212,8
DA:213,8
DA:214,8
DA:215,8
DA:218,10
DA:219,10
DA:220,10
DA:222,0
DA:223,0
DA:224,0
DA:225,0
DA:228,18
DA:230,2
DA:231,2
DA:234,2
DA:235,2
DA:236,0
DA:240,2
DA:241,2
DA:242,2
DA:243,0
DA:244,2
DA:245,0
DA:247,2
DA:248,0
DA:249,2
DA:251,2
DA:252,0
DA:254,2
DA:255,2
DA:257,2
DA:258,2
DA:261,4
DA:262,4
DA:263,4
DA:264,0
DA:265,4
DA:266,0
DA:270,2
DA:273,2
DA:274,0
DA:275,2
DA:277,2
DA:278,2
DA:280,11
DA:282,11
DA:283,11
DA:284,11
DA:285,11
DA:287,11
DA:288,11
DA:289,11
DA:290,0
DA:291,9
DA:292,9
DA:293,11
DA:294,11
DA:296,3
DA:297,3
DA:298,3
DA:299,3
DA:300,3
DA:301,3
DA:303,3
DA:304,3
DA:305,3
DA:306,3
DA:307,3
DA:308,3
DA:309,3
DA:310,3
DA:320,1
DA:321,1
DA:322,1
DA:325,1
DA:326,1
DA:327,1
DA:330,1
DA:333,1
DA:334,1
DA:335,1
DA:337,1
DA:338,1
DA:339,1
DA:342,1
DA:343,1
DA:346,1
DA:347,1
DA:348,1
DA:349,1
DA:353,1
DA:354,1
DA:355,1
DA:357,1
DA:360,1
DA:361,1
DA:362,1
DA:365,1
DA:366,1
DA:367,1
DA:368,1
DA:369,1
DA:370,1
DA:374,1
DA:375,1
DA:376,1
DA:377,1
DA:378,1
DA:380,1
DA:381,1
DA:382,1
DA:383,1
DA:385,1
DA:388,1
DA:389,1
DA:390,1
DA:392,1
DA:393,1
DA:394,1
DA:396,1
DA:397,1
DA:398,1
DA:399,1
DA:400,1
DA:403,1
DA:404,1
DA:405,1
DA:407,1
DA:408,1
DA:409,1
DA:410,1
DA:412,1
DA:413,1
DA:414,1
DA:416,1
DA:417,1
DA:418,1
DA:419,1
DA:420,1
DA:421,1
DA:422,1
BRF:0
BRH:0
LF:257
LH:224
end_of_record
SF:/home/runner/work/deacon/deacon/crates/core/src/cache/keys.rs
FN:109,_RNvNtNtNtCs1G9XuckPzNo_11deacon_core5cache4keys5testss_20test_probe_cache_key
FN:98,_RNvNtNtNtCs1G9XuckPzNo_11deacon_core5cache4keys5testss_21test_config_cache_key
FN:76,_RNvNtNtNtCs1G9XuckPzNo_11deacon_core5cache4keys5testss_22test_feature_cache_key
FN:19,_RNvMNtNtCs1G9XuckPzNo_11deacon_core5cache4keysNtB2_15FeatureCacheKey3new
FN:61,_RNvMs0_NtNtCs1G9XuckPzNo_11deacon_core5cache4keysNtB5_13ProbeCacheKey3new
FN:40,_RNvMs_NtNtCs1G9XuckPzNo_11deacon_core5cache4keysNtB4_14ConfigCacheKey3new
FNDA:1,_RNvNtNtNtCs1G9XuckPzNo_11deacon_core5cache4keys5testss_20test_probe_cache_key
FNDA:1,_RNvNtNtNtCs1G9XuckPzNo_11deacon_core5cache4keys5testss_21test_config_cache_key
FNDA:1,_RNvNtNtNtCs1G9XuckPzNo_11deacon_core5cache4keys5testss_22test_feature_cache_key
FNDA:3,_RNvMNtNtCs1G9XuckPzNo_11deacon_core5cache4keysNtB2_15FeatureCacheKey3new
FNDA:3,_RNvMs0_NtNtCs1G9XuckPzNo_11deacon_core5cache4keysNtB5_13ProbeCacheKey3new
FNDA:3,_RNvMs_NtNtCs1G9XuckPzNo_11deacon_core5cache4keysNtB4_14ConfigCacheKey3new
FNF:6
FNH:6
DA:19,3
DA:20,3
DA:21,3
DA:22,3
DA:23,3
DA:24,3
DA:25,3
DA:40,3
DA:41,3
DA:42,3
DA:43,3
DA:44,3
DA:45,3
DA:46,3
DA:61,3
DA:62,3
DA:63,3
DA:64,3
DA:65,3
DA:66,3
DA:67,3
DA:76,1
DA:77,1
DA:78,1
DA:79,1
DA:80,1
DA:82,1
DA:83,1
DA:84,1
DA:85,1
DA:87,1
DA:88,1
DA:89,1
DA:90,1
DA:93,1
DA:94,1
DA:95,1
DA:98,1
DA:99,1
DA:100,1
DA:101,1
DA:102,1
DA:104,1
DA:105,1
DA:106,1
DA:109,1
DA:110,1
DA:111,1
DA:112,1
DA:113,1
DA:115,1
DA:116,1
DA:117,1
DA:118,1
DA:120,1
DA:122,1
DA:123,1
DA:124,1
BRF:0
BRH:0
LF:58
LH:58
end_of_record
SF:/home/runner/work/deacon/deacon/crates/core/src/cache/memory.rs
FN:85,_RNvMNtNtCshLLWmVuQQJZ_11deacon_core5cache6memoryINtB2_13InMemoryCacheppE12set_with_ttlB6_
FN:47,_RNvMNtNtCshLLWmVuQQJZ_11deacon_core5cache6memoryINtB2_13InMemoryCacheppE13estimate_sizeB6_
FN:54,_RNvMNtNtCshLLWmVuQQJZ_11deacon_core5cache6memoryINtB2_13InMemoryCacheppE14remove_expiredB6_
FN:42,_RNvMNtNtCshLLWmVuQQJZ_11deacon_core5cache6memoryINtB2_13InMemoryCacheppE17with_default_sizeB6_
FN:32,_RNvMNtNtCshLLWmVuQQJZ_11deacon_core5cache6memoryINtB2_13InMemoryCacheppE3newB6_
FN:73,_RNvMNtNtCshLLWmVuQQJZ_11deacon_core5cache6memoryINtB2_13InMemoryCacheppE9evict_lruB6_
FN:127,_RNvXININtNtCshLLWmVuQQJZ_11deacon_core5cache6memorys_0ppEINtB5_13InMemoryCacheppEINtB7_5CacheppE3getB9_
FN:169,_RNvXININtNtCshLLWmVuQQJZ_11deacon_core5cache6memorys_0ppEINtB5_13InMemoryCacheppEINtB7_5CacheppE3lenB9_
FN:123,_RNvXININtNtCshLLWmVuQQJZ_11deacon_core5cache6memorys_0ppEINtB5_13InMemoryCacheppEINtB7_5CacheppE3setB9_
FN:162,_RNvXININtNtCshLLWmVuQQJZ_11deacon_core5cache6memorys_0ppEINtB5_13InMemoryCacheppEINtB7_5CacheppE5clearB9_
FN:173,_RNvXININtNtCshLLWmVuQQJZ_11deacon_core5cache6memorys_0ppEINtB5_13InMemoryCacheppEINtB7_5CacheppE5statsB9_
FN:151,_RNvXININtNtCshLLWmVuQQJZ_11deacon_core5cache6memorys_0ppEINtB5_13InMemoryCacheppEINtB7_5CacheppE6removeB9_
FN:42,_RNvMNtNtCs1G9XuckPzNo_11deacon_core5cache6memoryINtB2_13InMemoryCacheppE17with_default_sizeB6_
FN:85,_RNvMNtNtCs1G9XuckPzNo_11deacon_core5cache6memoryINtB2_13InMemoryCacheNtNtCs8Ty2CzGA6U3_5alloc6string6StringB15_E12set_with_ttlB6_
FN:47,_RNvMNtNtCs1G9XuckPzNo_11deacon_core5cache6memoryINtB2_13InMemoryCacheNtNtCs8Ty2CzGA6U3_5alloc6string6StringB15_E13estimate_sizeB6_
FN:54,_RNvMNtNtCs1G9XuckPzNo_11deacon_core5cache6memoryINtB2_13InMemoryCacheNtNtCs8Ty2CzGA6U3_5alloc6string6StringB15_E14remove_expiredB6_
FN:32,_RNvMNtNtCs1G9XuckPzNo_11deacon_core5cache6memoryINtB2_13InMemoryCacheNtNtCs8Ty2CzGA6U3_5alloc6string6StringB15_E3newB6_
FN:73,_RNvMNtNtCs1G9XuckPzNo_11deacon_core5cache6memoryINtB2_13InMemoryCacheNtNtCs8Ty2CzGA6U3_5alloc6string6StringB15_E9evict_lruB6_
FN:127,_RNvXs_NtNtCs1G9XuckPzNo_11deacon_core5cache6memoryINtB4_13InMemoryCacheNtNtCs8Ty2CzGA6U3_5alloc6string6StringB17_EINtB6_5CacheB17_B17_E3getB8_
FN:169,_RNvXs_NtNtCs1G9XuckPzNo_11deacon_core5cache6memoryINtB4_13InMemoryCacheNtNtCs8Ty2CzGA6U3_5alloc6string6StringB17_EINtB6_5CacheB17_B17_E3lenB8_
FN:123,_RNvXs_NtNtCs1G9XuckPzNo_11deacon_core5cache6memoryINtB4_13InMemoryCacheNtNtCs8Ty2CzGA6U3_5alloc6string6StringB17_EINtB6_5CacheB17_B17_E3setB8_
FN:162,_RNvXs_NtNtCs1G9XuckPzNo_11deacon_core5cache6memoryINtB4_13InMemoryCacheNtNtCs8Ty2CzGA6U3_5alloc6string6StringB17_EINtB6_5CacheB17_B17_E5clearB8_
FN:173,_RNvXs_NtNtCs1G9XuckPzNo_11deacon_core5cache6memoryINtB4_13InMemoryCacheNtNtCs8Ty2CzGA6U3_5alloc6string6StringB17_EINtB6_5CacheB17_B17_E5statsB8_
FN:151,_RNvXs_NtNtCs1G9XuckPzNo_11deacon_core5cache6memoryINtB4_13InMemoryCacheNtNtCs8Ty2CzGA6U3_5alloc6string6StringB17_EINtB6_5CacheB17_B17_E6removeB8_
FN:269,_RNvNtNtNtCs1G9XuckPzNo_11deacon_core5cache6memory5testss_10test_clear
FN:283,_RNvNtNtNtCs1G9XuckPzNo_11deacon_core5cache6memory5testss_10test_stats
FN:240,_RNvNtNtNtCs1G9XuckPzNo_11deacon_core5cache6memory5testss_17test_lru_eviction
FN:190,_RNvNtNtNtCs1G9XuckPzNo_11deacon_core5cache6memory5testss_21test_basic_operations
FN:304,_RNvNtNtNtCs1G9XuckPzNo_11deacon_core5cache6memory5testss_30test_oversized_entry_rejection
FN:211,_RNvNtNtNtCs1G9XuckPzNo_11deacon_core5cache6memory5testss_8test_ttl
FNDA:0,_RNvMNtNtCshLLWmVuQQJZ_11deacon_core5cache6memoryINtB2_13InMemoryCacheppE12set_with_ttlB6_
FNDA:0,_RNvMNtNtCshLLWmVuQQJZ_11deacon_core5cache6memoryINtB2_13InMemoryCacheppE13estimate_sizeB6_
FNDA:0,_RNvMNtNtCshLLWmVuQQJZ_11deacon_core5cache6memoryINtB2_13InMemoryCacheppE14remove_expiredB6_
FNDA:0,_RNvMNtNtCshLLWmVuQQJZ_11deacon_core5cache6memoryINtB2_13InMemoryCacheppE17with_default_sizeB6_
FNDA:0,_RNvMNtNtCshLLWmVuQQJZ_11deacon_core5cache6memoryINtB2_13InMemoryCacheppE3newB6_
FNDA:0,_RNvMNtNtCshLLWmVuQQJZ_11deacon_core5cache6memoryINtB2_13InMemoryCacheppE9evict_lruB6_
FNDA:0,_RNvXININtNtCshLLWmVuQQJZ_11deacon_core5cache6memorys_0ppEINtB5_13InMemoryCacheppEINtB7_5CacheppE3getB9_
FNDA:0,_RNvXININtNtCshLLWmVuQQJZ_11deacon_core5cache6memorys_0ppEINtB5_13InMemoryCacheppEINtB7_5CacheppE3lenB9_
FNDA:0,_RNvXININtNtCshLLWmVuQQJZ_11deacon_core5cache6memorys_0ppEINtB5_13InMemoryCacheppEINtB7_5CacheppE3setB9_
FNDA:0,_RNvXININtNtCshLLWmVuQQJZ_11deacon_core5cache6memorys_0ppEINtB5_13InMemoryCacheppEINtB7_5CacheppE5clearB9_
FNDA:0,_RNvXININtNtCshLLWmVuQQJZ_11deacon_core5cache6memorys_0ppEINtB5_13InMemoryCacheppEINtB7_5CacheppE5statsB9_
FNDA:0,_RNvXININtNtCshLLWmVuQQJZ_11deacon_core5cache6memorys_0ppEINtB5_13InMemoryCacheppEINtB7_5CacheppE6removeB9_
FNDA:0,_RNvMNtNtCs1G9XuckPzNo_11deacon_core5cache6memoryINtB2_13InMemoryCacheppE17with_default_sizeB6_
FNDA:38,_RNvMNtNtCs1G9XuckPzNo_11deacon_core5cache6memoryINtB2_13InMemoryCacheNtNtCs8Ty2CzGA6U3_5alloc6string6StringB15_E12set_with_ttlB6_
FNDA:46,_RNvMNtNtCs1G9XuckPzNo_11deacon_core5cache6memoryINtB2_13InMemoryCacheNtNtCs8Ty2CzGA6U3_5alloc6string6StringB15_E13estimate_sizeB6_
FNDA:61,_RNvMNtNtCs1G9XuckPzNo_11deacon_core5cache6memoryINtB2_13InMemoryCacheNtNtCs8Ty2CzGA6U3_5alloc6string6StringB15_E14remove_expiredB6_
FNDA:14,_RNvMNtNtCs1G9XuckPzNo_11deacon_core5cache6memoryINtB2_13InMemoryCacheNtNtCs8Ty2CzGA6U3_5alloc6string6StringB15_E3newB6_
FNDA:25,_RNvMNtNtCs1G9XuckPzNo_11deacon_core5cache6memoryINtB2_13InMemoryCacheNtNtCs8Ty2CzGA6U3_5alloc6string6StringB15_E9evict_lruB6_
FNDA:23,_RNvXs_NtNtCs1G9XuckPzNo_11deacon_core5cache6memoryINtB4_13InMemoryCacheNtNtCs8Ty2CzGA6U3_5alloc6string6StringB17_EINtB6_5CacheB17_B17_E3getB8_
FNDA:9,_RNvXs_NtNtCs1G9XuckPzNo_11deacon_core5cache6memoryINtB4_13InMemoryCacheNtNtCs8Ty2CzGA6U3_5alloc6string6StringB17_EINtB6_5CacheB17_B17_E3lenB8_
FNDA:18,_RNvXs_NtNtCs1G9XuckPzNo_11deacon_core5cache6memoryINtB4_13InMemoryCacheNtNtCs8Ty2CzGA6U3_5alloc6string6StringB17_EINtB6_5CacheB17_B17_E3setB8_
FNDA:3,_RNvXs_NtNtCs1G9XuckPzNo_11deacon_core5cache6memoryINtB4_13InMemoryCacheNtNtCs8Ty2CzGA6U3_5alloc6string6StringB17_EINtB6_5CacheB17_B17_E5clearB8_
FNDA:3,_RNvXs_NtNtCs1G9XuckPzNo_11deacon_core5cache6memoryINtB4_13InMemoryCacheNtNtCs8Ty2CzGA6U3_5alloc6string6StringB17_EINtB6_5CacheB17_B17_E5statsB8_
FNDA:2,_RNvXs_NtNtCs1G9XuckPzNo_11deacon_core5cache6memoryINtB4_13InMemoryCacheNtNtCs8Ty2CzGA6U3_5alloc6string6StringB17_EINtB6_5CacheB17_B17_E6removeB8_
FNDA:1,_RNvNtNtNtCs1G9XuckPzNo_11deacon_core5cache6memory5testss_10test_clear
FNDA:1,_RNvNtNtNtCs1G9XuckPzNo_11deacon_core5cache6memory5testss_10test_stats
FNDA:1,_RNvNtNtNtCs1G9XuckPzNo_11deacon_core5cache6memory5testss_17test_lru_eviction
FNDA:1,_RNvNtNtNtCs1G9XuckPzNo_11deacon_core5cache6memory5testss_21test_basic_operations
FNDA:1,_RNvNtNtNtCs1G9XuckPzNo_11deacon_core5cache6memory5testss_30test_oversized_entry_rejection
FNDA:1,_RNvNtNtNtCs1G9XuckPzNo_11deacon_core5cache6memory5testss_8test_ttl
FNF:18
FNH:17
DA:32,14
DA:33,14
DA:34,14
DA:35,14
DA:36,14
DA:37,14
DA:38,14
DA:39,14
DA:42,0
DA:43,0
DA:44,0
DA:47,46
DA:50,46
DA:51,46
DA:54,61
DA:55,61
DA:57,104
DA:58,43
DA:59,0
DA:60,43
DA:63,61
DA:64,0
DA:65,0
DA:66,0
DA:67,0
DA:68,0
DA:70,61
DA:73,25
DA:74,31
DA:75,6
DA:76,6
DA:77,6
DA:78,6
DA:79,6
DA:80,0
DA:82,25
DA:85,38
DA:86,38
DA:88,38
DA:89,38
DA:92,38
DA:93,13
DA:94,13
DA:95,13
DA:96,13
DA:97,13
DA:98,25
DA:101,25
DA:102,0
DA:103,0
DA:104,25
DA:107,25
DA:108,25
DA:111,25
DA:113,25
DA:114,25
DA:115,38
DA:123,18
DA:124,18
DA:125,18
DA:127,23
DA:128,23
DA:130,23
DA:131,10
DA:133,0
DA:134,0
DA:135,0
DA:136,0
DA:137,0
DA:138,0
DA:140,10
DA:141,10
DA:142,10
DA:145,13
DA:146,13
DA:147,13
DA:149,23
DA:151,2
DA:152,2
DA:153,2
DA:154,2
DA:155,2
DA:156,2
DA:158,0
DA:160,2
DA:162,3
DA:163,3
DA:164,3
DA:165,3
DA:166,3
DA:167,3
DA:169,9
DA:170,9
DA:171,9
DA:173,3
DA:174,3
DA:175,3
DA:176,3
DA:177,3
DA:178,3
DA:179,3
DA:180,3
DA:181,3
DA:190,1
DA:191,1
DA:194,1
DA:195,1
DA:196,1
DA:199,1
DA:202,1
DA:203,1
DA:204,1
DA:206,1
DA:207,1
DA:208,1
DA:211,1
DA:214,1
DA:217,1
DA:218,1
DA:219,1
DA:220,1
DA:221,1
DA:222,1
DA:226,1
DA:227,1
DA:228,1
DA:229,1
DA:230,1
DA:232,1
DA:233,1
DA:234,1
DA:235,1
DA:237,1
DA:240,1
DA:241,1
DA:244,1
DA:245,1
DA:246,1
DA:249,1
DA:253,7
DA:254,6
DA:255,6
DA:256,6
DA:257,6
DA:262,1
DA:265,1
DA:266,1
DA:269,1
DA:270,1
DA:272,1
DA:273,1
DA:274,1
DA:276,1
DA:277,1
DA:278,1
DA:279,1
DA:280,1
DA:283,1
DA:284,1
DA:286,1
DA:287,1
DA:288,1
DA:289,1
DA:291,1
DA:292,1
DA:293,1
DA:295,1
DA:296,1
DA:297,1
DA:298,1
DA:299,1
DA:300,1
DA:301,1
DA:304,1
DA:305,1
DA:307,1
DA:308,1
DA:310,1
DA:311,1
DA:312,1
BRF:0
BRH:0
LF:180
LH:161
end_of_record
SF:/home/runner/work/deacon/deacon/crates/core/src/cache/multilevel.rs
FN:44,_RINvMNtNtCshLLWmVuQQJZ_11deacon_core5cache10multilevelINtB3_15MultiLevelCacheppE24with_default_memory_sizepEB7_
FN:33,_RINvMNtNtCshLLWmVuQQJZ_11deacon_core5cache10multilevelINtB3_15MultiLevelCacheppE3newpEB7_
FN:49,_RNvMNtNtCshLLWmVuQQJZ_11deacon_core5cache10multilevelINtB2_15MultiLevelCacheppE12set_with_ttlB6_
FN:70,_RNvMNtNtCshLLWmVuQQJZ_11deacon_core5cache10multilevelINtB2_15MultiLevelCacheppE17promote_to_memoryB6_
FN:88,_RNvXININtNtCshLLWmVuQQJZ_11deacon_core5cache10multilevels_0ppEINtB5_15MultiLevelCacheppEINtB7_5CacheppE3getB9_
FN:133,_RNvXININtNtCshLLWmVuQQJZ_11deacon_core5cache10multilevels_0ppEINtB5_15MultiLevelCacheppEINtB7_5CacheppE3lenB9_
FN:84,_RNvXININtNtCshLLWmVuQQJZ_11deacon_core5cache10multilevels_0ppEINtB5_15MultiLevelCacheppEINtB7_5CacheppE3setB9_
FN:119,_RNvXININtNtCshLLWmVuQQJZ_11deacon_core5cache10multilevels_0ppEINtB5_15MultiLevelCacheppEINtB7_5CacheppE5clearB9_
FN:140,_RNvXININtNtCshLLWmVuQQJZ_11deacon_core5cache10multilevels_0ppEINtB5_15MultiLevelCacheppEINtB7_5CacheppE5statsB9_
FN:107,_RNvXININtNtCshLLWmVuQQJZ_11deacon_core5cache10multilevels_0ppEINtB5_15MultiLevelCacheppEINtB7_5CacheppE6removeB9_
FN:44,_RINvMNtNtCs1G9XuckPzNo_11deacon_core5cache10multilevelINtB3_15MultiLevelCacheppE24with_default_memory_sizepEB7_
FN:33,_RINvMNtNtCs1G9XuckPzNo_11deacon_core5cache10multilevelINtB3_15MultiLevelCacheNtNtCs8Ty2CzGA6U3_5alloc6string6StringB1d_E3newRNtNtCsiKSG5X70Gj7_3std4path4PathEB7_
FN:49,_RNvMNtNtCs1G9XuckPzNo_11deacon_core5cache10multilevelINtB2_15MultiLevelCacheNtNtCs8Ty2CzGA6U3_5alloc6string6StringB1c_E12set_with_ttlB6_
FN:70,_RNvMNtNtCs1G9XuckPzNo_11deacon_core5cache10multilevelINtB2_15MultiLevelCacheNtNtCs8Ty2CzGA6U3_5alloc6string6StringB1c_E17promote_to_memoryB6_
FN:88,_RNvXs_NtNtCs1G9XuckPzNo_11deacon_core5cache10multilevelINtB4_15MultiLevelCacheNtNtCs8Ty2CzGA6U3_5alloc6string6StringB1e_EINtB6_5CacheB1e_B1e_E3getB8_
FN:133,_RNvXs_NtNtCs1G9XuckPzNo_11deacon_core5cache10multilevelINtB4_15MultiLevelCacheNtNtCs8Ty2CzGA6U3_5alloc6string6StringB1e_EINtB6_5CacheB1e_B1e_E3lenB8_
FN:84,_RNvXs_NtNtCs1G9XuckPzNo_11deacon_core5cache10multilevelINtB4_15MultiLevelCacheNtNtCs8Ty2CzGA6U3_5alloc6string6StringB1e_EINtB6_5CacheB1e_B1e_E3setB8_
FN:119,_RNvXs_NtNtCs1G9XuckPzNo_11deacon_core5cache10multilevelINtB4_15MultiLevelCacheNtNtCs8Ty2CzGA6U3_5alloc6string6StringB1e_EINtB6_5CacheB1e_B1e_E5clearB8_
FN:140,_RNvXs_NtNtCs1G9XuckPzNo_11deacon_core5cache10multilevelINtB4_15MultiLevelCacheNtNtCs8Ty2CzGA6U3_5alloc6string6StringB1e_EINtB6_5CacheB1e_B1e_E5statsB8_
FN:107,_RNvXs_NtNtCs1G9XuckPzNo_11deacon_core5cache10multilevelINtB4_15MultiLevelCacheNtNtCs8Ty2CzGA6U3_5alloc6string6StringB1e_EINtB6_5CacheB1e_B1e_E6removeB8_
FN:270,_RNvNtNtNtCs1G9XuckPzNo_11deacon_core5cache10multilevel5testss_10test_clear
FN:285,_RNvNtNtNtCs1G9XuckPzNo_11deacon_core5cache10multilevel5testss_19test_combined_stats
FN:162,_RNvNtNtNtCs1G9XuckPzNo_11deacon_core5cache10multilevel5testss_21test_basic_operations
FN:203,_RNvNtNtNtCs1G9XuckPzNo_11deacon_core5cache10multilevel5testss_24test_promotion_to_memory
FN:183,_RNvNtNtNtCs1G9XuckPzNo_11deacon_core5cache10multilevel5testss_28test_memory_to_disk_fallback
FN:222,_RNvNtNtNtCs1G9XuckPzNo_11deacon_core5cache10multilevel5testss_33test_persistence_across_instances
FN:241,_RNvNtNtNtCs1G9XuckPzNo_11deacon_core5cache10multilevel5testss_8test_ttl
FNDA:0,_RINvMNtNtCshLLWmVuQQJZ_11deacon_core5cache10multilevelINtB3_15MultiLevelCacheppE24with_default_memory_sizepEB7_
FNDA:0,_RINvMNtNtCshLLWmVuQQJZ_11deacon_core5cache10multilevelINtB3_15MultiLevelCacheppE3newpEB7_
FNDA:0,_RNvMNtNtCshLLWmVuQQJZ_11deacon_core5cache10multilevelINtB2_15MultiLevelCacheppE12set_with_ttlB6_
FNDA:0,_RNvMNtNtCshLLWmVuQQJZ_11deacon_core5cache10multilevelINtB2_15MultiLevelCacheppE17promote_to_memoryB6_
FNDA:0,_RNvXININtNtCshLLWmVuQQJZ_11deacon_core5cache10multilevels_0ppEINtB5_15MultiLevelCacheppEINtB7_5CacheppE3getB9_
FNDA:0,_RNvXININtNtCshLLWmVuQQJZ_11deacon_core5cache10multilevels_0ppEINtB5_15MultiLevelCacheppEINtB7_5CacheppE3lenB9_
FNDA:0,_RNvXININtNtCshLLWmVuQQJZ_11deacon_core5cache10multilevels_0ppEINtB5_15MultiLevelCacheppEINtB7_5CacheppE3setB9_
FNDA:0,_RNvXININtNtCshLLWmVuQQJZ_11deacon_core5cache10multilevels_0ppEINtB5_15MultiLevelCacheppEINtB7_5CacheppE5clearB9_
FNDA:0,_RNvXININtNtCshLLWmVuQQJZ_11deacon_core5cache10multilevels_0ppEINtB5_15MultiLevelCacheppEINtB7_5CacheppE5statsB9_
FNDA:0,_RNvXININtNtCshLLWmVuQQJZ_11deacon_core5cache10multilevels_0ppEINtB5_15MultiLevelCacheppEINtB7_5CacheppE6removeB9_
FNDA:0,_RINvMNtNtCs1G9XuckPzNo_11deacon_core5cache10multilevelINtB3_15MultiLevelCacheppE24with_default_memory_sizepEB7_
FNDA:8,_RINvMNtNtCs1G9XuckPzNo_11deacon_core5cache10multilevelINtB3_15MultiLevelCacheNtNtCs8Ty2CzGA6U3_5alloc6string6StringB1d_E3newRNtNtCsiKSG5X70Gj7_3std4path4PathEB7_
FNDA:19,_RNvMNtNtCs1G9XuckPzNo_11deacon_core5cache10multilevelINtB2_15MultiLevelCacheNtNtCs8Ty2CzGA6U3_5alloc6string6StringB1c_E12set_with_ttlB6_
FNDA:3,_RNvMNtNtCs1G9XuckPzNo_11deacon_core5cache10multilevelINtB2_15MultiLevelCacheNtNtCs8Ty2CzGA6U3_5alloc6string6StringB1c_E17promote_to_memoryB6_
FNDA:13,_RNvXs_NtNtCs1G9XuckPzNo_11deacon_core5cache10multilevelINtB4_15MultiLevelCacheNtNtCs8Ty2CzGA6U3_5alloc6string6StringB1e_EINtB6_5CacheB1e_B1e_E3getB8_
FNDA:2,_RNvXs_NtNtCs1G9XuckPzNo_11deacon_core5cache10multilevelINtB4_15MultiLevelCacheNtNtCs8Ty2CzGA6U3_5alloc6string6StringB1e_EINtB6_5CacheB1e_B1e_E3lenB8_
FNDA:18,_RNvXs_NtNtCs1G9XuckPzNo_11deacon_core5cache10multilevelINtB4_15MultiLevelCacheNtNtCs8Ty2CzGA6U3_5alloc6string6StringB1e_EINtB6_5CacheB1e_B1e_E3setB8_
FNDA:1,_RNvXs_NtNtCs1G9XuckPzNo_11deacon_core5cache10multilevelINtB4_15MultiLevelCacheNtNtCs8Ty2CzGA6U3_5alloc6string6StringB1e_EINtB6_5CacheB1e_B1e_E5clearB8_
FNDA:1,_RNvXs_NtNtCs1G9XuckPzNo_11deacon_core5cache10multilevelINtB4_15MultiLevelCacheNtNtCs8Ty2CzGA6U3_5alloc6string6StringB1e_EINtB6_5CacheB1e_B1e_E5statsB8_
FNDA:1,_RNvXs_NtNtCs1G9XuckPzNo_11deacon_core5cache10multilevelINtB4_15MultiLevelCacheNtNtCs8Ty2CzGA6U3_5alloc6string6StringB1e_EINtB6_5CacheB1e_B1e_E6removeB8_
FNDA:1,_RNvNtNtNtCs1G9XuckPzNo_11deacon_core5cache10multilevel5testss_10test_clear
FNDA:1,_RNvNtNtNtCs1G9XuckPzNo_11deacon_core5cache10multilevel5testss_19test_combined_stats
FNDA:1,_RNvNtNtNtCs1G9XuckPzNo_11deacon_core5cache10multilevel5testss_21test_basic_operations
FNDA:1,_RNvNtNtNtCs1G9XuckPzNo_11deacon_core5cache10multilevel5testss_24test_promotion_to_memory
FNDA:1,_RNvNtNtNtCs1G9XuckPzNo_11deacon_core5cache10multilevel5testss_28test_memory_to_disk_fallback
FNDA:1,_RNvNtNtNtCs1G9XuckPzNo_11deacon_core5cache10multilevel5testss_33test_persistence_across_instances
FNDA:1,_RNvNtNtNtCs1G9XuckPzNo_11deacon_core5cache10multilevel5testss_8test_ttl
FNF:17
FNH:16
DA:33,8
DA:34,8
DA:35,8
DA:37,8
DA:38,8
DA:39,8
DA:40,8
DA:41,8
DA:44,0
DA:45,0
DA:46,0
DA:49,19
DA:52,19
DA:53,19
DA:54,19
DA:56,11
DA:59,0
DA:61,8
DA:63,19
DA:65,19
DA:66,19
DA:67,19
DA:70,3
DA:71,3
DA:72,1
DA:74,2
DA:76,3
DA:84,18
DA:85,18
DA:86,18
DA:88,13
DA:90,13
DA:91,5
DA:92,5
DA:93,8
DA:96,8
DA:98,3
DA:99,3
DA:100,3
DA:101,5
DA:103,5
DA:104,5
DA:105,13
DA:107,1
DA:109,1
DA:110,1
DA:112,1
DA:113,1
DA:114,1
DA:115,0
DA:116,1
DA:117,1
DA:119,1
DA:120,1
DA:121,1
DA:123,1
DA:124,1
DA:126,1
DA:129,0
DA:131,1
DA:133,2
DA:137,2
DA:138,2
DA:140,1
DA:141,1
DA:142,1
DA:145,1
DA:146,1
DA:147,1
DA:148,1
DA:149,1
DA:150,1
DA:151,1
DA:152,1
DA:162,1
DA:163,1
DA:164,1
DA:165,1
DA:168,1
DA:169,1
DA:172,1
DA:175,1
DA:176,1
DA:177,1
DA:179,1
DA:180,1
DA:183,1
DA:184,1
DA:185,1
DA:186,1
DA:189,1
DA:192,11
DA:193,10
DA:194,10
DA:195,10
DA:196,10
DA:199,1
DA:200,1
DA:203,1
DA:204,1
DA:205,1
DA:206,1
DA:209,1
DA:212,1
DA:215,1
DA:218,1
DA:219,1
DA:222,1
DA:223,1
DA:226,1
DA:227,1
DA:228,1
DA:229,1
DA:230,1
DA:234,1
DA:235,1
DA:236,1
DA:238,1
DA:241,1
DA:242,1
DA:243,1
DA:244,1
DA:247,1
DA:248,1
DA:249,1
DA:250,1
DA:251,1
DA:252,1
DA:256,1
DA:257,1
DA:258,1
DA:259,1
DA:260,1
DA:262,1
DA:263,1
DA:264,1
DA:265,1
DA:267,1
DA:270,1
DA:271,1
DA:272,1
DA:273,1
DA:275,1
DA:276,1
DA:278,1
DA:279,1
DA:280,1
DA:281,1
DA:282,1
DA:285,1
DA:286,1
DA:287,1
DA:288,1
DA:290,1
DA:291,1
DA:292,1
DA:294,1
DA:295,1
DA:296,1
DA:297,1
DA:298,1
DA:299,1
BRF:0
BRH:0
LF:162
LH:156
end_of_record
SF:/home/runner/work/deacon/deacon/crates/core/src/compose.rs
FN:80,_RNvMNtCshLLWmVuQQJZ_11deacon_core7composeNtB2_14ComposeCommand13build_command
FN:164,_RNvMNtCshLLWmVuQQJZ_11deacon_core7composeNtB2_14ComposeCommand15parse_ps_output
FN:68,_RNvMNtCshLLWmVuQQJZ_11deacon_core7composeNtB2_14ComposeCommand16with_docker_path
FN:74,_RNvMNtCshLLWmVuQQJZ_11deacon_core7composeNtB2_14ComposeCommand17with_project_name
FN:158,_RNvMNtCshLLWmVuQQJZ_11deacon_core7composeNtB2_14ComposeCommand2ps
FN:141,_RNvMNtCshLLWmVuQQJZ_11deacon_core7composeNtB2_14ComposeCommand2up
FN:58,_RNvMNtCshLLWmVuQQJZ_11deacon_core7composeNtB2_14ComposeCommand3new
FN:152,_RNvMNtCshLLWmVuQQJZ_11deacon_core7composeNtB2_14ComposeCommand4down
FN:105,_RNvMNtCshLLWmVuQQJZ_11deacon_core7composeNtB2_14ComposeCommand7execute
FN:384,_RNvMs1_NtCshLLWmVuQQJZ_11deacon_core7composeNtB5_14ComposeProject16get_all_services
FN:294,_RNvMs_NtCshLLWmVuQQJZ_11deacon_core7composeNtB4_14ComposeManager11get_command
FN:338,_RNvMs_NtCshLLWmVuQQJZ_11deacon_core7composeNtB4_14ComposeManager12stop_project
FN:321,_RNvMs_NtCshLLWmVuQQJZ_11deacon_core7composeNtB4_14ComposeManager13start_project
FN:233,_RNvMs_NtCshLLWmVuQQJZ_11deacon_core7composeNtB4_14ComposeManager14create_project
FN:227,_RNvMs_NtCshLLWmVuQQJZ_11deacon_core7composeNtB4_14ComposeManager16with_docker_path
FN:302,_RNvMs_NtCshLLWmVuQQJZ_11deacon_core7composeNtB4_14ComposeManager18is_project_running
FN:351,_RNvMs_NtCshLLWmVuQQJZ_11deacon_core7composeNtB4_14ComposeManager24get_primary_container_id
FN:220,_RNvMs_NtCshLLWmVuQQJZ_11deacon_core7composeNtB4_14ComposeManager3new
FN:377,_RNvXs0_NtCshLLWmVuQQJZ_11deacon_core7composeNtB5_14ComposeManagerNtNtCs66KPHxksi63_4core7default7Default7default
FN:174,_RNCNvMNtCshLLWmVuQQJZ_11deacon_core7composeNtB4_14ComposeCommand15parse_ps_output0B6_
FN:188,_RNCNvMNtCshLLWmVuQQJZ_11deacon_core7composeNtB4_14ComposeCommand15parse_ps_outputs0_0B6_
FN:189,_RNCNvMNtCshLLWmVuQQJZ_11deacon_core7composeNtB4_14ComposeCommand15parse_ps_outputs1_0B6_
FN:192,_RNCNvMNtCshLLWmVuQQJZ_11deacon_core7composeNtB4_14ComposeCommand15parse_ps_outputs2_0B6_
FN:193,_RNCNvMNtCshLLWmVuQQJZ_11deacon_core7composeNtB4_14ComposeCommand15parse_ps_outputs3_0B6_
FN:196,_RNCNvMNtCshLLWmVuQQJZ_11deacon_core7composeNtB4_14ComposeCommand15parse_ps_outputs4_0B6_
FN:201,_RNCNvMNtCshLLWmVuQQJZ_11deacon_core7composeNtB4_14ComposeCommand15parse_ps_outputs5_0B6_
FN:183,_RNCNvMNtCshLLWmVuQQJZ_11deacon_core7composeNtB4_14ComposeCommand15parse_ps_outputs_0B6_
FN:146,_RNCNvMNtCshLLWmVuQQJZ_11deacon_core7composeNtB4_14ComposeCommand2up0B6_
FN:119,_RNCNvMNtCshLLWmVuQQJZ_11deacon_core7composeNtB4_14ComposeCommand7execute0B6_
FN:113,_RNCNvMNtCshLLWmVuQQJZ_11deacon_core7composeNtB4_14ComposeCommand7executes1_0B6_
FN:132,_RNCNvMNtCshLLWmVuQQJZ_11deacon_core7composeNtB4_14ComposeCommand7executes_0B6_
FN:258,_RNCNvMs_NtCshLLWmVuQQJZ_11deacon_core7composeNtB6_14ComposeManager14create_project0B8_
FN:280,_RNCNvMs_NtCshLLWmVuQQJZ_11deacon_core7composeNtB6_14ComposeManager14create_projects_0B8_
FN:309,_RNCNvMs_NtCshLLWmVuQQJZ_11deacon_core7composeNtB6_14ComposeManager18is_project_running0B8_
FN:355,_RNCNvMs_NtCshLLWmVuQQJZ_11deacon_core7composeNtB6_14ComposeManager24get_primary_container_id0B8_
FN:174,_RNCNvMNtCs1G9XuckPzNo_11deacon_core7composeNtB4_14ComposeCommand15parse_ps_output0B6_
FN:188,_RNCNvMNtCs1G9XuckPzNo_11deacon_core7composeNtB4_14ComposeCommand15parse_ps_outputs0_0B6_
FN:189,_RNCNvMNtCs1G9XuckPzNo_11deacon_core7composeNtB4_14ComposeCommand15parse_ps_outputs1_0B6_
FN:192,_RNCNvMNtCs1G9XuckPzNo_11deacon_core7composeNtB4_14ComposeCommand15parse_ps_outputs2_0B6_
FN:193,_RNCNvMNtCs1G9XuckPzNo_11deacon_core7composeNtB4_14ComposeCommand15parse_ps_outputs3_0B6_
FN:196,_RNCNvMNtCs1G9XuckPzNo_11deacon_core7composeNtB4_14ComposeCommand15parse_ps_outputs4_0B6_
FN:201,_RNCNvMNtCs1G9XuckPzNo_11deacon_core7composeNtB4_14ComposeCommand15parse_ps_outputs5_0B6_
FN:183,_RNCNvMNtCs1G9XuckPzNo_11deacon_core7composeNtB4_14ComposeCommand15parse_ps_outputs_0B6_
FN:146,_RNCNvMNtCs1G9XuckPzNo_11deacon_core7composeNtB4_14ComposeCommand2up0B6_
FN:119,_RNCNvMNtCs1G9XuckPzNo_11deacon_core7composeNtB4_14ComposeCommand7execute0B6_
FN:113,_RNCNvMNtCs1G9XuckPzNo_11deacon_core7composeNtB4_14ComposeCommand7executes1_0B6_
FN:132,_RNCNvMNtCs1G9XuckPzNo_11deacon_core7composeNtB4_14ComposeCommand7executes_0B6_
FN:258,_RNCNvMs_NtCs1G9XuckPzNo_11deacon_core7composeNtB6_14ComposeManager14create_project0B8_
FN:280,_RNCNvMs_NtCs1G9XuckPzNo_11deacon_core7composeNtB6_14ComposeManager14create_projects_0B8_
FN:309,_RNCNvMs_NtCs1G9XuckPzNo_11deacon_core7composeNtB6_14ComposeManager18is_project_running0B8_
FN:355,_RNCNvMs_NtCs1G9XuckPzNo_11deacon_core7composeNtB6_14ComposeManager24get_primary_container_id0B8_
FN:164,_RNvMNtCs1G9XuckPzNo_11deacon_core7composeNtB2_14ComposeCommand15parse_ps_output
FN:68,_RNvMNtCs1G9XuckPzNo_11deacon_core7composeNtB2_14ComposeCommand16with_docker_path
FN:158,_RNvMNtCs1G9XuckPzNo_11deacon_core7composeNtB2_14ComposeCommand2ps
FN:141,_RNvMNtCs1G9XuckPzNo_11deacon_core7composeNtB2_14ComposeCommand2up
FN:152,_RNvMNtCs1G9XuckPzNo_11deacon_core7composeNtB2_14ComposeCommand4down
FN:105,_RNvMNtCs1G9XuckPzNo_11deacon_core7composeNtB2_14ComposeCommand7execute
FN:294,_RNvMs_NtCs1G9XuckPzNo_11deacon_core7composeNtB4_14ComposeManager11get_command
FN:338,_RNvMs_NtCs1G9XuckPzNo_11deacon_core7composeNtB4_14ComposeManager12stop_project
FN:321,_RNvMs_NtCs1G9XuckPzNo_11deacon_core7composeNtB4_14ComposeManager13start_project
FN:233,_RNvMs_NtCs1G9XuckPzNo_11deacon_core7composeNtB4_14ComposeManager14create_project
FN:227,_RNvMs_NtCs1G9XuckPzNo_11deacon_core7composeNtB4_14ComposeManager16with_docker_path
FN:302,_RNvMs_NtCs1G9XuckPzNo_11deacon_core7composeNtB4_14ComposeManager18is_project_running
FN:351,_RNvMs_NtCs1G9XuckPzNo_11deacon_core7composeNtB4_14ComposeManager24get_primary_container_id
FN:220,_RNvMs_NtCs1G9XuckPzNo_11deacon_core7composeNtB4_14ComposeManager3new
FN:377,_RNvXs0_NtCs1G9XuckPzNo_11deacon_core7composeNtB5_14ComposeManagerNtNtCs66KPHxksi63_4core7default7Default7default
FN:80,_RNvMNtCs1G9XuckPzNo_11deacon_core7composeNtB2_14ComposeCommand13build_command
FN:74,_RNvMNtCs1G9XuckPzNo_11deacon_core7composeNtB2_14ComposeCommand17with_project_name
FN:58,_RNvMNtCs1G9XuckPzNo_11deacon_core7composeNtB2_14ComposeCommand3new
FN:384,_RNvMs1_NtCs1G9XuckPzNo_11deacon_core7composeNtB5_14ComposeProject16get_all_services
FN:412,_RNCNvNtNtCs1G9XuckPzNo_11deacon_core7compose5testss_26test_compose_command_build0B7_
FN:397,_RNvNtNtCs1G9XuckPzNo_11deacon_core7compose5testss_26test_compose_command_build
FN:438,_RNvNtNtCs1G9XuckPzNo_11deacon_core7compose5testss_27test_config_compose_methods
FN:424,_RNvNtNtCs1G9XuckPzNo_11deacon_core7compose5testss_37test_compose_project_get_all_services
FNDA:2,_RNvMNtCshLLWmVuQQJZ_11deacon_core7composeNtB2_14ComposeCommand13build_command
FNDA:0,_RNvMNtCshLLWmVuQQJZ_11deacon_core7composeNtB2_14ComposeCommand15parse_ps_output
FNDA:2,_RNvMNtCshLLWmVuQQJZ_11deacon_core7composeNtB2_14ComposeCommand16with_docker_path
FNDA:2,_RNvMNtCshLLWmVuQQJZ_11deacon_core7composeNtB2_14ComposeCommand17with_project_name
FNDA:1,_RNvMNtCshLLWmVuQQJZ_11deacon_core7composeNtB2_14ComposeCommand2ps
FNDA:0,_RNvMNtCshLLWmVuQQJZ_11deacon_core7composeNtB2_14ComposeCommand2up
FNDA:2,_RNvMNtCshLLWmVuQQJZ_11deacon_core7composeNtB2_14ComposeCommand3new
FNDA:0,_RNvMNtCshLLWmVuQQJZ_11deacon_core7composeNtB2_14ComposeCommand4down
FNDA:1,_RNvMNtCshLLWmVuQQJZ_11deacon_core7composeNtB2_14ComposeCommand7execute
FNDA:3,_RNvMs1_NtCshLLWmVuQQJZ_11deacon_core7composeNtB5_14ComposeProject16get_all_services
FNDA:2,_RNvMs_NtCshLLWmVuQQJZ_11deacon_core7composeNtB4_14ComposeManager11get_command
FNDA:0,_RNvMs_NtCshLLWmVuQQJZ_11deacon_core7composeNtB4_14ComposeManager12stop_project
FNDA:0,_RNvMs_NtCshLLWmVuQQJZ_11deacon_core7composeNtB4_14ComposeManager13start_project
FNDA:8,_RNvMs_NtCshLLWmVuQQJZ_11deacon_core7composeNtB4_14ComposeManager14create_project
FNDA:0,_RNvMs_NtCshLLWmVuQQJZ_11deacon_core7composeNtB4_14ComposeManager16with_docker_path
FNDA:1,_RNvMs_NtCshLLWmVuQQJZ_11deacon_core7composeNtB4_14ComposeManager18is_project_running
FNDA:0,_RNvMs_NtCshLLWmVuQQJZ_11deacon_core7composeNtB4_14ComposeManager24get_primary_container_id
FNDA:8,_RNvMs_NtCshLLWmVuQQJZ_11deacon_core7composeNtB4_14ComposeManager3new
FNDA:0,_RNvXs0_NtCshLLWmVuQQJZ_11deacon_core7composeNtB5_14ComposeManagerNtNtCs66KPHxksi63_4core7default7Default7default
FNDA:0,_RNCNvMNtCshLLWmVuQQJZ_11deacon_core7composeNtB4_14ComposeCommand15parse_ps_output0B6_
FNDA:0,_RNCNvMNtCshLLWmVuQQJZ_11deacon_core7composeNtB4_14ComposeCommand15parse_ps_outputs0_0B6_
FNDA:0,_RNCNvMNtCshLLWmVuQQJZ_11deacon_core7composeNtB4_14ComposeCommand15parse_ps_outputs1_0B6_
FNDA:0,_RNCNvMNtCshLLWmVuQQJZ_11deacon_core7composeNtB4_14ComposeCommand15parse_ps_outputs2_0B6_
FNDA:0,_RNCNvMNtCshLLWmVuQQJZ_11deacon_core7composeNtB4_14ComposeCommand15parse_ps_outputs3_0B6_
FNDA:0,_RNCNvMNtCshLLWmVuQQJZ_11deacon_core7composeNtB4_14ComposeCommand15parse_ps_outputs4_0B6_
FNDA:0,_RNCNvMNtCshLLWmVuQQJZ_11deacon_core7composeNtB4_14ComposeCommand15parse_ps_outputs5_0B6_
FNDA:0,_RNCNvMNtCshLLWmVuQQJZ_11deacon_core7composeNtB4_14ComposeCommand15parse_ps_outputs_0B6_
FNDA:0,_RNCNvMNtCshLLWmVuQQJZ_11deacon_core7composeNtB4_14ComposeCommand2up0B6_
FNDA:0,_RNCNvMNtCshLLWmVuQQJZ_11deacon_core7composeNtB4_14ComposeCommand7execute0B6_
FNDA:0,_RNCNvMNtCshLLWmVuQQJZ_11deacon_core7composeNtB4_14ComposeCommand7executes1_0B6_
FNDA:0,_RNCNvMNtCshLLWmVuQQJZ_11deacon_core7composeNtB4_14ComposeCommand7executes_0B6_
FNDA:1,_RNCNvMs_NtCshLLWmVuQQJZ_11deacon_core7composeNtB6_14ComposeManager14create_project0B8_
FNDA:6,_RNCNvMs_NtCshLLWmVuQQJZ_11deacon_core7composeNtB6_14ComposeManager14create_projects_0B8_
FNDA:0,_RNCNvMs_NtCshLLWmVuQQJZ_11deacon_core7composeNtB6_14ComposeManager18is_project_running0B8_
FNDA:0,_RNCNvMs_NtCshLLWmVuQQJZ_11deacon_core7composeNtB6_14ComposeManager24get_primary_container_id0B8_
FNDA:0,_RNCNvMNtCs1G9XuckPzNo_11deacon_core7composeNtB4_14ComposeCommand15parse_ps_output0B6_
FNDA:0,_RNCNvMNtCs1G9XuckPzNo_11deacon_core7composeNtB4_14ComposeCommand15parse_ps_outputs0_0B6_
FNDA:0,_RNCNvMNtCs1G9XuckPzNo_11deacon_core7composeNtB4_14ComposeCommand15parse_ps_outputs1_0B6_
FNDA:0,_RNCNvMNtCs1G9XuckPzNo_11deacon_core7composeNtB4_14ComposeCommand15parse_ps_outputs2_0B6_
FNDA:0,_RNCNvMNtCs1G9XuckPzNo_11deacon_core7composeNtB4_14ComposeCommand15parse_ps_outputs3_0B6_
FNDA:0,_RNCNvMNtCs1G9XuckPzNo_11deacon_core7composeNtB4_14ComposeCommand15parse_ps_outputs4_0B6_
FNDA:0,_RNCNvMNtCs1G9XuckPzNo_11deacon_core7composeNtB4_14ComposeCommand15parse_ps_outputs5_0B6_
FNDA:0,_RNCNvMNtCs1G9XuckPzNo_11deacon_core7composeNtB4_14ComposeCommand15parse_ps_outputs_0B6_
FNDA:0,_RNCNvMNtCs1G9XuckPzNo_11deacon_core7composeNtB4_14ComposeCommand2up0B6_
FNDA:0,_RNCNvMNtCs1G9XuckPzNo_11deacon_core7composeNtB4_14ComposeCommand7execute0B6_
FNDA:0,_RNCNvMNtCs1G9XuckPzNo_11deacon_core7composeNtB4_14ComposeCommand7executes1_0B6_
FNDA:0,_RNCNvMNtCs1G9XuckPzNo_11deacon_core7composeNtB4_14ComposeCommand7executes_0B6_
FNDA:0,_RNCNvMs_NtCs1G9XuckPzNo_11deacon_core7composeNtB6_14ComposeManager14create_project0B8_
FNDA:0,_RNCNvMs_NtCs1G9XuckPzNo_11deacon_core7composeNtB6_14ComposeManager14create_projects_0B8_
FNDA:0,_RNCNvMs_NtCs1G9XuckPzNo_11deacon_core7composeNtB6_14ComposeManager18is_project_running0B8_
FNDA:0,_RNCNvMs_NtCs1G9XuckPzNo_11deacon_core7composeNtB6_14ComposeManager24get_primary_container_id0B8_
FNDA:0,_RNvMNtCs1G9XuckPzNo_11deacon_core7composeNtB2_14ComposeCommand15parse_ps_output
FNDA:0,_RNvMNtCs1G9XuckPzNo_11deacon_core7composeNtB2_14ComposeCommand16with_docker_path
FNDA:0,_RNvMNtCs1G9XuckPzNo_11deacon_core7composeNtB2_14ComposeCommand2ps
FNDA:0,_RNvMNtCs1G9XuckPzNo_11deacon_core7composeNtB2_14ComposeCommand2up
FNDA:0,_RNvMNtCs1G9XuckPzNo_11deacon_core7composeNtB2_14ComposeCommand4down
FNDA:0,_RNvMNtCs1G9XuckPzNo_11deacon_core7composeNtB2_14ComposeCommand7execute
FNDA:0,_RNvMs_NtCs1G9XuckPzNo_11deacon_core7composeNtB4_14ComposeManager11get_command
FNDA:0,_RNvMs_NtCs1G9XuckPzNo_11deacon_core7composeNtB4_14ComposeManager12stop_project
FNDA:0,_RNvMs_NtCs1G9XuckPzNo_11deacon_core7composeNtB4_14ComposeManager13start_project
FNDA:0,_RNvMs_NtCs1G9XuckPzNo_11deacon_core7composeNtB4_14ComposeManager14create_project
FNDA:0,_RNvMs_NtCs1G9XuckPzNo_11deacon_core7composeNtB4_14ComposeManager16with_docker_path
FNDA:0,_RNvMs_NtCs1G9XuckPzNo_11deacon_core7composeNtB4_14ComposeManager18is_project_running
FNDA:0,_RNvMs_NtCs1G9XuckPzNo_11deacon_core7composeNtB4_14ComposeManager24get_primary_container_id
FNDA:0,_RNvMs_NtCs1G9XuckPzNo_11deacon_core7composeNtB4_14ComposeManager3new
FNDA:0,_RNvXs0_NtCs1G9XuckPzNo_11deacon_core7composeNtB5_14ComposeManagerNtNtCs66KPHxksi63_4core7default7Default7default
FNDA:1,_RNvMNtCs1G9XuckPzNo_11deacon_core7composeNtB2_14ComposeCommand13build_command
FNDA:1,_RNvMNtCs1G9XuckPzNo_11deacon_core7composeNtB2_14ComposeCommand17with_project_name
FNDA:1,_RNvMNtCs1G9XuckPzNo_11deacon_core7composeNtB2_14ComposeCommand3new
FNDA:1,_RNvMs1_NtCs1G9XuckPzNo_11deacon_core7composeNtB5_14ComposeProject16get_all_services
FNDA:9,_RNCNvNtNtCs1G9XuckPzNo_11deacon_core7compose5testss_26test_compose_command_build0B7_
FNDA:1,_RNvNtNtCs1G9XuckPzNo_11deacon_core7compose5testss_26test_compose_command_build
FNDA:1,_RNvNtNtCs1G9XuckPzNo_11deacon_core7compose5testss_27test_config_compose_methods
FNDA:1,_RNvNtNtCs1G9XuckPzNo_11deacon_core7compose5testss_37test_compose_project_get_all_services
FNF:39
FNH:17
DA:58,3
DA:59,3
DA:60,3
DA:61,3
DA:62,3
DA:63,3
DA:64,3
DA:65,3
DA:68,2
DA:69,2
DA:70,2
DA:71,2
DA:74,3
DA:75,3
DA:76,3
DA:77,3
DA:80,3
DA:81,3
DA:82,3
DA:85,7
DA:86,4
DA:87,4
DA:90,3
DA:91,3
DA:92,3
DA:95,3
DA:98,3
DA:100,3
DA:101,3
DA:105,1
DA:106,1
DA:108,1
DA:109,0
DA:111,0
DA:112,0
DA:113,0
DA:114,0
DA:115,0
DA:116,0
DA:119,1
DA:120,0
DA:121,0
DA:123,1
DA:124,1
DA:125,1
DA:126,1
DA:127,1
DA:128,1
DA:129,1
DA:130,0
DA:132,0
DA:133,0
DA:134,0
DA:136,0
DA:137,1
DA:141,0
DA:142,0
DA:143,0
DA:144,0
DA:145,0
DA:146,0
DA:147,0
DA:148,0
DA:152,0
DA:153,0
DA:154,0
DA:158,1
DA:159,1
DA:160,0
DA:161,1
DA:164,0
DA:165,0
DA:166,0
DA:167,0
DA:169,0
DA:170,0
DA:171,0
DA:172,0
DA:173,0
DA:174,0
DA:175,0
DA:176,0
DA:178,0
DA:179,0
DA:180,0
DA:181,0
DA:182,0
DA:183,0
DA:184,0
DA:185,0
DA:186,0
DA:187,0
DA:188,0
DA:189,0
DA:190,0
DA:191,0
DA:192,0
DA:193,0
DA:194,0
DA:195,0
DA:196,0
DA:197,0
DA:198,0
DA:199,0
DA:200,0
DA:201,0
DA:202,0
DA:203,0
DA:205,0
DA:208,0
DA:209,0
DA:220,8
DA:221,8
DA:222,8
DA:223,8
DA:224,8
DA:227,0
DA:228,0
DA:229,0
DA:233,8
DA:234,8
DA:235,8
DA:236,8
DA:237,8
DA:239,8
DA:240,1
DA:241,1
DA:242,1
DA:243,1
DA:244,7
DA:246,7
DA:247,7
DA:248,0
DA:249,0
DA:250,0
DA:251,0
DA:252,7
DA:254,7
DA:255,7
DA:256,7
DA:257,7
DA:258,1
DA:259,1
DA:262,6
DA:263,14
DA:264,8
DA:265,0
DA:267,8
DA:270,8
DA:271,1
DA:272,7
DA:274,8
DA:278,6
DA:279,6
DA:280,6
DA:281,6
DA:282,6
DA:284,6
DA:285,6
DA:286,6
DA:287,6
DA:288,6
DA:289,6
DA:290,6
DA:291,8
DA:294,2
DA:295,2
DA:296,2
DA:297,2
DA:298,2
DA:302,1
DA:303,1
DA:304,1
DA:307,0
DA:308,0
DA:309,0
DA:311,0
DA:312,0
DA:316,0
DA:317,1
DA:321,0
DA:322,0
DA:323,0
DA:325,0
DA:326,0
DA:330,0
DA:332,0
DA:333,0
DA:334,0
DA:338,0
DA:339,0
DA:341,0
DA:343,0
DA:345,0
DA:346,0
DA:347,0
DA:351,0
DA:352,0
DA:353,0
DA:355,0
DA:357,0
DA:358,0
DA:359,0
DA:360,0
DA:363,0
DA:366,0
DA:367,0
DA:370,0
DA:373,0
DA:377,0
DA:378,0
DA:379,0
DA:384,4
DA:385,4
DA:386,4
DA:387,4
DA:388,4
DA:397,1
DA:398,1
DA:399,1
DA:400,1
DA:401,1
DA:402,1
DA:405,1
DA:406,1
DA:408,1
DA:410,1
DA:411,1
DA:412,9
DA:413,1
DA:415,1
DA:416,1
DA:417,1
DA:418,1
DA:419,1
DA:420,1
DA:421,1
DA:424,1
DA:425,1
DA:426,1
DA:427,1
DA:428,1
DA:429,1
DA:430,1
DA:431,1
DA:433,1
DA:434,1
DA:435,1
DA:438,1
DA:442,1
DA:443,1
DA:444,1
DA:445,1
DA:446,1
DA:448,1
DA:449,1
DA:450,1
DA:453,1
DA:454,1
DA:455,1
DA:457,1
DA:458,1
DA:459,1
DA:461,1
DA:464,1
DA:465,1
DA:466,1
BRF:0
BRH:0
LF:287
LH:157
end_of_record
SF:/home/runner/work/deacon/deacon/crates/core/src/config.rs
FN:120,_RINvNtCshLLWmVuQQJZ_11deacon_core6config19deserialize_extendsNtNtCs32YTT2bu1_10serde_json5value5ValueEB4_
FN:544,_RNCNvMs0_NtCshLLWmVuQQJZ_11deacon_core6configNtB7_18DevContainerConfig17get_compose_files0B9_
FN:545,_RNCNvMs0_NtCshLLWmVuQQJZ_11deacon_core6configNtB7_18DevContainerConfig17get_compose_filess_0B9_
FN:582,_RNCNvMs0_NtCshLLWmVuQQJZ_11deacon_core6configNtB7_18DevContainerConfig25has_stop_compose_shutdown0B9_
FN:438,_RNCNvMs0_NtCshLLWmVuQQJZ_11deacon_core6configNtB7_18DevContainerConfig27apply_variable_substitution0B9_
FN:452,_RNCNvMs0_NtCshLLWmVuQQJZ_11deacon_core6configNtB7_18DevContainerConfig27apply_variable_substitutions0_0B9_
FN:445,_RNCNvMs0_NtCshLLWmVuQQJZ_11deacon_core6configNtB7_18DevContainerConfig27apply_variable_substitutions_0B9_
FN:675,_RNCNvMs2_NtCshLLWmVuQQJZ_11deacon_core6configNtB7_12ConfigMerger17merge_two_configs0B9_
FN:679,_RNCNvMs2_NtCshLLWmVuQQJZ_11deacon_core6configNtB7_12ConfigMerger17merge_two_configss0_0B9_
FN:683,_RNCNvMs2_NtCshLLWmVuQQJZ_11deacon_core6configNtB7_12ConfigMerger17merge_two_configss1_0B9_
FN:684,_RNCNvMs2_NtCshLLWmVuQQJZ_11deacon_core6configNtB7_12ConfigMerger17merge_two_configss2_0B9_
FN:688,_RNCNvMs2_NtCshLLWmVuQQJZ_11deacon_core6configNtB7_12ConfigMerger17merge_two_configss3_0B9_
FN:692,_RNCNvMs2_NtCshLLWmVuQQJZ_11deacon_core6configNtB7_12ConfigMerger17merge_two_configss4_0B9_
FN:693,_RNCNvMs2_NtCshLLWmVuQQJZ_11deacon_core6configNtB7_12ConfigMerger17merge_two_configss5_0B9_
FN:697,_RNCNvMs2_NtCshLLWmVuQQJZ_11deacon_core6configNtB7_12ConfigMerger17merge_two_configss6_0B9_
FN:703,_RNCNvMs2_NtCshLLWmVuQQJZ_11deacon_core6configNtB7_12ConfigMerger17merge_two_configss7_0B9_
FN:704,_RNCNvMs2_NtCshLLWmVuQQJZ_11deacon_core6configNtB7_12ConfigMerger17merge_two_configss8_0B9_
FN:730,_RNCNvMs2_NtCshLLWmVuQQJZ_11deacon_core6configNtB7_12ConfigMerger17merge_two_configss9_0B9_
FN:678,_RNCNvMs2_NtCshLLWmVuQQJZ_11deacon_core6configNtB7_12ConfigMerger17merge_two_configss_0B9_
FN:734,_RNCNvMs2_NtCshLLWmVuQQJZ_11deacon_core6configNtB7_12ConfigMerger17merge_two_configssa_0B9_
FN:738,_RNCNvMs2_NtCshLLWmVuQQJZ_11deacon_core6configNtB7_12ConfigMerger17merge_two_configssb_0B9_
FN:742,_RNCNvMs2_NtCshLLWmVuQQJZ_11deacon_core6configNtB7_12ConfigMerger17merge_two_configssc_0B9_
FN:746,_RNCNvMs2_NtCshLLWmVuQQJZ_11deacon_core6configNtB7_12ConfigMerger17merge_two_configssd_0B9_
FN:750,_RNCNvMs2_NtCshLLWmVuQQJZ_11deacon_core6configNtB7_12ConfigMerger17merge_two_configsse_0B9_
FN:760,_RNCNvMs2_NtCshLLWmVuQQJZ_11deacon_core6configNtB7_12ConfigMerger17merge_two_configssf_0B9_
FN:764,_RNCNvMs2_NtCshLLWmVuQQJZ_11deacon_core6configNtB7_12ConfigMerger17merge_two_configssg_0B9_
FN:780,_RNCNvMs2_NtCshLLWmVuQQJZ_11deacon_core6configNtB7_12ConfigMerger17merge_two_configssh_0B9_
FN:982,_RNCNvMs3_NtCshLLWmVuQQJZ_11deacon_core6configNtB7_12ConfigLoader14load_from_path0B9_
FN:1001,_RNCNvMs3_NtCshLLWmVuQQJZ_11deacon_core6configNtB7_12ConfigLoader14load_from_paths0_0B9_
FN:988,_RNCNvMs3_NtCshLLWmVuQQJZ_11deacon_core6configNtB7_12ConfigLoader14load_from_paths_0B9_
FN:1083,_RNCNvMs3_NtCshLLWmVuQQJZ_11deacon_core6configNtB7_12ConfigLoader21resolve_extends_chain0B9_
FN:1098,_RNCNvMs3_NtCshLLWmVuQQJZ_11deacon_core6configNtB7_12ConfigLoader21resolve_extends_chains_0B9_
FN:53,_RNvMNtCshLLWmVuQQJZ_11deacon_core6configNtB2_8PortSpec12primary_port
FN:72,_RNvMNtCshLLWmVuQQJZ_11deacon_core6configNtB2_8PortSpec9as_string
FN:556,_RNvMs0_NtCshLLWmVuQQJZ_11deacon_core6configNtB5_18DevContainerConfig12uses_compose
FN:565,_RNvMs0_NtCshLLWmVuQQJZ_11deacon_core6configNtB5_18DevContainerConfig16get_all_services
FN:539,_RNvMs0_NtCshLLWmVuQQJZ_11deacon_core6configNtB5_18DevContainerConfig17get_compose_files
FN:579,_RNvMs0_NtCshLLWmVuQQJZ_11deacon_core6configNtB5_18DevContainerConfig25has_stop_compose_shutdown
FN:407,_RNvMs0_NtCshLLWmVuQQJZ_11deacon_core6configNtB5_18DevContainerConfig27apply_variable_substitution
FN:646,_RNvMs2_NtCshLLWmVuQQJZ_11deacon_core6configNtB5_12ConfigMerger13merge_configs
FN:809,_RNvMs2_NtCshLLWmVuQQJZ_11deacon_core6configNtB5_12ConfigMerger17merge_string_maps
FN:669,_RNvMs2_NtCshLLWmVuQQJZ_11deacon_core6configNtB5_12ConfigMerger17merge_two_configs
FN:785,_RNvMs2_NtCshLLWmVuQQJZ_11deacon_core6configNtB5_12ConfigMerger18merge_json_objects
FN:829,_RNvMs2_NtCshLLWmVuQQJZ_11deacon_core6configNtB5_12ConfigMerger20concat_string_arrays
FN:819,_RNvMs2_NtCshLLWmVuQQJZ_11deacon_core6configNtB5_12ConfigMerger26merge_optional_string_maps
FN:836,_RNvMs2_NtCshLLWmVuQQJZ_11deacon_core6configNtB5_12ConfigMerger26merge_port_attributes_maps
FN:971,_RNvMs3_NtCshLLWmVuQQJZ_11deacon_core6configNtB5_12ConfigLoader14load_from_path
FN:899,_RNvMs3_NtCshLLWmVuQQJZ_11deacon_core6configNtB5_12ConfigLoader15discover_config
FN:1273,_RNvMs3_NtCshLLWmVuQQJZ_11deacon_core6configNtB5_12ConfigLoader15validate_config
FN:1228,_RNvMs3_NtCshLLWmVuQQJZ_11deacon_core6configNtB5_12ConfigLoader16log_unknown_keys
FN:1044,_RNvMs3_NtCshLLWmVuQQJZ_11deacon_core6configNtB5_12ConfigLoader17load_with_extends
FN:1079,_RNvMs3_NtCshLLWmVuQQJZ_11deacon_core6configNtB5_12ConfigLoader21resolve_extends_chain
FN:1198,_RNvMs3_NtCshLLWmVuQQJZ_11deacon_core6configNtB5_12ConfigLoader22load_with_substitution
FN:1317,_RNvMs3_NtCshLLWmVuQQJZ_11deacon_core6configNtB5_12ConfigLoader24validate_port_attributes
FN:159,_RNvMs_NtCshLLWmVuQQJZ_11deacon_core6configNtB4_14ConfigLocation3new
FN:165,_RNvMs_NtCshLLWmVuQQJZ_11deacon_core6configNtB4_14ConfigLocation4path
FN:170,_RNvMs_NtCshLLWmVuQQJZ_11deacon_core6configNtB4_14ConfigLocation6exists
FN:32,_RNvNtCshLLWmVuQQJZ_11deacon_core6config20default_empty_object
FN:588,_RNvXs1_NtCshLLWmVuQQJZ_11deacon_core6configNtB5_18DevContainerConfigNtNtCs66KPHxksi63_4core7default7Default7default
FN:120,_RINvNtCs1G9XuckPzNo_11deacon_core6config19deserialize_extendsNtNtCs32YTT2bu1_10serde_json5value5ValueEB4_
FN:544,_RNCNvMs0_NtCs1G9XuckPzNo_11deacon_core6configNtB7_18DevContainerConfig17get_compose_files0B9_
FN:545,_RNCNvMs0_NtCs1G9XuckPzNo_11deacon_core6configNtB7_18DevContainerConfig17get_compose_filess_0B9_
FN:582,_RNCNvMs0_NtCs1G9XuckPzNo_11deacon_core6configNtB7_18DevContainerConfig25has_stop_compose_shutdown0B9_
FN:438,_RNCNvMs0_NtCs1G9XuckPzNo_11deacon_core6configNtB7_18DevContainerConfig27apply_variable_substitution0B9_
FN:452,_RNCNvMs0_NtCs1G9XuckPzNo_11deacon_core6configNtB7_18DevContainerConfig27apply_variable_substitutions0_0B9_
FN:445,_RNCNvMs0_NtCs1G9XuckPzNo_11deacon_core6configNtB7_18DevContainerConfig27apply_variable_substitutions_0B9_
FN:675,_RNCNvMs2_NtCs1G9XuckPzNo_11deacon_core6configNtB7_12ConfigMerger17merge_two_configs0B9_
FN:679,_RNCNvMs2_NtCs1G9XuckPzNo_11deacon_core6configNtB7_12ConfigMerger17merge_two_configss0_0B9_
FN:683,_RNCNvMs2_NtCs1G9XuckPzNo_11deacon_core6configNtB7_12ConfigMerger17merge_two_configss1_0B9_
FN:684,_RNCNvMs2_NtCs1G9XuckPzNo_11deacon_core6configNtB7_12ConfigMerger17merge_two_configss2_0B9_
FN:688,_RNCNvMs2_NtCs1G9XuckPzNo_11deacon_core6configNtB7_12ConfigMerger17merge_two_configss3_0B9_
FN:692,_RNCNvMs2_NtCs1G9XuckPzNo_11deacon_core6configNtB7_12ConfigMerger17merge_two_configss4_0B9_
FN:693,_RNCNvMs2_NtCs1G9XuckPzNo_11deacon_core6configNtB7_12ConfigMerger17merge_two_configss5_0B9_
FN:697,_RNCNvMs2_NtCs1G9XuckPzNo_11deacon_core6configNtB7_12ConfigMerger17merge_two_configss6_0B9_
FN:703,_RNCNvMs2_NtCs1G9XuckPzNo_11deacon_core6configNtB7_12ConfigMerger17merge_two_configss7_0B9_
FN:704,_RNCNvMs2_NtCs1G9XuckPzNo_11deacon_core6configNtB7_12ConfigMerger17merge_two_configss8_0B9_
FN:730,_RNCNvMs2_NtCs1G9XuckPzNo_11deacon_core6configNtB7_12ConfigMerger17merge_two_configss9_0B9_
FN:678,_RNCNvMs2_NtCs1G9XuckPzNo_11deacon_core6configNtB7_12ConfigMerger17merge_two_configss_0B9_
FN:734,_RNCNvMs2_NtCs1G9XuckPzNo_11deacon_core6configNtB7_12ConfigMerger17merge_two_configssa_0B9_
FN:738,_RNCNvMs2_NtCs1G9XuckPzNo_11deacon_core6configNtB7_12ConfigMerger17merge_two_configssb_0B9_
FN:742,_RNCNvMs2_NtCs1G9XuckPzNo_11deacon_core6configNtB7_12ConfigMerger17merge_two_configssc_0B9_
FN:746,_RNCNvMs2_NtCs1G9XuckPzNo_11deacon_core6configNtB7_12ConfigMerger17merge_two_configssd_0B9_
FN:750,_RNCNvMs2_NtCs1G9XuckPzNo_11deacon_core6configNtB7_12ConfigMerger17merge_two_configsse_0B9_
FN:760,_RNCNvMs2_NtCs1G9XuckPzNo_11deacon_core6configNtB7_12ConfigMerger17merge_two_configssf_0B9_
FN:764,_RNCNvMs2_NtCs1G9XuckPzNo_11deacon_core6configNtB7_12ConfigMerger17merge_two_configssg_0B9_
FN:780,_RNCNvMs2_NtCs1G9XuckPzNo_11deacon_core6configNtB7_12ConfigMerger17merge_two_configssh_0B9_
FN:982,_RNCNvMs3_NtCs1G9XuckPzNo_11deacon_core6configNtB7_12ConfigLoader14load_from_path0B9_
FN:1001,_RNCNvMs3_NtCs1G9XuckPzNo_11deacon_core6configNtB7_12ConfigLoader14load_from_paths0_0B9_
FN:988,_RNCNvMs3_NtCs1G9XuckPzNo_11deacon_core6configNtB7_12ConfigLoader14load_from_paths_0B9_
FN:1083,_RNCNvMs3_NtCs1G9XuckPzNo_11deacon_core6configNtB7_12ConfigLoader21resolve_extends_chain0B9_
FN:1098,_RNCNvMs3_NtCs1G9XuckPzNo_11deacon_core6configNtB7_12ConfigLoader21resolve_extends_chains_0B9_
FN:1044,_RNvMs3_NtCs1G9XuckPzNo_11deacon_core6configNtB5_12ConfigLoader17load_with_extends
FN:1079,_RNvMs3_NtCs1G9XuckPzNo_11deacon_core6configNtB5_12ConfigLoader21resolve_extends_chain
FN:1376,_RNvNtNtCs1G9XuckPzNo_11deacon_core6config5testss_19test_config_default
FN:1735,_RNvNtNtCs1G9XuckPzNo_11deacon_core6config5testss_21test_port_spec_number
FN:1442,_RNvNtNtCs1G9XuckPzNo_11deacon_core6config5testss_22test_load_invalid_json
FN:1430,_RNvNtNtCs1G9XuckPzNo_11deacon_core6config5testss_24test_load_file_not_found
FN:1552,_RNvNtNtCs1G9XuckPzNo_11deacon_core6config5testss_24test_unknown_keys_logged
FN:1510,_RNvNtNtCs1G9XuckPzNo_11deacon_core6config5testss_26test_extends_field_parsing
FN:1680,_RNvNtNtCs1G9XuckPzNo_11deacon_core6config5testss_27test_load_with_substitution
FN:1816,_RNvNtNtCs1G9XuckPzNo_11deacon_core6config5testss_28test_port_attributes_partial
FN:1742,_RNvNtNtCs1G9XuckPzNo_11deacon_core6config5testss_28test_port_spec_string_number
FN:1756,_RNvNtNtCs1G9XuckPzNo_11deacon_core6config5testss_29test_port_spec_string_invalid
FN:1749,_RNvNtNtCs1G9XuckPzNo_11deacon_core6config5testss_29test_port_spec_string_mapping
FN:1997,_RNvNtNtCs1G9XuckPzNo_11deacon_core6config5testss_30test_config_user_mapping_merge
FN:1617,_RNvNtNtCs1G9XuckPzNo_11deacon_core6config5testss_30test_discover_config_root_file
FN:1763,_RNvNtNtCs1G9XuckPzNo_11deacon_core6config5testss_30test_port_spec_deserialization
FN:1652,_RNvNtNtCs1G9XuckPzNo_11deacon_core6config5testss_35test_discover_config_no_file_exists
FN:1970,_RNvNtNtCs1G9XuckPzNo_11deacon_core6config5testss_36test_config_with_user_mapping_fields
FN:1391,_RNvNtNtCs1G9XuckPzNo_11deacon_core6config5testss_36test_load_valid_config_with_comments
FN:1778,_RNvNtNtCs1G9XuckPzNo_11deacon_core6config5testss_36test_on_auto_forward_deserialization
FN:1796,_RNvNtNtCs1G9XuckPzNo_11deacon_core6config5testss_36test_port_attributes_deserialization
FN:1832,_RNvNtNtCs1G9XuckPzNo_11deacon_core6config5testss_37test_config_with_ports_and_attributes
FN:1600,_RNvNtNtCs1G9XuckPzNo_11deacon_core6config5testss_37test_discover_config_devcontainer_dir
FN:1631,_RNvNtNtCs1G9XuckPzNo_11deacon_core6config5testss_37test_discover_config_preference_order
FN:1572,_RNvNtNtCs1G9XuckPzNo_11deacon_core6config5testss_37test_empty_arrays_and_objects_default
FN:1891,_RNvNtNtCs1G9XuckPzNo_11deacon_core6config5testss_37test_port_validation_valid_references
FN:1915,_RNvNtNtCs1G9XuckPzNo_11deacon_core6config5testss_38test_port_validation_with_string_ports
FN:1958,_RNvNtNtCs1G9XuckPzNo_11deacon_core6config5testss_39test_config_default_includes_new_fields
FN:1936,_RNvNtNtCs1G9XuckPzNo_11deacon_core6config5testss_39test_port_validation_missing_references
FN:1487,_RNvNtNtCs1G9XuckPzNo_11deacon_core6config5testss_39test_validation_invalid_shutdown_action
FN:1668,_RNvNtNtCs1G9XuckPzNo_11deacon_core6config5testss_41test_discover_config_workspace_not_exists
FN:1464,_RNvNtNtCs1G9XuckPzNo_11deacon_core6config5testss_41test_validation_both_image_and_dockerfile
FN:53,_RNvMNtCs1G9XuckPzNo_11deacon_core6configNtB2_8PortSpec12primary_port
FN:72,_RNvMNtCs1G9XuckPzNo_11deacon_core6configNtB2_8PortSpec9as_string
FN:556,_RNvMs0_NtCs1G9XuckPzNo_11deacon_core6configNtB5_18DevContainerConfig12uses_compose
FN:565,_RNvMs0_NtCs1G9XuckPzNo_11deacon_core6configNtB5_18DevContainerConfig16get_all_services
FN:539,_RNvMs0_NtCs1G9XuckPzNo_11deacon_core6configNtB5_18DevContainerConfig17get_compose_files
FN:579,_RNvMs0_NtCs1G9XuckPzNo_11deacon_core6configNtB5_18DevContainerConfig25has_stop_compose_shutdown
FN:407,_RNvMs0_NtCs1G9XuckPzNo_11deacon_core6configNtB5_18DevContainerConfig27apply_variable_substitution
FN:646,_RNvMs2_NtCs1G9XuckPzNo_11deacon_core6configNtB5_12ConfigMerger13merge_configs
FN:809,_RNvMs2_NtCs1G9XuckPzNo_11deacon_core6configNtB5_12ConfigMerger17merge_string_maps
FN:669,_RNvMs2_NtCs1G9XuckPzNo_11deacon_core6configNtB5_12ConfigMerger17merge_two_configs
FN:785,_RNvMs2_NtCs1G9XuckPzNo_11deacon_core6configNtB5_12ConfigMerger18merge_json_objects
FN:829,_RNvMs2_NtCs1G9XuckPzNo_11deacon_core6configNtB5_12ConfigMerger20concat_string_arrays
FN:819,_RNvMs2_NtCs1G9XuckPzNo_11deacon_core6configNtB5_12ConfigMerger26merge_optional_string_maps
FN:836,_RNvMs2_NtCs1G9XuckPzNo_11deacon_core6configNtB5_12ConfigMerger26merge_port_attributes_maps
FN:971,_RNvMs3_NtCs1G9XuckPzNo_11deacon_core6configNtB5_12ConfigLoader14load_from_path
FN:899,_RNvMs3_NtCs1G9XuckPzNo_11deacon_core6configNtB5_12ConfigLoader15discover_config
FN:1273,_RNvMs3_NtCs1G9XuckPzNo_11deacon_core6configNtB5_12ConfigLoader15validate_config
FN:1228,_RNvMs3_NtCs1G9XuckPzNo_11deacon_core6configNtB5_12ConfigLoader16log_unknown_keys
FN:1198,_RNvMs3_NtCs1G9XuckPzNo_11deacon_core6configNtB5_12ConfigLoader22load_with_substitution
FN:1317,_RNvMs3_NtCs1G9XuckPzNo_11deacon_core6configNtB5_12ConfigLoader24validate_port_attributes
FN:159,_RNvMs_NtCs1G9XuckPzNo_11deacon_core6configNtB4_14ConfigLocation3new
FN:165,_RNvMs_NtCs1G9XuckPzNo_11deacon_core6configNtB4_14ConfigLocation4path
FN:170,_RNvMs_NtCs1G9XuckPzNo_11deacon_core6configNtB4_14ConfigLocation6exists
FN:32,_RNvNtCs1G9XuckPzNo_11deacon_core6config20default_empty_object
FN:588,_RNvXs1_NtCs1G9XuckPzNo_11deacon_core6configNtB5_18DevContainerConfigNtNtCs66KPHxksi63_4core7default7Default7default
FNDA:10,_RINvNtCshLLWmVuQQJZ_11deacon_core6config19deserialize_extendsNtNtCs32YTT2bu1_10serde_json5value5ValueEB4_
FNDA:6,_RNCNvMs0_NtCshLLWmVuQQJZ_11deacon_core6configNtB7_18DevContainerConfig17get_compose_files0B9_
FNDA:6,_RNCNvMs0_NtCshLLWmVuQQJZ_11deacon_core6configNtB7_18DevContainerConfig17get_compose_filess_0B9_
FNDA:5,_RNCNvMs0_NtCshLLWmVuQQJZ_11deacon_core6configNtB7_18DevContainerConfig25has_stop_compose_shutdown0B9_
FNDA:11,_RNCNvMs0_NtCshLLWmVuQQJZ_11deacon_core6configNtB7_18DevContainerConfig27apply_variable_substitution0B9_
FNDA:19,_RNCNvMs0_NtCshLLWmVuQQJZ_11deacon_core6configNtB7_18DevContainerConfig27apply_variable_substitutions0_0B9_
FNDA:10,_RNCNvMs0_NtCshLLWmVuQQJZ_11deacon_core6configNtB7_18DevContainerConfig27apply_variable_substitutions_0B9_
FNDA:16,_RNCNvMs2_NtCshLLWmVuQQJZ_11deacon_core6configNtB7_12ConfigMerger17merge_two_configs0B9_
FNDA:13,_RNCNvMs2_NtCshLLWmVuQQJZ_11deacon_core6configNtB7_12ConfigMerger17merge_two_configss0_0B9_
FNDA:16,_RNCNvMs2_NtCshLLWmVuQQJZ_11deacon_core6configNtB7_12ConfigMerger17merge_two_configss1_0B9_
FNDA:16,_RNCNvMs2_NtCshLLWmVuQQJZ_11deacon_core6configNtB7_12ConfigMerger17merge_two_configss2_0B9_
FNDA:16,_RNCNvMs2_NtCshLLWmVuQQJZ_11deacon_core6configNtB7_12ConfigMerger17merge_two_configss3_0B9_
FNDA:16,_RNCNvMs2_NtCshLLWmVuQQJZ_11deacon_core6configNtB7_12ConfigMerger17merge_two_configss4_0B9_
FNDA:16,_RNCNvMs2_NtCshLLWmVuQQJZ_11deacon_core6configNtB7_12ConfigMerger17merge_two_configss5_0B9_
FNDA:16,_RNCNvMs2_NtCshLLWmVuQQJZ_11deacon_core6configNtB7_12ConfigMerger17merge_two_configss6_0B9_
FNDA:16,_RNCNvMs2_NtCshLLWmVuQQJZ_11deacon_core6configNtB7_12ConfigMerger17merge_two_configss7_0B9_
FNDA:16,_RNCNvMs2_NtCshLLWmVuQQJZ_11deacon_core6configNtB7_12ConfigMerger17merge_two_configss8_0B9_
FNDA:16,_RNCNvMs2_NtCshLLWmVuQQJZ_11deacon_core6configNtB7_12ConfigMerger17merge_two_configss9_0B9_
FNDA:8,_RNCNvMs2_NtCshLLWmVuQQJZ_11deacon_core6configNtB7_12ConfigMerger17merge_two_configss_0B9_
FNDA:15,_RNCNvMs2_NtCshLLWmVuQQJZ_11deacon_core6configNtB7_12ConfigMerger17merge_two_configssa_0B9_
FNDA:14,_RNCNvMs2_NtCshLLWmVuQQJZ_11deacon_core6configNtB7_12ConfigMerger17merge_two_configssb_0B9_
FNDA:15,_RNCNvMs2_NtCshLLWmVuQQJZ_11deacon_core6configNtB7_12ConfigMerger17merge_two_configssc_0B9_
FNDA:16,_RNCNvMs2_NtCshLLWmVuQQJZ_11deacon_core6configNtB7_12ConfigMerger17merge_two_configssd_0B9_
FNDA:16,_RNCNvMs2_NtCshLLWmVuQQJZ_11deacon_core6configNtB7_12ConfigMerger17merge_two_configsse_0B9_
FNDA:16,_RNCNvMs2_NtCshLLWmVuQQJZ_11deacon_core6configNtB7_12ConfigMerger17merge_two_configssf_0B9_
FNDA:16,_RNCNvMs2_NtCshLLWmVuQQJZ_11deacon_core6configNtB7_12ConfigMerger17merge_two_configssg_0B9_
FNDA:16,_RNCNvMs2_NtCshLLWmVuQQJZ_11deacon_core6configNtB7_12ConfigMerger17merge_two_configssh_0B9_
FNDA:0,_RNCNvMs3_NtCshLLWmVuQQJZ_11deacon_core6configNtB7_12ConfigLoader14load_from_path0B9_
FNDA:0,_RNCNvMs3_NtCshLLWmVuQQJZ_11deacon_core6configNtB7_12ConfigLoader14load_from_paths0_0B9_
FNDA:2,_RNCNvMs3_NtCshLLWmVuQQJZ_11deacon_core6configNtB7_12ConfigLoader14load_from_paths_0B9_
FNDA:0,_RNCNvMs3_NtCshLLWmVuQQJZ_11deacon_core6configNtB7_12ConfigLoader21resolve_extends_chain0B9_
FNDA:3,_RNCNvMs3_NtCshLLWmVuQQJZ_11deacon_core6configNtB7_12ConfigLoader21resolve_extends_chains_0B9_
FNDA:5,_RNvMNtCshLLWmVuQQJZ_11deacon_core6configNtB2_8PortSpec12primary_port
FNDA:0,_RNvMNtCshLLWmVuQQJZ_11deacon_core6configNtB2_8PortSpec9as_string
FNDA:19,_RNvMs0_NtCshLLWmVuQQJZ_11deacon_core6configNtB5_18DevContainerConfig12uses_compose
FNDA:1,_RNvMs0_NtCshLLWmVuQQJZ_11deacon_core6configNtB5_18DevContainerConfig16get_all_services
FNDA:10,_RNvMs0_NtCshLLWmVuQQJZ_11deacon_core6configNtB5_18DevContainerConfig17get_compose_files
FNDA:8,_RNvMs0_NtCshLLWmVuQQJZ_11deacon_core6configNtB5_18DevContainerConfig25has_stop_compose_shutdown
FNDA:16,_RNvMs0_NtCshLLWmVuQQJZ_11deacon_core6configNtB5_18DevContainerConfig27apply_variable_substitution
FNDA:9,_RNvMs2_NtCshLLWmVuQQJZ_11deacon_core6configNtB5_12ConfigMerger13merge_configs
FNDA:16,_RNvMs2_NtCshLLWmVuQQJZ_11deacon_core6configNtB5_12ConfigMerger17merge_string_maps
FNDA:16,_RNvMs2_NtCshLLWmVuQQJZ_11deacon_core6configNtB5_12ConfigMerger17merge_two_configs
FNDA:34,_RNvMs2_NtCshLLWmVuQQJZ_11deacon_core6configNtB5_12ConfigMerger18merge_json_objects
FNDA:16,_RNvMs2_NtCshLLWmVuQQJZ_11deacon_core6configNtB5_12ConfigMerger20concat_string_arrays
FNDA:16,_RNvMs2_NtCshLLWmVuQQJZ_11deacon_core6configNtB5_12ConfigMerger26merge_optional_string_maps
FNDA:16,_RNvMs2_NtCshLLWmVuQQJZ_11deacon_core6configNtB5_12ConfigMerger26merge_port_attributes_maps
FNDA:50,_RNvMs3_NtCshLLWmVuQQJZ_11deacon_core6configNtB5_12ConfigLoader14load_from_path
FNDA:30,_RNvMs3_NtCshLLWmVuQQJZ_11deacon_core6configNtB5_12ConfigLoader15discover_config
FNDA:48,_RNvMs3_NtCshLLWmVuQQJZ_11deacon_core6configNtB5_12ConfigLoader15validate_config
FNDA:48,_RNvMs3_NtCshLLWmVuQQJZ_11deacon_core6configNtB5_12ConfigLoader16log_unknown_keys
FNDA:7,_RNvMs3_NtCshLLWmVuQQJZ_11deacon_core6configNtB5_12ConfigLoader17load_with_extends
FNDA:17,_RNvMs3_NtCshLLWmVuQQJZ_11deacon_core6configNtB5_12ConfigLoader21resolve_extends_chain
FNDA:1,_RNvMs3_NtCshLLWmVuQQJZ_11deacon_core6configNtB5_12ConfigLoader22load_with_substitution
FNDA:48,_RNvMs3_NtCshLLWmVuQQJZ_11deacon_core6configNtB5_12ConfigLoader24validate_port_attributes
FNDA:30,_RNvMs_NtCshLLWmVuQQJZ_11deacon_core6configNtB4_14ConfigLocation3new
FNDA:32,_RNvMs_NtCshLLWmVuQQJZ_11deacon_core6configNtB4_14ConfigLocation4path
FNDA:30,_RNvMs_NtCshLLWmVuQQJZ_11deacon_core6configNtB4_14ConfigLocation6exists
FNDA:138,_RNvNtCshLLWmVuQQJZ_11deacon_core6config20default_empty_object
FNDA:29,_RNvXs1_NtCshLLWmVuQQJZ_11deacon_core6configNtB5_18DevContainerConfigNtNtCs66KPHxksi63_4core7default7Default7default
FNDA:2,_RINvNtCs1G9XuckPzNo_11deacon_core6config19deserialize_extendsNtNtCs32YTT2bu1_10serde_json5value5ValueEB4_
FNDA:2,_RNCNvMs0_NtCs1G9XuckPzNo_11deacon_core6configNtB7_18DevContainerConfig17get_compose_files0B9_
FNDA:2,_RNCNvMs0_NtCs1G9XuckPzNo_11deacon_core6configNtB7_18DevContainerConfig17get_compose_filess_0B9_
FNDA:1,_RNCNvMs0_NtCs1G9XuckPzNo_11deacon_core6configNtB7_18DevContainerConfig25has_stop_compose_shutdown0B9_
FNDA:1,_RNCNvMs0_NtCs1G9XuckPzNo_11deacon_core6configNtB7_18DevContainerConfig27apply_variable_substitution0B9_
FNDA:2,_RNCNvMs0_NtCs1G9XuckPzNo_11deacon_core6configNtB7_18DevContainerConfig27apply_variable_substitutions0_0B9_
FNDA:2,_RNCNvMs0_NtCs1G9XuckPzNo_11deacon_core6configNtB7_18DevContainerConfig27apply_variable_substitutions_0B9_
FNDA:2,_RNCNvMs2_NtCs1G9XuckPzNo_11deacon_core6configNtB7_12ConfigMerger17merge_two_configs0B9_
FNDA:1,_RNCNvMs2_NtCs1G9XuckPzNo_11deacon_core6configNtB7_12ConfigMerger17merge_two_configss0_0B9_
FNDA:2,_RNCNvMs2_NtCs1G9XuckPzNo_11deacon_core6configNtB7_12ConfigMerger17merge_two_configss1_0B9_
FNDA:2,_RNCNvMs2_NtCs1G9XuckPzNo_11deacon_core6configNtB7_12ConfigMerger17merge_two_configss2_0B9_
FNDA:2,_RNCNvMs2_NtCs1G9XuckPzNo_11deacon_core6configNtB7_12ConfigMerger17merge_two_configss3_0B9_
FNDA:2,_RNCNvMs2_NtCs1G9XuckPzNo_11deacon_core6configNtB7_12ConfigMerger17merge_two_configss4_0B9_
FNDA:2,_RNCNvMs2_NtCs1G9XuckPzNo_11deacon_core6configNtB7_12ConfigMerger17merge_two_configss5_0B9_
FNDA:2,_RNCNvMs2_NtCs1G9XuckPzNo_11deacon_core6configNtB7_12ConfigMerger17merge_two_configss6_0B9_
FNDA:2,_RNCNvMs2_NtCs1G9XuckPzNo_11deacon_core6configNtB7_12ConfigMerger17merge_two_configss7_0B9_
FNDA:2,_RNCNvMs2_NtCs1G9XuckPzNo_11deacon_core6configNtB7_12ConfigMerger17merge_two_configss8_0B9_
FNDA:2,_RNCNvMs2_NtCs1G9XuckPzNo_11deacon_core6configNtB7_12ConfigMerger17merge_two_configss9_0B9_
FNDA:0,_RNCNvMs2_NtCs1G9XuckPzNo_11deacon_core6configNtB7_12ConfigMerger17merge_two_configss_0B9_
FNDA:2,_RNCNvMs2_NtCs1G9XuckPzNo_11deacon_core6configNtB7_12ConfigMerger17merge_two_configssa_0B9_
FNDA:2,_RNCNvMs2_NtCs1G9XuckPzNo_11deacon_core6configNtB7_12ConfigMerger17merge_two_configssb_0B9_
FNDA:2,_RNCNvMs2_NtCs1G9XuckPzNo_11deacon_core6configNtB7_12ConfigMerger17merge_two_configssc_0B9_
FNDA:2,_RNCNvMs2_NtCs1G9XuckPzNo_11deacon_core6configNtB7_12ConfigMerger17merge_two_configssd_0B9_
FNDA:2,_RNCNvMs2_NtCs1G9XuckPzNo_11deacon_core6configNtB7_12ConfigMerger17merge_two_configsse_0B9_
FNDA:1,_RNCNvMs2_NtCs1G9XuckPzNo_11deacon_core6configNtB7_12ConfigMerger17merge_two_configssf_0B9_
FNDA:0,_RNCNvMs2_NtCs1G9XuckPzNo_11deacon_core6configNtB7_12ConfigMerger17merge_two_configssg_0B9_
FNDA:2,_RNCNvMs2_NtCs1G9XuckPzNo_11deacon_core6configNtB7_12ConfigMerger17merge_two_configssh_0B9_
FNDA:0,_RNCNvMs3_NtCs1G9XuckPzNo_11deacon_core6configNtB7_12ConfigLoader14load_from_path0B9_
FNDA:0,_RNCNvMs3_NtCs1G9XuckPzNo_11deacon_core6configNtB7_12ConfigLoader14load_from_paths0_0B9_
FNDA:1,_RNCNvMs3_NtCs1G9XuckPzNo_11deacon_core6configNtB7_12ConfigLoader14load_from_paths_0B9_
FNDA:0,_RNCNvMs3_NtCs1G9XuckPzNo_11deacon_core6configNtB7_12ConfigLoader21resolve_extends_chain0B9_
FNDA:0,_RNCNvMs3_NtCs1G9XuckPzNo_11deacon_core6configNtB7_12ConfigLoader21resolve_extends_chains_0B9_
FNDA:0,_RNvMs3_NtCs1G9XuckPzNo_11deacon_core6configNtB5_12ConfigLoader17load_with_extends
FNDA:0,_RNvMs3_NtCs1G9XuckPzNo_11deacon_core6configNtB5_12ConfigLoader21resolve_extends_chain
FNDA:1,_RNvNtNtCs1G9XuckPzNo_11deacon_core6config5testss_19test_config_default
FNDA:1,_RNvNtNtCs1G9XuckPzNo_11deacon_core6config5testss_21test_port_spec_number
FNDA:1,_RNvNtNtCs1G9XuckPzNo_11deacon_core6config5testss_22test_load_invalid_json
FNDA:1,_RNvNtNtCs1G9XuckPzNo_11deacon_core6config5testss_24test_load_file_not_found
FNDA:1,_RNvNtNtCs1G9XuckPzNo_11deacon_core6config5testss_24test_unknown_keys_logged
FNDA:1,_RNvNtNtCs1G9XuckPzNo_11deacon_core6config5testss_26test_extends_field_parsing
FNDA:1,_RNvNtNtCs1G9XuckPzNo_11deacon_core6config5testss_27test_load_with_substitution
FNDA:1,_RNvNtNtCs1G9XuckPzNo_11deacon_core6config5testss_28test_port_attributes_partial
FNDA:1,_RNvNtNtCs1G9XuckPzNo_11deacon_core6config5testss_28test_port_spec_string_number
FNDA:1,_RNvNtNtCs1G9XuckPzNo_11deacon_core6config5testss_29test_port_spec_string_invalid
FNDA:1,_RNvNtNtCs1G9XuckPzNo_11deacon_core6config5testss_29test_port_spec_string_mapping
FNDA:1,_RNvNtNtCs1G9XuckPzNo_11deacon_core6config5testss_30test_config_user_mapping_merge
FNDA:1,_RNvNtNtCs1G9XuckPzNo_11deacon_core6config5testss_30test_discover_config_root_file
FNDA:1,_RNvNtNtCs1G9XuckPzNo_11deacon_core6config5testss_30test_port_spec_deserialization
FNDA:1,_RNvNtNtCs1G9XuckPzNo_11deacon_core6config5testss_35test_discover_config_no_file_exists
FNDA:1,_RNvNtNtCs1G9XuckPzNo_11deacon_core6config5testss_36test_config_with_user_mapping_fields
FNDA:1,_RNvNtNtCs1G9XuckPzNo_11deacon_core6config5testss_36test_load_valid_config_with_comments
FNDA:1,_RNvNtNtCs1G9XuckPzNo_11deacon_core6config5testss_36test_on_auto_forward_deserialization
FNDA:1,_RNvNtNtCs1G9XuckPzNo_11deacon_core6config5testss_36test_port_attributes_deserialization
FNDA:1,_RNvNtNtCs1G9XuckPzNo_11deacon_core6config5testss_37test_config_with_ports_and_attributes
FNDA:1,_RNvNtNtCs1G9XuckPzNo_11deacon_core6config5testss_37test_discover_config_devcontainer_dir
FNDA:1,_RNvNtNtCs1G9XuckPzNo_11deacon_core6config5testss_37test_discover_config_preference_order
FNDA:1,_RNvNtNtCs1G9XuckPzNo_11deacon_core6config5testss_37test_empty_arrays_and_objects_default
FNDA:1,_RNvNtNtCs1G9XuckPzNo_11deacon_core6config5testss_37test_port_validation_valid_references
FNDA:1,_RNvNtNtCs1G9XuckPzNo_11deacon_core6config5testss_38test_port_validation_with_string_ports
FNDA:1,_RNvNtNtCs1G9XuckPzNo_11deacon_core6config5testss_39test_config_default_includes_new_fields
FNDA:1,_RNvNtNtCs1G9XuckPzNo_11deacon_core6config5testss_39test_port_validation_missing_references
FNDA:1,_RNvNtNtCs1G9XuckPzNo_11deacon_core6config5testss_39test_validation_invalid_shutdown_action
FNDA:1,_RNvNtNtCs1G9XuckPzNo_11deacon_core6config5testss_41test_discover_config_workspace_not_exists
FNDA:1,_RNvNtNtCs1G9XuckPzNo_11deacon_core6config5testss_41test_validation_both_image_and_dockerfile
FNDA:17,_RNvMNtCs1G9XuckPzNo_11deacon_core6configNtB2_8PortSpec12primary_port
FNDA:14,_RNvMNtCs1G9XuckPzNo_11deacon_core6configNtB2_8PortSpec9as_string
FNDA:1,_RNvMs0_NtCs1G9XuckPzNo_11deacon_core6configNtB5_18DevContainerConfig12uses_compose
FNDA:2,_RNvMs0_NtCs1G9XuckPzNo_11deacon_core6configNtB5_18DevContainerConfig16get_all_services
FNDA:2,_RNvMs0_NtCs1G9XuckPzNo_11deacon_core6configNtB5_18DevContainerConfig17get_compose_files
FNDA:1,_RNvMs0_NtCs1G9XuckPzNo_11deacon_core6configNtB5_18DevContainerConfig25has_stop_compose_shutdown
FNDA:1,_RNvMs0_NtCs1G9XuckPzNo_11deacon_core6configNtB5_18DevContainerConfig27apply_variable_substitution
FNDA:1,_RNvMs2_NtCs1G9XuckPzNo_11deacon_core6configNtB5_12ConfigMerger13merge_configs
FNDA:2,_RNvMs2_NtCs1G9XuckPzNo_11deacon_core6configNtB5_12ConfigMerger17merge_string_maps
FNDA:2,_RNvMs2_NtCs1G9XuckPzNo_11deacon_core6configNtB5_12ConfigMerger17merge_two_configs
FNDA:4,_RNvMs2_NtCs1G9XuckPzNo_11deacon_core6configNtB5_12ConfigMerger18merge_json_objects
FNDA:2,_RNvMs2_NtCs1G9XuckPzNo_11deacon_core6configNtB5_12ConfigMerger20concat_string_arrays
FNDA:2,_RNvMs2_NtCs1G9XuckPzNo_11deacon_core6configNtB5_12ConfigMerger26merge_optional_string_maps
FNDA:2,_RNvMs2_NtCs1G9XuckPzNo_11deacon_core6configNtB5_12ConfigMerger26merge_port_attributes_maps
FNDA:15,_RNvMs3_NtCs1G9XuckPzNo_11deacon_core6configNtB5_12ConfigLoader14load_from_path
FNDA:5,_RNvMs3_NtCs1G9XuckPzNo_11deacon_core6configNtB5_12ConfigLoader15discover_config
FNDA:13,_RNvMs3_NtCs1G9XuckPzNo_11deacon_core6configNtB5_12ConfigLoader15validate_config
FNDA:13,_RNvMs3_NtCs1G9XuckPzNo_11deacon_core6configNtB5_12ConfigLoader16log_unknown_keys
FNDA:1,_RNvMs3_NtCs1G9XuckPzNo_11deacon_core6configNtB5_12ConfigLoader22load_with_substitution
FNDA:11,_RNvMs3_NtCs1G9XuckPzNo_11deacon_core6configNtB5_12ConfigLoader24validate_port_attributes
FNDA:4,_RNvMs_NtCs1G9XuckPzNo_11deacon_core6configNtB4_14ConfigLocation3new
FNDA:4,_RNvMs_NtCs1G9XuckPzNo_11deacon_core6configNtB4_14ConfigLocation4path
FNDA:4,_RNvMs_NtCs1G9XuckPzNo_11deacon_core6configNtB4_14ConfigLocation6exists
FNDA:52,_RNvNtCs1G9XuckPzNo_11deacon_core6config20default_empty_object
FNDA:14,_RNvXs1_NtCs1G9XuckPzNo_11deacon_core6configNtB5_18DevContainerConfigNtNtCs66KPHxksi63_4core7default7Default7default
FNF:89
FNH:86
DA:32,190
DA:33,190
DA:34,190
DA:53,22
DA:54,22
DA:55,14
DA:56,8
DA:58,8
DA:59,2
DA:60,6
DA:62,6
DA:63,6
DA:65,0
DA:69,22
DA:72,14
DA:73,14
DA:74,8
DA:75,6
DA:77,14
DA:120,12
DA:121,12
DA:122,12
DA:123,12
DA:124,12
DA:128,12
DA:129,12
DA:130,0
DA:131,10
DA:132,2
DA:133,2
DA:134,6
DA:135,4
DA:136,4
DA:137,0
DA:140,2
DA:142,0
DA:143,0
DA:144,0
DA:146,12
DA:159,34
DA:160,34
DA:161,34
DA:162,34
DA:165,36
DA:166,36
DA:167,36
DA:170,34
DA:171,34
DA:172,34
DA:407,17
DA:408,17
DA:409,17
DA:410,17
DA:411,17
DA:412,17
DA:414,17
DA:417,17
DA:418,10
DA:419,10
DA:420,10
DA:421,10
DA:422,10
DA:423,10
DA:426,17
DA:427,1
DA:428,1
DA:429,1
DA:430,1
DA:431,1
DA:432,16
DA:435,17
DA:436,17
DA:437,17
DA:438,17
DA:439,17
DA:442,17
DA:443,17
DA:444,17
DA:445,17
DA:446,17
DA:449,17
DA:450,17
DA:451,17
DA:452,21
DA:453,21
DA:454,21
DA:455,21
DA:456,21
DA:457,21
DA:458,17
DA:461,17
DA:462,6
DA:463,6
DA:464,6
DA:465,6
DA:466,6
DA:467,11
DA:469,17
DA:470,9
DA:471,9
DA:472,9
DA:473,9
DA:474,9
DA:475,9
DA:477,17
DA:478,3
DA:479,3
DA:480,3
DA:481,3
DA:482,3
DA:483,14
DA:485,17
DA:486,3
DA:487,3
DA:488,3
DA:489,3
DA:490,3
DA:491,14
DA:493,17
DA:494,0
DA:495,0
DA:496,0
DA:497,0
DA:498,0
DA:499,17
DA:501,17
DA:502,0
DA:503,0
DA:504,0
DA:505,0
DA:506,0
DA:507,17
DA:509,17
DA:510,1
DA:511,1
DA:512,1
DA:515,17
DA:516,17
DA:539,12
DA:540,11
DA:541,7
DA:542,4
DA:543,4
DA:544,8
DA:545,8
DA:546,4
DA:547,1
DA:549,12
DA:556,20
DA:557,20
DA:558,20
DA:565,3
DA:566,3
DA:567,3
DA:568,3
DA:569,3
DA:570,3
DA:571,3
DA:572,3
DA:579,9
DA:580,9
DA:581,9
DA:582,9
DA:583,9
DA:584,9
DA:588,43
DA:589,43
DA:590,43
DA:591,43
DA:592,43
DA:593,43
DA:594,43
DA:595,43
DA:596,43
DA:597,43
DA:598,43
DA:599,43
DA:600,43
DA:601,43
DA:602,43
DA:603,43
DA:604,43
DA:605,43
DA:606,43
DA:607,43
DA:608,43
DA:609,43
DA:610,43
DA:611,43
DA:612,43
DA:613,43
DA:614,43
DA:615,43
DA:616,43
DA:617,43
DA:618,43
DA:619,43
DA:620,43
DA:621,43
DA:622,43
DA:646,10
DA:647,10
DA:648,1
DA:649,9
DA:651,9
DA:652,1
DA:653,8
DA:655,8
DA:657,8
DA:659,18
DA:660,18
DA:661,18
DA:664,8
DA:665,8
DA:666,10
DA:669,18
DA:670,18
DA:671,18
DA:672,18
DA:675,18
DA:678,18
DA:679,18
DA:680,18
DA:681,18
DA:682,18
DA:683,18
DA:684,18
DA:685,18
DA:686,18
DA:687,18
DA:688,18
DA:689,18
DA:690,18
DA:691,18
DA:692,18
DA:693,18
DA:694,18
DA:695,18
DA:696,18
DA:697,18
DA:698,18
DA:700,18
DA:701,18
DA:702,18
DA:703,18
DA:704,18
DA:705,18
DA:706,18
DA:708,0
DA:711,18
DA:714,18
DA:717,18
DA:718,18
DA:720,0
DA:722,18
DA:723,18
DA:725,0
DA:727,18
DA:728,18
DA:729,18
DA:730,18
DA:731,18
DA:732,18
DA:733,18
DA:734,18
DA:735,18
DA:736,18
DA:737,18
DA:738,18
DA:739,18
DA:740,18
DA:741,18
DA:742,18
DA:743,18
DA:744,18
DA:745,18
DA:746,18
DA:747,18
DA:748,18
DA:749,18
DA:750,18
DA:753,18
DA:754,18
DA:757,18
DA:758,18
DA:759,18
DA:760,18
DA:761,18
DA:762,18
DA:763,18
DA:764,18
DA:765,18
DA:766,18
DA:767,18
DA:770,18
DA:773,18
DA:774,18
DA:775,18
DA:777,18
DA:778,18
DA:779,18
DA:780,18
DA:782,18
DA:785,38
DA:786,38
DA:787,38
DA:788,38
DA:789,38
DA:790,37
DA:791,37
DA:792,43
DA:793,6
DA:794,2
DA:795,2
DA:796,2
DA:797,4
DA:798,4
DA:799,4
DA:802,37
DA:804,1
DA:806,38
DA:809,18
DA:810,18
DA:811,18
DA:812,18
DA:813,18
DA:814,18
DA:815,18
DA:816,18
DA:819,18
DA:820,18
DA:821,18
DA:822,18
DA:823,18
DA:824,18
DA:825,18
DA:826,18
DA:829,18
DA:830,18
DA:831,18
DA:832,18
DA:833,18
DA:836,18
DA:837,18
DA:838,18
DA:839,18
DA:840,18
DA:841,18
DA:842,18
DA:843,18
DA:899,35
DA:900,35
DA:901,2
DA:902,2
DA:906,35
DA:907,1
DA:908,1
DA:909,1
DA:910,34
DA:913,34
DA:914,34
DA:915,34
DA:916,34
DA:918,56
DA:919,46
DA:920,46
DA:921,24
DA:922,24
DA:923,22
DA:927,10
DA:928,10
DA:929,1
DA:930,1
DA:932,10
DA:933,35
DA:971,65
DA:972,65
DA:975,65
DA:976,1
DA:977,1
DA:978,1
DA:979,64
DA:982,64
DA:983,0
DA:984,0
DA:985,0
DA:988,64
DA:989,3
DA:990,3
DA:991,3
DA:992,3
DA:993,3
DA:996,61
DA:997,61
DA:998,61
DA:1001,61
DA:1002,0
DA:1003,0
DA:1004,0
DA:1005,0
DA:1006,0
DA:1009,61
DA:1011,59
DA:1012,2
DA:1015,59
DA:1016,65
DA:1044,7
DA:1045,7
DA:1046,0
DA:1047,0
DA:1050,7
DA:1051,7
DA:1053,5
DA:1054,0
DA:1055,0
DA:1059,5
DA:1061,5
DA:1062,5
DA:1063,7
DA:1079,17
DA:1080,17
DA:1081,17
DA:1082,17
DA:1083,17
DA:1084,0
DA:1085,0
DA:1086,0
DA:1089,0
DA:1090,0
DA:1091,0
DA:1092,0
DA:1095,17
DA:1096,1
DA:1097,1
DA:1098,3
DA:1099,1
DA:1100,1
DA:1101,1
DA:1103,1
DA:1104,1
DA:1105,1
DA:1106,16
DA:1108,16
DA:1111,16
DA:1113,16
DA:1116,16
DA:1117,10
DA:1119,17
DA:1121,11
DA:1122,11
DA:1123,10
DA:1125,1
DA:1126,0
DA:1129,1
DA:1130,1
DA:1131,1
DA:1132,10
DA:1135,10
DA:1136,10
DA:1138,10
DA:1139,0
DA:1141,0
DA:1145,10
DA:1146,7
DA:1148,6
DA:1151,12
DA:1152,12
DA:1153,12
DA:1155,12
DA:1157,12
DA:1158,0
DA:1159,0
DA:1160,0
DA:1163,12
DA:1164,17
DA:1198,2
DA:1199,2
DA:1200,2
DA:1201,2
DA:1202,2
DA:1203,0
DA:1204,0
DA:1208,2
DA:1211,2
DA:1214,2
DA:1216,2
DA:1217,0
DA:1218,0
DA:1221,2
DA:1222,2
DA:1228,61
DA:1229,61
DA:1230,61
DA:1231,61
DA:1232,61
DA:1233,61
DA:1234,61
DA:1235,61
DA:1236,61
DA:1237,61
DA:1238,61
DA:1239,61
DA:1240,61
DA:1241,61
DA:1242,61
DA:1243,61
DA:1244,61
DA:1245,61
DA:1246,61
DA:1247,61
DA:1248,61
DA:1249,61
DA:1250,61
DA:1251,61
DA:1252,61
DA:1253,61
DA:1254,61
DA:1255,61
DA:1256,61
DA:1257,61
DA:1258,61
DA:1259,61
DA:1260,61
DA:1262,294
DA:1263,294
DA:1264,4
DA:1265,290
DA:1267,61
DA:1273,61
DA:1275,61
DA:1277,1
DA:1278,1
DA:1279,1
DA:1280,1
DA:1283,20
DA:1285,40
DA:1286,40
DA:1287,40
DA:1291,60
DA:1292,6
DA:1293,6
DA:1294,5
DA:1295,5
DA:1297,1
DA:1298,1
DA:1299,1
DA:1300,1
DA:1301,1
DA:1302,1
DA:1305,54
DA:1308,59
DA:1310,59
DA:1311,61
DA:1317,59
DA:1318,59
DA:1319,55
DA:1320,4
DA:1323,4
DA:1326,11
DA:1327,7
DA:1328,7
DA:1329,7
DA:1330,7
DA:1331,7
DA:1333,7
DA:1337,4
DA:1338,2
DA:1339,2
DA:1340,2
DA:1341,2
DA:1342,2
DA:1343,2
DA:1346,9
DA:1347,9
DA:1349,1
DA:1350,1
DA:1351,1
DA:1352,0
DA:1355,0
DA:1357,0
DA:1358,0
DA:1362,8
DA:1365,4
DA:1366,59
DA:1376,1
DA:1377,1
DA:1378,1
DA:1379,1
DA:1380,1
DA:1381,1
DA:1382,1
DA:1383,1
DA:1384,1
DA:1385,1
DA:1386,1
DA:1387,1
DA:1388,1
DA:1391,1
DA:1392,1
DA:1393,1
DA:1394,1
DA:1395,1
DA:1396,1
DA:1397,1
DA:1398,1
DA:1399,1
DA:1400,1
DA:1401,1
DA:1402,1
DA:1403,1
DA:1404,1
DA:1405,1
DA:1406,1
DA:1407,1
DA:1408,1
DA:1409,1
DA:1411,1
DA:1412,1
DA:1414,1
DA:1416,1
DA:1417,1
DA:1418,1
DA:1419,1
DA:1420,1
DA:1421,1
DA:1422,1
DA:1424,1
DA:1426,1
DA:1427,1
DA:1430,1
DA:1431,1
DA:1432,1
DA:1433,1
DA:1434,1
DA:1435,1
DA:1437,0
DA:1439,1
DA:1442,1
DA:1443,1
DA:1444,1
DA:1445,1
DA:1446,1
DA:1448,1
DA:1449,1
DA:1451,1
DA:1452,1
DA:1453,1
DA:1454,1
DA:1455,1
DA:1457,0
DA:1460,1
DA:1461,1
DA:1464,1
DA:1465,1
DA:1466,1
DA:1467,1
DA:1468,1
DA:1469,1
DA:1471,1
DA:1472,1
DA:1474,1
DA:1475,1
DA:1476,1
DA:1477,1
DA:1478,1
DA:1480,0
DA:1483,1
DA:1484,1
DA:1487,1
DA:1488,1
DA:1489,1
DA:1490,1
DA:1491,1
DA:1492,1
DA:1494,1
DA:1495,1
DA:1497,1
DA:1498,1
DA:1499,1
DA:1500,1
DA:1501,1
DA:1503,0
DA:1506,1
DA:1507,1
DA:1510,1
DA:1512,1
DA:1513,1
DA:1514,1
DA:1515,1
DA:1517,1
DA:1518,1
DA:1520,1
DA:1521,1
DA:1522,1
DA:1523,1
DA:1525,1
DA:1529,1
DA:1530,1
DA:1531,1
DA:1532,1
DA:1534,1
DA:1535,1
DA:1537,1
DA:1538,1
DA:1539,1
DA:1540,1
DA:1542,1
DA:1543,1
DA:1544,1
DA:1545,1
DA:1548,1
DA:1549,1
DA:1552,1
DA:1553,1
DA:1554,1
DA:1555,1
DA:1556,1
DA:1557,1
DA:1558,1
DA:1560,1
DA:1561,1
DA:1564,1
DA:1565,1
DA:1566,1
DA:1568,1
DA:1569,1
DA:1572,1
DA:1573,1
DA:1574,1
DA:1575,1
DA:1576,1
DA:1578,1
DA:1579,1
DA:1581,1
DA:1584,1
DA:1585,1
DA:1586,1
DA:1589,1
DA:1590,1
DA:1593,1
DA:1594,1
DA:1596,1
DA:1597,1
DA:1600,1
DA:1601,1
DA:1602,1
DA:1603,1
DA:1604,1
DA:1606,1
DA:1607,1
DA:1609,1
DA:1610,1
DA:1611,1
DA:1613,1
DA:1614,1
DA:1617,1
DA:1618,1
DA:1619,1
DA:1620,1
DA:1621,1
DA:1623,1
DA:1624,1
DA:1625,1
DA:1627,1
DA:1628,1
DA:1631,1
DA:1632,1
DA:1633,1
DA:1634,1
DA:1635,1
DA:1638,1
DA:1639,1
DA:1640,1
DA:1641,1
DA:1643,1
DA:1644,1
DA:1646,1
DA:1648,1
DA:1649,1
DA:1652,1
DA:1653,1
DA:1654,1
DA:1656,1
DA:1657,1
DA:1659,1
DA:1660,1
DA:1661,1
DA:1664,1
DA:1665,1
DA:1668,1
DA:1669,1
DA:1670,1
DA:1671,1
DA:1672,1
DA:1673,1
DA:1675,0
DA:1677,1
DA:1680,1
DA:1681,1
DA:1682,1
DA:1685,1
DA:1686,1
DA:1688,1
DA:1689,1
DA:1690,1
DA:1691,1
DA:1692,1
DA:1693,1
DA:1694,1
DA:1695,1
DA:1696,1
DA:1697,1
DA:1698,1
DA:1699,1
DA:1700,1
DA:1702,1
DA:1703,1
DA:1705,1
DA:1708,1
DA:1709,1
DA:1712,1
DA:1713,1
DA:1714,1
DA:1715,0
DA:1718,1
DA:1719,1
DA:1720,1
DA:1721,1
DA:1722,1
DA:1725,1
DA:1726,1
DA:1727,1
DA:1728,0
DA:1729,0
DA:1731,1
DA:1732,1
DA:1735,1
DA:1736,1
DA:1737,1
DA:1738,1
DA:1739,1
DA:1742,1
DA:1743,1
DA:1744,1
DA:1745,1
DA:1746,1
DA:1749,1
DA:1750,1
DA:1751,1
DA:1752,1
DA:1753,1
DA:1756,1
DA:1757,1
DA:1758,1
DA:1759,1
DA:1760,1
DA:1763,1
DA:1765,1
DA:1766,1
DA:1767,1
DA:1770,1
DA:1771,1
DA:1772,1
DA:1774,1
DA:1775,1
DA:1778,1
DA:1779,1
DA:1780,1
DA:1781,1
DA:1782,1
DA:1783,1
DA:1784,1
DA:1785,1
DA:1787,6
DA:1788,5
DA:1789,5
DA:1792,1
DA:1793,1
DA:1796,1
DA:1797,1
DA:1798,1
DA:1799,1
DA:1800,1
DA:1801,1
DA:1802,1
DA:1803,1
DA:1805,1
DA:1806,1
DA:1807,1
DA:1808,1
DA:1809,1
DA:1810,1
DA:1812,1
DA:1813,1
DA:1816,1
DA:1817,1
DA:1818,1
DA:1819,1
DA:1821,1
DA:1822,1
DA:1823,1
DA:1824,1
DA:1825,1
DA:1826,1
DA:1828,1
DA:1829,1
DA:1832,1
DA:1833,1
DA:1834,1
DA:1835,1
DA:1836,1
DA:1837,1
DA:1838,1
DA:1839,1
DA:1840,1
DA:1841,1
DA:1842,1
DA:1843,1
DA:1844,1
DA:1845,1
DA:1846,1
DA:1847,1
DA:1848,1
DA:1849,1
DA:1850,1
DA:1851,1
DA:1852,1
DA:1853,1
DA:1855,1
DA:1856,1
DA:1858,1
DA:1860,1
DA:1861,1
DA:1862,1
DA:1865,1
DA:1867,1
DA:1868,1
DA:1869,1
DA:1873,1
DA:1875,1
DA:1878,1
DA:1879,1
DA:1880,1
DA:1883,1
DA:1884,1
DA:1885,1
DA:1887,1
DA:1888,1
DA:1891,1
DA:1892,1
DA:1893,1
DA:1894,1
DA:1895,1
DA:1896,1
DA:1897,1
DA:1898,1
DA:1899,1
DA:1900,1
DA:1901,1
DA:1902,1
DA:1904,1
DA:1905,1
DA:1908,1
DA:1909,1
DA:1911,1
DA:1912,1
DA:1915,1
DA:1916,1
DA:1917,1
DA:1918,1
DA:1919,1
DA:1920,1
DA:1921,1
DA:1922,1
DA:1923,1
DA:1924,1
DA:1926,1
DA:1927,1
DA:1929,1
DA:1930,1
DA:1932,1
DA:1933,1
DA:1936,1
DA:1937,1
DA:1938,1
DA:1939,1
DA:1940,1
DA:1941,1
DA:1942,1
DA:1943,1
DA:1944,1
DA:1945,1
DA:1947,1
DA:1948,1
DA:1951,1
DA:1952,1
DA:1954,1
DA:1955,1
DA:1958,1
DA:1959,1
DA:1960,1
DA:1961,1
DA:1962,1
DA:1963,1
DA:1964,1
DA:1965,1
DA:1966,1
DA:1967,1
DA:1970,1
DA:1971,1
DA:1972,1
DA:1973,1
DA:1974,1
DA:1975,1
DA:1976,1
DA:1977,1
DA:1979,1
DA:1980,1
DA:1982,1
DA:1984,1
DA:1986,1
DA:1988,1
DA:1989,1
DA:1990,1
DA:1991,1
DA:1993,1
DA:1994,1
DA:1997,1
DA:1998,1
DA:1999,1
DA:2000,1
DA:2001,1
DA:2002,1
DA:2003,1
DA:2004,1
DA:2005,1
DA:2007,1
DA:2008,1
DA:2009,1
DA:2010,1
DA:2011,1
DA:2012,1
DA:2014,1
DA:2016,1
DA:2017,1
DA:2018,1
DA:2019,1
DA:2020,1
DA:2021,1
BRF:0
BRH:0
LF:1084
LH:1012
end_of_record
SF:/home/runner/work/deacon/deacon/crates/core/src/container.rs
FN:99,_RNCNvMNtCshLLWmVuQQJZ_11deacon_core9containerNtB4_17ContainerIdentity19hash_workspace_path0B6_
FN:110,_RNvMNtCshLLWmVuQQJZ_11deacon_core9containerNtB2_17ContainerIdentity11hash_config
FN:126,_RNvMNtCshLLWmVuQQJZ_11deacon_core9containerNtB2_17ContainerIdentity14container_name
FN:153,_RNvMNtCshLLWmVuQQJZ_11deacon_core9containerNtB2_17ContainerIdentity14label_selector
FN:93,_RNvMNtCshLLWmVuQQJZ_11deacon_core9containerNtB2_17ContainerIdentity19hash_workspace_path
FN:73,_RNvMNtCshLLWmVuQQJZ_11deacon_core9containerNtB2_17ContainerIdentity3new
FN:136,_RNvMNtCshLLWmVuQQJZ_11deacon_core9containerNtB2_17ContainerIdentity6labels
FN:99,_RNCNvMNtCs1G9XuckPzNo_11deacon_core9containerNtB4_17ContainerIdentity19hash_workspace_path0B6_
FN:110,_RNvMNtCs1G9XuckPzNo_11deacon_core9containerNtB2_17ContainerIdentity11hash_config
FN:126,_RNvMNtCs1G9XuckPzNo_11deacon_core9containerNtB2_17ContainerIdentity14container_name
FN:153,_RNvMNtCs1G9XuckPzNo_11deacon_core9containerNtB2_17ContainerIdentity14label_selector
FN:93,_RNvMNtCs1G9XuckPzNo_11deacon_core9containerNtB2_17ContainerIdentity19hash_workspace_path
FN:73,_RNvMNtCs1G9XuckPzNo_11deacon_core9containerNtB2_17ContainerIdentity3new
FN:136,_RNvMNtCs1G9XuckPzNo_11deacon_core9containerNtB2_17ContainerIdentity6labels
FN:250,_RNvNtNtCs1G9XuckPzNo_11deacon_core9container5testss_19test_label_selector
FN:227,_RNvNtNtCs1G9XuckPzNo_11deacon_core9container5testss_22test_labels_generation
FN:192,_RNvNtNtCs1G9XuckPzNo_11deacon_core9container5testss_30test_container_name_generation
FN:172,_RNvNtNtCs1G9XuckPzNo_11deacon_core9container5testss_32test_container_identity_creation
FN:210,_RNvNtNtCs1G9XuckPzNo_11deacon_core9container5testss_33test_container_name_deterministic
FN:272,_RNvNtNtCs1G9XuckPzNo_11deacon_core9container5testss_34test_config_hash_different_configs
FN:295,_RNvNtNtCs1G9XuckPzNo_11deacon_core9container5testss_35test_workspace_hash_different_paths
FNDA:0,_RNCNvMNtCshLLWmVuQQJZ_11deacon_core9containerNtB4_17ContainerIdentity19hash_workspace_path0B6_
FNDA:4,_RNvMNtCshLLWmVuQQJZ_11deacon_core9containerNtB2_17ContainerIdentity11hash_config
FNDA:2,_RNvMNtCshLLWmVuQQJZ_11deacon_core9containerNtB2_17ContainerIdentity14container_name
FNDA:4,_RNvMNtCshLLWmVuQQJZ_11deacon_core9containerNtB2_17ContainerIdentity14label_selector
FNDA:4,_RNvMNtCshLLWmVuQQJZ_11deacon_core9containerNtB2_17ContainerIdentity19hash_workspace_path
FNDA:4,_RNvMNtCshLLWmVuQQJZ_11deacon_core9containerNtB2_17ContainerIdentity3new
FNDA:2,_RNvMNtCshLLWmVuQQJZ_11deacon_core9containerNtB2_17ContainerIdentity6labels
FNDA:0,_RNCNvMNtCs1G9XuckPzNo_11deacon_core9containerNtB4_17ContainerIdentity19hash_workspace_path0B6_
FNDA:10,_RNvMNtCs1G9XuckPzNo_11deacon_core9containerNtB2_17ContainerIdentity11hash_config
FNDA:3,_RNvMNtCs1G9XuckPzNo_11deacon_core9containerNtB2_17ContainerIdentity14container_name
FNDA:1,_RNvMNtCs1G9XuckPzNo_11deacon_core9containerNtB2_17ContainerIdentity14label_selector
FNDA:10,_RNvMNtCs1G9XuckPzNo_11deacon_core9containerNtB2_17ContainerIdentity19hash_workspace_path
FNDA:10,_RNvMNtCs1G9XuckPzNo_11deacon_core9containerNtB2_17ContainerIdentity3new
FNDA:1,_RNvMNtCs1G9XuckPzNo_11deacon_core9containerNtB2_17ContainerIdentity6labels
FNDA:1,_RNvNtNtCs1G9XuckPzNo_11deacon_core9container5testss_19test_label_selector
FNDA:1,_RNvNtNtCs1G9XuckPzNo_11deacon_core9container5testss_22test_labels_generation
FNDA:1,_RNvNtNtCs1G9XuckPzNo_11deacon_core9container5testss_30test_container_name_generation
FNDA:1,_RNvNtNtCs1G9XuckPzNo_11deacon_core9container5testss_32test_container_identity_creation
FNDA:1,_RNvNtNtCs1G9XuckPzNo_11deacon_core9container5testss_33test_container_name_deterministic
FNDA:1,_RNvNtNtCs1G9XuckPzNo_11deacon_core9container5testss_34test_config_hash_different_configs
FNDA:1,_RNvNtNtCs1G9XuckPzNo_11deacon_core9container5testss_35test_workspace_hash_different_paths
FNF:14
FNH:13
DA:73,14
DA:74,14
DA:75,14
DA:76,14
DA:78,14
DA:82,0
DA:85,14
DA:86,14
DA:87,14
DA:88,14
DA:89,14
DA:90,14
DA:93,14
DA:97,14
DA:98,14
DA:99,14
DA:101,14
DA:102,14
DA:103,14
DA:106,14
DA:107,14
DA:110,14
DA:115,14
DA:117,14
DA:118,14
DA:119,14
DA:122,14
DA:123,14
DA:126,5
DA:127,5
DA:128,5
DA:130,5
DA:131,5
DA:132,5
DA:133,5
DA:136,3
DA:137,3
DA:138,3
DA:139,3
DA:140,3
DA:141,3
DA:143,3
DA:145,3
DA:146,3
DA:147,3
DA:149,3
DA:150,3
DA:153,5
DA:154,5
DA:155,5
DA:163,5
DA:172,1
DA:173,1
DA:174,1
DA:176,1
DA:177,1
DA:178,1
DA:179,1
DA:180,1
DA:182,1
DA:184,1
DA:185,1
DA:186,1
DA:187,1
DA:188,1
DA:189,1
DA:192,1
DA:193,1
DA:194,1
DA:196,1
DA:197,1
DA:198,1
DA:199,1
DA:200,1
DA:202,1
DA:203,1
DA:205,1
DA:206,1
DA:207,1
DA:210,1
DA:211,1
DA:212,1
DA:214,1
DA:215,1
DA:216,1
DA:217,1
DA:218,1
DA:220,1
DA:221,1
DA:223,1
DA:224,1
DA:227,1
DA:228,1
DA:229,1
DA:231,1
DA:232,1
DA:233,1
DA:234,1
DA:235,1
DA:237,1
DA:238,1
DA:240,1
DA:241,1
DA:242,1
DA:243,1
DA:245,1
DA:246,1
DA:247,1
DA:250,1
DA:251,1
DA:252,1
DA:254,1
DA:255,1
DA:256,1
DA:257,1
DA:258,1
DA:260,1
DA:261,1
DA:263,1
DA:264,1
DA:265,1
DA:266,1
DA:267,1
DA:268,1
DA:269,1
DA:272,1
DA:273,1
DA:274,1
DA:276,1
DA:277,1
DA:278,1
DA:279,1
DA:280,1
DA:282,1
DA:283,1
DA:284,1
DA:285,1
DA:286,1
DA:288,1
DA:289,1
DA:291,1
DA:292,1
DA:295,1
DA:296,1
DA:297,1
DA:299,1
DA:300,1
DA:301,1
DA:302,1
DA:303,1
DA:305,1
DA:306,1
DA:308,1
DA:309,1
BRF:0
BRH:0
LF:155
LH:153
end_of_record
SF:/home/runner/work/deacon/deacon/crates/core/src/container_lifecycle.rs
FN:138,_RNCNvNtCshLLWmVuQQJZ_11deacon_core19container_lifecycle23execute_lifecycle_phase0CsgueokGkgs2b_6deacon
FN:43,_RNCNvNtCshLLWmVuQQJZ_11deacon_core19container_lifecycle27execute_container_lifecycle0CsgueokGkgs2b_6deacon
FN:288,_RNvMNtCshLLWmVuQQJZ_11deacon_core19container_lifecycleNtB2_26ContainerLifecycleCommands14with_on_create
FN:300,_RNvMNtCshLLWmVuQQJZ_11deacon_core19container_lifecycleNtB2_26ContainerLifecycleCommands15with_post_start
FN:306,_RNvMNtCshLLWmVuQQJZ_11deacon_core19container_lifecycleNtB2_26ContainerLifecycleCommands16with_post_attach
FN:294,_RNvMNtCshLLWmVuQQJZ_11deacon_core19container_lifecycleNtB2_26ContainerLifecycleCommands16with_post_create
FN:283,_RNvMNtCshLLWmVuQQJZ_11deacon_core19container_lifecycleNtB2_26ContainerLifecycleCommands3new
FN:367,_RNvMs0_NtCshLLWmVuQQJZ_11deacon_core19container_lifecycleNtB5_24ContainerLifecycleResult14total_duration
FN:357,_RNvMs0_NtCshLLWmVuQQJZ_11deacon_core19container_lifecycleNtB5_24ContainerLifecycleResult3new
FN:362,_RNvMs0_NtCshLLWmVuQQJZ_11deacon_core19container_lifecycleNtB5_24ContainerLifecycleResult7success
FN:132,_RNvNtCshLLWmVuQQJZ_11deacon_core19container_lifecycle23execute_lifecycle_phase
FN:39,_RNvNtCshLLWmVuQQJZ_11deacon_core19container_lifecycle27execute_container_lifecycle
FN:350,_RNvXs_NtCshLLWmVuQQJZ_11deacon_core19container_lifecycleNtB4_24ContainerLifecycleResultNtNtCs66KPHxksi63_4core7default7Default7default
FN:138,_RNCNvNtCshLLWmVuQQJZ_11deacon_core19container_lifecycle23execute_lifecycle_phase0B5_
FN:43,_RNCNvNtCshLLWmVuQQJZ_11deacon_core19container_lifecycle27execute_container_lifecycle0B5_
FN:138,_RNCNvNtCs1G9XuckPzNo_11deacon_core19container_lifecycle23execute_lifecycle_phase0B5_
FN:43,_RNCNvNtCs1G9XuckPzNo_11deacon_core19container_lifecycle27execute_container_lifecycle0B5_
FN:132,_RNvNtCs1G9XuckPzNo_11deacon_core19container_lifecycle23execute_lifecycle_phase
FN:39,_RNvNtCs1G9XuckPzNo_11deacon_core19container_lifecycle27execute_container_lifecycle
FN:350,_RNvXs_NtCs1G9XuckPzNo_11deacon_core19container_lifecycleNtB4_24ContainerLifecycleResultNtNtCs66KPHxksi63_4core7default7Default7default
FN:409,_RNvNtNtCs1G9XuckPzNo_11deacon_core19container_lifecycle5testss_31test_container_lifecycle_result
FN:377,_RNvNtNtCs1G9XuckPzNo_11deacon_core19container_lifecycle5testss_40test_container_lifecycle_config_creation
FN:395,_RNvNtNtCs1G9XuckPzNo_11deacon_core19container_lifecycle5testss_41test_container_lifecycle_commands_builder
FN:288,_RNvMNtCs1G9XuckPzNo_11deacon_core19container_lifecycleNtB2_26ContainerLifecycleCommands14with_on_create
FN:300,_RNvMNtCs1G9XuckPzNo_11deacon_core19container_lifecycleNtB2_26ContainerLifecycleCommands15with_post_start
FN:306,_RNvMNtCs1G9XuckPzNo_11deacon_core19container_lifecycleNtB2_26ContainerLifecycleCommands16with_post_attach
FN:294,_RNvMNtCs1G9XuckPzNo_11deacon_core19container_lifecycleNtB2_26ContainerLifecycleCommands16with_post_create
FN:283,_RNvMNtCs1G9XuckPzNo_11deacon_core19container_lifecycleNtB2_26ContainerLifecycleCommands3new
FN:367,_RNvMs0_NtCs1G9XuckPzNo_11deacon_core19container_lifecycleNtB5_24ContainerLifecycleResult14total_duration
FN:357,_RNvMs0_NtCs1G9XuckPzNo_11deacon_core19container_lifecycleNtB5_24ContainerLifecycleResult3new
FN:362,_RNvMs0_NtCs1G9XuckPzNo_11deacon_core19container_lifecycleNtB5_24ContainerLifecycleResult7success
FN:138,_RNCNvNtCshLLWmVuQQJZ_11deacon_core19container_lifecycle23execute_lifecycle_phase0Cs9OXLKDI7tN3_31integration_container_lifecycle
FN:43,_RNCNvNtCshLLWmVuQQJZ_11deacon_core19container_lifecycle27execute_container_lifecycle0Cs9OXLKDI7tN3_31integration_container_lifecycle
FNDA:1,_RNCNvNtCshLLWmVuQQJZ_11deacon_core19container_lifecycle23execute_lifecycle_phase0CsgueokGkgs2b_6deacon
FNDA:2,_RNCNvNtCshLLWmVuQQJZ_11deacon_core19container_lifecycle27execute_container_lifecycle0CsgueokGkgs2b_6deacon
FNDA:3,_RNvMNtCshLLWmVuQQJZ_11deacon_core19container_lifecycleNtB2_26ContainerLifecycleCommands14with_on_create
FNDA:4,_RNvMNtCshLLWmVuQQJZ_11deacon_core19container_lifecycleNtB2_26ContainerLifecycleCommands15with_post_start
FNDA:3,_RNvMNtCshLLWmVuQQJZ_11deacon_core19container_lifecycleNtB2_26ContainerLifecycleCommands16with_post_attach
FNDA:4,_RNvMNtCshLLWmVuQQJZ_11deacon_core19container_lifecycleNtB2_26ContainerLifecycleCommands16with_post_create
FNDA:5,_RNvMNtCshLLWmVuQQJZ_11deacon_core19container_lifecycleNtB2_26ContainerLifecycleCommands3new
FNDA:0,_RNvMs0_NtCshLLWmVuQQJZ_11deacon_core19container_lifecycleNtB5_24ContainerLifecycleResult14total_duration
FNDA:4,_RNvMs0_NtCshLLWmVuQQJZ_11deacon_core19container_lifecycleNtB5_24ContainerLifecycleResult3new
FNDA:0,_RNvMs0_NtCshLLWmVuQQJZ_11deacon_core19container_lifecycleNtB5_24ContainerLifecycleResult7success
FNDA:3,_RNvNtCshLLWmVuQQJZ_11deacon_core19container_lifecycle23execute_lifecycle_phase
FNDA:4,_RNvNtCshLLWmVuQQJZ_11deacon_core19container_lifecycle27execute_container_lifecycle
FNDA:0,_RNvXs_NtCshLLWmVuQQJZ_11deacon_core19container_lifecycleNtB4_24ContainerLifecycleResultNtNtCs66KPHxksi63_4core7default7Default7default
FNDA:0,_RNCNvNtCshLLWmVuQQJZ_11deacon_core19container_lifecycle23execute_lifecycle_phase0B5_
FNDA:0,_RNCNvNtCshLLWmVuQQJZ_11deacon_core19container_lifecycle27execute_container_lifecycle0B5_
FNDA:0,_RNCNvNtCs1G9XuckPzNo_11deacon_core19container_lifecycle23execute_lifecycle_phase0B5_
FNDA:0,_RNCNvNtCs1G9XuckPzNo_11deacon_core19container_lifecycle27execute_container_lifecycle0B5_
FNDA:0,_RNvNtCs1G9XuckPzNo_11deacon_core19container_lifecycle23execute_lifecycle_phase
FNDA:0,_RNvNtCs1G9XuckPzNo_11deacon_core19container_lifecycle27execute_container_lifecycle
FNDA:0,_RNvXs_NtCs1G9XuckPzNo_11deacon_core19container_lifecycleNtB4_24ContainerLifecycleResultNtNtCs66KPHxksi63_4core7default7Default7default
FNDA:1,_RNvNtNtCs1G9XuckPzNo_11deacon_core19container_lifecycle5testss_31test_container_lifecycle_result
FNDA:1,_RNvNtNtCs1G9XuckPzNo_11deacon_core19container_lifecycle5testss_40test_container_lifecycle_config_creation
FNDA:1,_RNvNtNtCs1G9XuckPzNo_11deacon_core19container_lifecycle5testss_41test_container_lifecycle_commands_builder
FNDA:1,_RNvMNtCs1G9XuckPzNo_11deacon_core19container_lifecycleNtB2_26ContainerLifecycleCommands14with_on_create
FNDA:1,_RNvMNtCs1G9XuckPzNo_11deacon_core19container_lifecycleNtB2_26ContainerLifecycleCommands15with_post_start
FNDA:1,_RNvMNtCs1G9XuckPzNo_11deacon_core19container_lifecycleNtB2_26ContainerLifecycleCommands16with_post_attach
FNDA:1,_RNvMNtCs1G9XuckPzNo_11deacon_core19container_lifecycleNtB2_26ContainerLifecycleCommands16with_post_create
FNDA:1,_RNvMNtCs1G9XuckPzNo_11deacon_core19container_lifecycleNtB2_26ContainerLifecycleCommands3new
FNDA:1,_RNvMs0_NtCs1G9XuckPzNo_11deacon_core19container_lifecycleNtB5_24ContainerLifecycleResult14total_duration
FNDA:1,_RNvMs0_NtCs1G9XuckPzNo_11deacon_core19container_lifecycleNtB5_24ContainerLifecycleResult3new
FNDA:1,_RNvMs0_NtCs1G9XuckPzNo_11deacon_core19container_lifecycleNtB5_24ContainerLifecycleResult7success
FNDA:2,_RNCNvNtCshLLWmVuQQJZ_11deacon_core19container_lifecycle23execute_lifecycle_phase0Cs9OXLKDI7tN3_31integration_container_lifecycle
FNDA:2,_RNCNvNtCshLLWmVuQQJZ_11deacon_core19container_lifecycle27execute_container_lifecycle0Cs9OXLKDI7tN3_31integration_container_lifecycle
FNF:16
FNH:15
DA:39,4
DA:40,4
DA:41,4
DA:42,4
DA:43,4
DA:128,4
DA:132,3
DA:133,3
DA:134,3
DA:135,3
DA:136,3
DA:137,3
DA:138,3
DA:266,3
DA:283,6
DA:284,6
DA:285,6
DA:288,4
DA:289,4
DA:290,4
DA:291,4
DA:294,5
DA:295,5
DA:296,5
DA:297,5
DA:300,5
DA:301,5
DA:302,5
DA:303,5
DA:306,4
DA:307,4
DA:308,4
DA:309,4
DA:350,0
DA:351,0
DA:352,0
DA:357,5
DA:358,5
DA:359,5
DA:362,1
DA:363,1
DA:364,1
DA:367,1
DA:368,1
DA:369,1
DA:377,1
DA:378,1
DA:379,1
DA:380,1
DA:381,1
DA:382,1
DA:383,1
DA:384,1
DA:385,1
DA:387,1
DA:388,1
DA:389,1
DA:390,1
DA:391,1
DA:392,1
DA:395,1
DA:396,1
DA:397,1
DA:398,1
DA:399,1
DA:400,1
DA:402,1
DA:403,1
DA:404,1
DA:405,1
DA:406,1
DA:409,1
DA:410,1
DA:411,1
DA:412,1
DA:413,1
DA:414,1
BRF:0
BRH:0
LF:79
LH:76
end_of_record
SF:/home/runner/work/deacon/deacon/crates/core/src/docker.rs
FN:810,_RNCNCNCNCNvXs0_NtCshLLWmVuQQJZ_11deacon_core6dockerNtBd_9CliDockerNtNtBf_9container12ContainerOps15start_container0000CsgueokGkgs2b_6deacon
FN:776,_RNCNCNCNCNvXs0_NtCshLLWmVuQQJZ_11deacon_core6dockerNtBd_9CliDockerNtNtBf_9container12ContainerOps16create_container00s0_00CsgueokGkgs2b_6deacon
FN:786,_RNCNCNCNCNvXs0_NtCshLLWmVuQQJZ_11deacon_core6dockerNtBd_9CliDockerNtNtBf_9container12ContainerOps16create_container00s0_0s_0CsgueokGkgs2b_6deacon
FN:838,_RNCNCNCNCNvXs0_NtCshLLWmVuQQJZ_11deacon_core6dockerNtBd_9CliDockerNtNtBf_9container12ContainerOps16remove_container0000CsgueokGkgs2b_6deacon
FN:866,_RNCNCNCNCNvXs0_NtCshLLWmVuQQJZ_11deacon_core6dockerNtBd_9CliDockerNtNtBf_9container12ContainerOps19get_container_image0000CsgueokGkgs2b_6deacon
FN:878,_RNCNCNCNCNvXs0_NtCshLLWmVuQQJZ_11deacon_core6dockerNtBd_9CliDockerNtNtBf_9container12ContainerOps19get_container_image000s_0CsgueokGkgs2b_6deacon
FN:466,_RNCNCNCNCNvXs_NtCshLLWmVuQQJZ_11deacon_core6dockerNtBc_9CliDockerNtBc_6Docker15list_containers00s_00CsgueokGkgs2b_6deacon
FN:484,_RNCNCNCNCNvXs_NtCshLLWmVuQQJZ_11deacon_core6dockerNtBc_9CliDockerNtBc_6Docker15list_containers00s_0s0_0CsgueokGkgs2b_6deacon
FN:491,_RNCNCNCNCNvXs_NtCshLLWmVuQQJZ_11deacon_core6dockerNtBc_9CliDockerNtBc_6Docker15list_containers00s_0s1_0CsgueokGkgs2b_6deacon
FN:496,_RNCNCNCNCNvXs_NtCshLLWmVuQQJZ_11deacon_core6dockerNtBc_9CliDockerNtBc_6Docker15list_containers00s_0s2_0CsgueokGkgs2b_6deacon
FN:497,_RNCNCNCNCNvXs_NtCshLLWmVuQQJZ_11deacon_core6dockerNtBc_9CliDockerNtBc_6Docker15list_containers00s_0s3_0CsgueokGkgs2b_6deacon
FN:501,_RNCNCNCNCNvXs_NtCshLLWmVuQQJZ_11deacon_core6dockerNtBc_9CliDockerNtBc_6Docker15list_containers00s_0s4_0CsgueokGkgs2b_6deacon
FN:506,_RNCNCNCNCNvXs_NtCshLLWmVuQQJZ_11deacon_core6dockerNtBc_9CliDockerNtBc_6Docker15list_containers00s_0s5_0CsgueokGkgs2b_6deacon
FN:511,_RNCNCNCNCNvXs_NtCshLLWmVuQQJZ_11deacon_core6dockerNtBc_9CliDockerNtBc_6Docker15list_containers00s_0s6_0CsgueokGkgs2b_6deacon
FN:473,_RNCNCNCNCNvXs_NtCshLLWmVuQQJZ_11deacon_core6dockerNtBc_9CliDockerNtBc_6Docker15list_containers00s_0s_0CsgueokGkgs2b_6deacon
FN:537,_RNCNCNCNCNvXs_NtCshLLWmVuQQJZ_11deacon_core6dockerNtBc_9CliDockerNtBc_6Docker17inspect_container0000CsgueokGkgs2b_6deacon
FN:556,_RNCNCNCNCNvXs_NtCshLLWmVuQQJZ_11deacon_core6dockerNtBc_9CliDockerNtBc_6Docker17inspect_container000s0_0CsgueokGkgs2b_6deacon
FN:571,_RNCNCNCNCNvXs_NtCshLLWmVuQQJZ_11deacon_core6dockerNtBc_9CliDockerNtBc_6Docker17inspect_container000s1_0CsgueokGkgs2b_6deacon
FN:576,_RNCNCNCNCNvXs_NtCshLLWmVuQQJZ_11deacon_core6dockerNtBc_9CliDockerNtBc_6Docker17inspect_container000s2_0CsgueokGkgs2b_6deacon
FN:577,_RNCNCNCNCNvXs_NtCshLLWmVuQQJZ_11deacon_core6dockerNtBc_9CliDockerNtBc_6Docker17inspect_container000s3_0CsgueokGkgs2b_6deacon
FN:581,_RNCNCNCNCNvXs_NtCshLLWmVuQQJZ_11deacon_core6dockerNtBc_9CliDockerNtBc_6Docker17inspect_container000s4_0CsgueokGkgs2b_6deacon
FN:582,_RNCNCNCNCNvXs_NtCshLLWmVuQQJZ_11deacon_core6dockerNtBc_9CliDockerNtBc_6Docker17inspect_container000s5_0CsgueokGkgs2b_6deacon
FN:587,_RNCNCNCNCNvXs_NtCshLLWmVuQQJZ_11deacon_core6dockerNtBc_9CliDockerNtBc_6Docker17inspect_container000s6_0CsgueokGkgs2b_6deacon
FN:588,_RNCNCNCNCNvXs_NtCshLLWmVuQQJZ_11deacon_core6dockerNtBc_9CliDockerNtBc_6Docker17inspect_container000s7_0CsgueokGkgs2b_6deacon
FN:593,_RNCNCNCNCNvXs_NtCshLLWmVuQQJZ_11deacon_core6dockerNtBc_9CliDockerNtBc_6Docker17inspect_container000s8_0CsgueokGkgs2b_6deacon
FN:594,_RNCNCNCNCNvXs_NtCshLLWmVuQQJZ_11deacon_core6dockerNtBc_9CliDockerNtBc_6Docker17inspect_container000s9_0CsgueokGkgs2b_6deacon
FN:551,_RNCNCNCNCNvXs_NtCshLLWmVuQQJZ_11deacon_core6dockerNtBc_9CliDockerNtBc_6Docker17inspect_container000s_0CsgueokGkgs2b_6deacon
FN:652,_RNCNCNCNCNvXs_NtCshLLWmVuQQJZ_11deacon_core6dockerNtBc_9CliDockerNtBc_6Docker4exec0000CsgueokGkgs2b_6deacon
FN:681,_RNCNCNCNCNvXs_NtCshLLWmVuQQJZ_11deacon_core6dockerNtBc_9CliDockerNtBc_6Docker4exec000s0_0CsgueokGkgs2b_6deacon
FN:677,_RNCNCNCNCNvXs_NtCshLLWmVuQQJZ_11deacon_core6dockerNtBc_9CliDockerNtBc_6Docker4exec000s_0CsgueokGkgs2b_6deacon
FN:806,_RNCNCNCNvXs0_NtCshLLWmVuQQJZ_11deacon_core6dockerNtBb_9CliDockerNtNtBd_9container12ContainerOps15start_container000CsgueokGkgs2b_6deacon
FN:823,_RNCNCNCNvXs0_NtCshLLWmVuQQJZ_11deacon_core6dockerNtBb_9CliDockerNtNtBd_9container12ContainerOps15start_container00s_0CsgueokGkgs2b_6deacon
FN:739,_RNCNCNCNvXs0_NtCshLLWmVuQQJZ_11deacon_core6dockerNtBb_9CliDockerNtNtBd_9container12ContainerOps16create_container000CsgueokGkgs2b_6deacon
FN:772,_RNCNCNCNvXs0_NtCshLLWmVuQQJZ_11deacon_core6dockerNtBb_9CliDockerNtNtBd_9container12ContainerOps16create_container00s0_0CsgueokGkgs2b_6deacon
FN:793,_RNCNCNCNvXs0_NtCshLLWmVuQQJZ_11deacon_core6dockerNtBb_9CliDockerNtNtBd_9container12ContainerOps16create_container00s1_0CsgueokGkgs2b_6deacon
FN:748,_RNCNCNCNvXs0_NtCshLLWmVuQQJZ_11deacon_core6dockerNtBb_9CliDockerNtNtBd_9container12ContainerOps16create_container00s3_0CsgueokGkgs2b_6deacon
FN:765,_RNCNCNCNvXs0_NtCshLLWmVuQQJZ_11deacon_core6dockerNtBb_9CliDockerNtNtBd_9container12ContainerOps16create_container00s_0CsgueokGkgs2b_6deacon
FN:834,_RNCNCNCNvXs0_NtCshLLWmVuQQJZ_11deacon_core6dockerNtBb_9CliDockerNtNtBd_9container12ContainerOps16remove_container000CsgueokGkgs2b_6deacon
FN:851,_RNCNCNCNvXs0_NtCshLLWmVuQQJZ_11deacon_core6dockerNtBb_9CliDockerNtNtBd_9container12ContainerOps16remove_container00s_0CsgueokGkgs2b_6deacon
FN:862,_RNCNCNCNvXs0_NtCshLLWmVuQQJZ_11deacon_core6dockerNtBb_9CliDockerNtNtBd_9container12ContainerOps19get_container_image000CsgueokGkgs2b_6deacon
FN:885,_RNCNCNCNvXs0_NtCshLLWmVuQQJZ_11deacon_core6dockerNtBb_9CliDockerNtNtBd_9container12ContainerOps19get_container_image00s_0CsgueokGkgs2b_6deacon
FN:451,_RNCNCNCNvXs_NtCshLLWmVuQQJZ_11deacon_core6dockerNtBa_9CliDockerNtBa_6Docker15list_containers000CsgueokGkgs2b_6deacon
FN:523,_RNCNCNCNvXs_NtCshLLWmVuQQJZ_11deacon_core6dockerNtBa_9CliDockerNtBa_6Docker15list_containers00s0_0CsgueokGkgs2b_6deacon
FN:453,_RNCNCNCNvXs_NtCshLLWmVuQQJZ_11deacon_core6dockerNtBa_9CliDockerNtBa_6Docker15list_containers00s_0CsgueokGkgs2b_6deacon
FN:533,_RNCNCNCNvXs_NtCshLLWmVuQQJZ_11deacon_core6dockerNtBa_9CliDockerNtBa_6Docker17inspect_container000CsgueokGkgs2b_6deacon
FN:604,_RNCNCNCNvXs_NtCshLLWmVuQQJZ_11deacon_core6dockerNtBa_9CliDockerNtBa_6Docker17inspect_container00s_0CsgueokGkgs2b_6deacon
FN:620,_RNCNCNCNvXs_NtCshLLWmVuQQJZ_11deacon_core6dockerNtBa_9CliDockerNtBa_6Docker4exec000CsgueokGkgs2b_6deacon
FN:691,_RNCNCNCNvXs_NtCshLLWmVuQQJZ_11deacon_core6dockerNtBa_9CliDockerNtBa_6Docker4exec00s_0CsgueokGkgs2b_6deacon
FN:414,_RNCNCNCNvXs_NtCshLLWmVuQQJZ_11deacon_core6dockerNtBa_9CliDockerNtBa_6Docker4ping000CsgueokGkgs2b_6deacon
FN:440,_RNCNCNCNvXs_NtCshLLWmVuQQJZ_11deacon_core6dockerNtBa_9CliDockerNtBa_6Docker4ping00s_0CsgueokGkgs2b_6deacon
FN:800,_RNCNvXs0_NtCshLLWmVuQQJZ_11deacon_core6dockerNtB7_9CliDockerNtNtB9_9container12ContainerOps15start_container0CsgueokGkgs2b_6deacon
FN:716,_RNCNvXs0_NtCshLLWmVuQQJZ_11deacon_core6dockerNtB7_9CliDockerNtNtB9_9container12ContainerOps16create_container0CsgueokGkgs2b_6deacon
FN:828,_RNCNvXs0_NtCshLLWmVuQQJZ_11deacon_core6dockerNtB7_9CliDockerNtNtB9_9container12ContainerOps16remove_container0CsgueokGkgs2b_6deacon
FN:856,_RNCNvXs0_NtCshLLWmVuQQJZ_11deacon_core6dockerNtB7_9CliDockerNtNtB9_9container12ContainerOps19get_container_image0CsgueokGkgs2b_6deacon
FN:698,_RNCNvXs0_NtCshLLWmVuQQJZ_11deacon_core6dockerNtB7_9CliDockerNtNtB9_9container12ContainerOps24find_matching_containers0CsgueokGkgs2b_6deacon
FN:899,_RNCNvXs1_NtCshLLWmVuQQJZ_11deacon_core6dockerNtB7_9CliDockerNtB7_15DockerLifecycle2up0CsgueokGkgs2b_6deacon
FN:444,_RNCNvXs_NtCshLLWmVuQQJZ_11deacon_core6dockerNtB6_9CliDockerNtB6_6Docker15list_containers0CsgueokGkgs2b_6deacon
FN:527,_RNCNvXs_NtCshLLWmVuQQJZ_11deacon_core6dockerNtB6_9CliDockerNtB6_6Docker17inspect_container0CsgueokGkgs2b_6deacon
FN:613,_RNCNvXs_NtCshLLWmVuQQJZ_11deacon_core6dockerNtB6_9CliDockerNtB6_6Docker4exec0CsgueokGkgs2b_6deacon
FN:408,_RNCNvXs_NtCshLLWmVuQQJZ_11deacon_core6dockerNtB6_9CliDockerNtB6_6Docker4ping0CsgueokGkgs2b_6deacon
FN:159,_RNCNvMNtCshLLWmVuQQJZ_11deacon_core6dockerNtB4_9CliDocker19parse_exposed_ports0B6_
FN:160,_RNCNvMNtCshLLWmVuQQJZ_11deacon_core6dockerNtB4_9CliDocker19parse_exposed_portss_0B6_
FN:183,_RNCNvMNtCshLLWmVuQQJZ_11deacon_core6dockerNtB4_9CliDocker19parse_port_mappings0B6_
FN:192,_RNCNvMNtCshLLWmVuQQJZ_11deacon_core6dockerNtB4_9CliDocker19parse_port_mappingss0_0B6_
FN:193,_RNCNvMNtCshLLWmVuQQJZ_11deacon_core6dockerNtB4_9CliDocker19parse_port_mappingss1_0B6_
FN:184,_RNCNvMNtCshLLWmVuQQJZ_11deacon_core6dockerNtB4_9CliDocker19parse_port_mappingss_0B6_
FN:154,_RNvMNtCshLLWmVuQQJZ_11deacon_core6dockerNtB2_9CliDocker19parse_exposed_ports
FN:178,_RNvMNtCshLLWmVuQQJZ_11deacon_core6dockerNtB2_9CliDocker19parse_port_mappings
FN:216,_RNvMNtCshLLWmVuQQJZ_11deacon_core6dockerNtB2_9CliDocker22check_docker_installed
FN:142,_RNvMNtCshLLWmVuQQJZ_11deacon_core6dockerNtB2_9CliDocker3new
FN:327,_RNvMNtCshLLWmVuQQJZ_11deacon_core6dockerNtB2_9CliDocker6is_tty
FN:149,_RNvMNtCshLLWmVuQQJZ_11deacon_core6dockerNtB2_9CliDocker9with_path
FN:800,_RNvXs0_NtCshLLWmVuQQJZ_11deacon_core6dockerNtB5_9CliDockerNtNtB7_9container12ContainerOps15start_container
FN:711,_RNvXs0_NtCshLLWmVuQQJZ_11deacon_core6dockerNtB5_9CliDockerNtNtB7_9container12ContainerOps16create_container
FN:828,_RNvXs0_NtCshLLWmVuQQJZ_11deacon_core6dockerNtB5_9CliDockerNtNtB7_9container12ContainerOps16remove_container
FN:856,_RNvXs0_NtCshLLWmVuQQJZ_11deacon_core6dockerNtB5_9CliDockerNtNtB7_9container12ContainerOps19get_container_image
FN:698,_RNvXs0_NtCshLLWmVuQQJZ_11deacon_core6dockerNtB5_9CliDockerNtNtB7_9container12ContainerOps24find_matching_containers
FN:893,_RNvXs1_NtCshLLWmVuQQJZ_11deacon_core6dockerNtB5_9CliDockerNtB5_15DockerLifecycle2up
FN:444,_RNvXs_NtCshLLWmVuQQJZ_11deacon_core6dockerNtB4_9CliDockerNtB4_6Docker15list_containers
FN:527,_RNvXs_NtCshLLWmVuQQJZ_11deacon_core6dockerNtB4_9CliDockerNtB4_6Docker17inspect_container
FN:608,_RNvXs_NtCshLLWmVuQQJZ_11deacon_core6dockerNtB4_9CliDockerNtB4_6Docker4exec
FN:408,_RNvXs_NtCshLLWmVuQQJZ_11deacon_core6dockerNtB4_9CliDockerNtB4_6Docker4ping
FN:810,_RNCNCNCNCNvXs0_NtCshLLWmVuQQJZ_11deacon_core6dockerNtBd_9CliDockerNtNtBf_9container12ContainerOps15start_container0000Bf_
FN:776,_RNCNCNCNCNvXs0_NtCshLLWmVuQQJZ_11deacon_core6dockerNtBd_9CliDockerNtNtBf_9container12ContainerOps16create_container00s0_00Bf_
FN:786,_RNCNCNCNCNvXs0_NtCshLLWmVuQQJZ_11deacon_core6dockerNtBd_9CliDockerNtNtBf_9container12ContainerOps16create_container00s0_0s_0Bf_
FN:838,_RNCNCNCNCNvXs0_NtCshLLWmVuQQJZ_11deacon_core6dockerNtBd_9CliDockerNtNtBf_9container12ContainerOps16remove_container0000Bf_
FN:866,_RNCNCNCNCNvXs0_NtCshLLWmVuQQJZ_11deacon_core6dockerNtBd_9CliDockerNtNtBf_9container12ContainerOps19get_container_image0000Bf_
FN:878,_RNCNCNCNCNvXs0_NtCshLLWmVuQQJZ_11deacon_core6dockerNtBd_9CliDockerNtNtBf_9container12ContainerOps19get_container_image000s_0Bf_
FN:466,_RNCNCNCNCNvXs_NtCshLLWmVuQQJZ_11deacon_core6dockerNtBc_9CliDockerNtBc_6Docker15list_containers00s_00Be_
FN:484,_RNCNCNCNCNvXs_NtCshLLWmVuQQJZ_11deacon_core6dockerNtBc_9CliDockerNtBc_6Docker15list_containers00s_0s0_0Be_
FN:491,_RNCNCNCNCNvXs_NtCshLLWmVuQQJZ_11deacon_core6dockerNtBc_9CliDockerNtBc_6Docker15list_containers00s_0s1_0Be_
FN:496,_RNCNCNCNCNvXs_NtCshLLWmVuQQJZ_11deacon_core6dockerNtBc_9CliDockerNtBc_6Docker15list_containers00s_0s2_0Be_
FN:497,_RNCNCNCNCNvXs_NtCshLLWmVuQQJZ_11deacon_core6dockerNtBc_9CliDockerNtBc_6Docker15list_containers00s_0s3_0Be_
FN:501,_RNCNCNCNCNvXs_NtCshLLWmVuQQJZ_11deacon_core6dockerNtBc_9CliDockerNtBc_6Docker15list_containers00s_0s4_0Be_
FN:506,_RNCNCNCNCNvXs_NtCshLLWmVuQQJZ_11deacon_core6dockerNtBc_9CliDockerNtBc_6Docker15list_containers00s_0s5_0Be_
FN:511,_RNCNCNCNCNvXs_NtCshLLWmVuQQJZ_11deacon_core6dockerNtBc_9CliDockerNtBc_6Docker15list_containers00s_0s6_0Be_
FN:473,_RNCNCNCNCNvXs_NtCshLLWmVuQQJZ_11deacon_core6dockerNtBc_9CliDockerNtBc_6Docker15list_containers00s_0s_0Be_
FN:537,_RNCNCNCNCNvXs_NtCshLLWmVuQQJZ_11deacon_core6dockerNtBc_9CliDockerNtBc_6Docker17inspect_container0000Be_
FN:556,_RNCNCNCNCNvXs_NtCshLLWmVuQQJZ_11deacon_core6dockerNtBc_9CliDockerNtBc_6Docker17inspect_container000s0_0Be_
FN:571,_RNCNCNCNCNvXs_NtCshLLWmVuQQJZ_11deacon_core6dockerNtBc_9CliDockerNtBc_6Docker17inspect_container000s1_0Be_
FN:576,_RNCNCNCNCNvXs_NtCshLLWmVuQQJZ_11deacon_core6dockerNtBc_9CliDockerNtBc_6Docker17inspect_container000s2_0Be_
FN:577,_RNCNCNCNCNvXs_NtCshLLWmVuQQJZ_11deacon_core6dockerNtBc_9CliDockerNtBc_6Docker17inspect_container000s3_0Be_
FN:581,_RNCNCNCNCNvXs_NtCshLLWmVuQQJZ_11deacon_core6dockerNtBc_9CliDockerNtBc_6Docker17inspect_container000s4_0Be_
FN:582,_RNCNCNCNCNvXs_NtCshLLWmVuQQJZ_11deacon_core6dockerNtBc_9CliDockerNtBc_6Docker17inspect_container000s5_0Be_
FN:587,_RNCNCNCNCNvXs_NtCshLLWmVuQQJZ_11deacon_core6dockerNtBc_9CliDockerNtBc_6Docker17inspect_container000s6_0Be_
FN:588,_RNCNCNCNCNvXs_NtCshLLWmVuQQJZ_11deacon_core6dockerNtBc_9CliDockerNtBc_6Docker17inspect_container000s7_0Be_
FN:593,_RNCNCNCNCNvXs_NtCshLLWmVuQQJZ_11deacon_core6dockerNtBc_9CliDockerNtBc_6Docker17inspect_container000s8_0Be_
FN:594,_RNCNCNCNCNvXs_NtCshLLWmVuQQJZ_11deacon_core6dockerNtBc_9CliDockerNtBc_6Docker17inspect_container000s9_0Be_
FN:551,_RNCNCNCNCNvXs_NtCshLLWmVuQQJZ_11deacon_core6dockerNtBc_9CliDockerNtBc_6Docker17inspect_container000s_0Be_
FN:652,_RNCNCNCNCNvXs_NtCshLLWmVuQQJZ_11deacon_core6dockerNtBc_9CliDockerNtBc_6Docker4exec0000Be_
FN:681,_RNCNCNCNCNvXs_NtCshLLWmVuQQJZ_11deacon_core6dockerNtBc_9CliDockerNtBc_6Docker4exec000s0_0Be_
FN:677,_RNCNCNCNCNvXs_NtCshLLWmVuQQJZ_11deacon_core6dockerNtBc_9CliDockerNtBc_6Docker4exec000s_0Be_
FN:806,_RNCNCNCNvXs0_NtCshLLWmVuQQJZ_11deacon_core6dockerNtBb_9CliDockerNtNtBd_9container12ContainerOps15start_container000Bd_
FN:823,_RNCNCNCNvXs0_NtCshLLWmVuQQJZ_11deacon_core6dockerNtBb_9CliDockerNtNtBd_9container12ContainerOps15start_container00s_0Bd_
FN:739,_RNCNCNCNvXs0_NtCshLLWmVuQQJZ_11deacon_core6dockerNtBb_9CliDockerNtNtBd_9container12ContainerOps16create_container000Bd_
FN:772,_RNCNCNCNvXs0_NtCshLLWmVuQQJZ_11deacon_core6dockerNtBb_9CliDockerNtNtBd_9container12ContainerOps16create_container00s0_0Bd_
FN:793,_RNCNCNCNvXs0_NtCshLLWmVuQQJZ_11deacon_core6dockerNtBb_9CliDockerNtNtBd_9container12ContainerOps16create_container00s1_0Bd_
FN:748,_RNCNCNCNvXs0_NtCshLLWmVuQQJZ_11deacon_core6dockerNtBb_9CliDockerNtNtBd_9container12ContainerOps16create_container00s3_0Bd_
FN:765,_RNCNCNCNvXs0_NtCshLLWmVuQQJZ_11deacon_core6dockerNtBb_9CliDockerNtNtBd_9container12ContainerOps16create_container00s_0Bd_
FN:834,_RNCNCNCNvXs0_NtCshLLWmVuQQJZ_11deacon_core6dockerNtBb_9CliDockerNtNtBd_9container12ContainerOps16remove_container000Bd_
FN:851,_RNCNCNCNvXs0_NtCshLLWmVuQQJZ_11deacon_core6dockerNtBb_9CliDockerNtNtBd_9container12ContainerOps16remove_container00s_0Bd_
FN:862,_RNCNCNCNvXs0_NtCshLLWmVuQQJZ_11deacon_core6dockerNtBb_9CliDockerNtNtBd_9container12ContainerOps19get_container_image000Bd_
FN:885,_RNCNCNCNvXs0_NtCshLLWmVuQQJZ_11deacon_core6dockerNtBb_9CliDockerNtNtBd_9container12ContainerOps19get_container_image00s_0Bd_
FN:451,_RNCNCNCNvXs_NtCshLLWmVuQQJZ_11deacon_core6dockerNtBa_9CliDockerNtBa_6Docker15list_containers000Bc_
FN:523,_RNCNCNCNvXs_NtCshLLWmVuQQJZ_11deacon_core6dockerNtBa_9CliDockerNtBa_6Docker15list_containers00s0_0Bc_
FN:453,_RNCNCNCNvXs_NtCshLLWmVuQQJZ_11deacon_core6dockerNtBa_9CliDockerNtBa_6Docker15list_containers00s_0Bc_
FN:533,_RNCNCNCNvXs_NtCshLLWmVuQQJZ_11deacon_core6dockerNtBa_9CliDockerNtBa_6Docker17inspect_container000Bc_
FN:604,_RNCNCNCNvXs_NtCshLLWmVuQQJZ_11deacon_core6dockerNtBa_9CliDockerNtBa_6Docker17inspect_container00s_0Bc_
FN:620,_RNCNCNCNvXs_NtCshLLWmVuQQJZ_11deacon_core6dockerNtBa_9CliDockerNtBa_6Docker4exec000Bc_
FN:691,_RNCNCNCNvXs_NtCshLLWmVuQQJZ_11deacon_core6dockerNtBa_9CliDockerNtBa_6Docker4exec00s_0Bc_
FN:414,_RNCNCNCNvXs_NtCshLLWmVuQQJZ_11deacon_core6dockerNtBa_9CliDockerNtBa_6Docker4ping000Bc_
FN:440,_RNCNCNCNvXs_NtCshLLWmVuQQJZ_11deacon_core6dockerNtBa_9CliDockerNtBa_6Docker4ping00s_0Bc_
FN:299,_RNCNCNvMNtCshLLWmVuQQJZ_11deacon_core6dockerNtB6_9CliDocker20parse_container_lists1_00B8_
FN:257,_RNCNvMNtCshLLWmVuQQJZ_11deacon_core6dockerNtB4_9CliDocker14execute_docker0B6_
FN:267,_RNCNvMNtCshLLWmVuQQJZ_11deacon_core6dockerNtB4_9CliDocker14execute_dockers_0B6_
FN:284,_RNCNvMNtCshLLWmVuQQJZ_11deacon_core6dockerNtB4_9CliDocker20parse_container_list0B6_
FN:298,_RNCNvMNtCshLLWmVuQQJZ_11deacon_core6dockerNtB4_9CliDocker20parse_container_lists0_0B6_
FN:299,_RNCNvMNtCshLLWmVuQQJZ_11deacon_core6dockerNtB4_9CliDocker20parse_container_lists1_0B6_
FN:303,_RNCNvMNtCshLLWmVuQQJZ_11deacon_core6dockerNtB4_9CliDocker20parse_container_lists2_0B6_
FN:308,_RNCNvMNtCshLLWmVuQQJZ_11deacon_core6dockerNtB4_9CliDocker20parse_container_lists3_0B6_
FN:313,_RNCNvMNtCshLLWmVuQQJZ_11deacon_core6dockerNtB4_9CliDocker20parse_container_lists4_0B6_
FN:293,_RNCNvMNtCshLLWmVuQQJZ_11deacon_core6dockerNtB4_9CliDocker20parse_container_lists_0B6_
FN:358,_RNCNvMNtCshLLWmVuQQJZ_11deacon_core6dockerNtB4_9CliDocker23parse_container_inspect0B6_
FN:376,_RNCNvMNtCshLLWmVuQQJZ_11deacon_core6dockerNtB4_9CliDocker23parse_container_inspects0_0B6_
FN:377,_RNCNvMNtCshLLWmVuQQJZ_11deacon_core6dockerNtB4_9CliDocker23parse_container_inspects1_0B6_
FN:381,_RNCNvMNtCshLLWmVuQQJZ_11deacon_core6dockerNtB4_9CliDocker23parse_container_inspects2_0B6_
FN:382,_RNCNvMNtCshLLWmVuQQJZ_11deacon_core6dockerNtB4_9CliDocker23parse_container_inspects3_0B6_
FN:387,_RNCNvMNtCshLLWmVuQQJZ_11deacon_core6dockerNtB4_9CliDocker23parse_container_inspects4_0B6_
FN:388,_RNCNvMNtCshLLWmVuQQJZ_11deacon_core6dockerNtB4_9CliDocker23parse_container_inspects5_0B6_
FN:393,_RNCNvMNtCshLLWmVuQQJZ_11deacon_core6dockerNtB4_9CliDocker23parse_container_inspects6_0B6_
FN:394,_RNCNvMNtCshLLWmVuQQJZ_11deacon_core6dockerNtB4_9CliDocker23parse_container_inspects7_0B6_
FN:371,_RNCNvMNtCshLLWmVuQQJZ_11deacon_core6dockerNtB4_9CliDocker23parse_container_inspects_0B6_
FN:800,_RNCNvXs0_NtCshLLWmVuQQJZ_11deacon_core6dockerNtB7_9CliDockerNtNtB9_9container12ContainerOps15start_container0B9_
FN:716,_RNCNvXs0_NtCshLLWmVuQQJZ_11deacon_core6dockerNtB7_9CliDockerNtNtB9_9container12ContainerOps16create_container0B9_
FN:828,_RNCNvXs0_NtCshLLWmVuQQJZ_11deacon_core6dockerNtB7_9CliDockerNtNtB9_9container12ContainerOps16remove_container0B9_
FN:856,_RNCNvXs0_NtCshLLWmVuQQJZ_11deacon_core6dockerNtB7_9CliDockerNtNtB9_9container12ContainerOps19get_container_image0B9_
FN:698,_RNCNvXs0_NtCshLLWmVuQQJZ_11deacon_core6dockerNtB7_9CliDockerNtNtB9_9container12ContainerOps24find_matching_containers0B9_
FN:899,_RNCNvXs1_NtCshLLWmVuQQJZ_11deacon_core6dockerNtB7_9CliDockerNtB7_15DockerLifecycle2up0B9_
FN:444,_RNCNvXs_NtCshLLWmVuQQJZ_11deacon_core6dockerNtB6_9CliDockerNtB6_6Docker15list_containers0B8_
FN:527,_RNCNvXs_NtCshLLWmVuQQJZ_11deacon_core6dockerNtB6_9CliDockerNtB6_6Docker17inspect_container0B8_
FN:613,_RNCNvXs_NtCshLLWmVuQQJZ_11deacon_core6dockerNtB6_9CliDockerNtB6_6Docker4exec0B8_
FN:408,_RNCNvXs_NtCshLLWmVuQQJZ_11deacon_core6dockerNtB6_9CliDockerNtB6_6Docker4ping0B8_
FN:247,_RNvMNtCshLLWmVuQQJZ_11deacon_core6dockerNtB2_9CliDocker14execute_docker
FN:334,_RNvMNtCshLLWmVuQQJZ_11deacon_core6dockerNtB2_9CliDocker14parse_env_vars
FN:274,_RNvMNtCshLLWmVuQQJZ_11deacon_core6dockerNtB2_9CliDocker20parse_container_list
FN:352,_RNvMNtCshLLWmVuQQJZ_11deacon_core6dockerNtB2_9CliDocker23parse_container_inspect
FN:810,_RNCNCNCNCNvXs0_NtCs1G9XuckPzNo_11deacon_core6dockerNtBd_9CliDockerNtNtBf_9container12ContainerOps15start_container0000Bf_
FN:776,_RNCNCNCNCNvXs0_NtCs1G9XuckPzNo_11deacon_core6dockerNtBd_9CliDockerNtNtBf_9container12ContainerOps16create_container00s0_00Bf_
FN:786,_RNCNCNCNCNvXs0_NtCs1G9XuckPzNo_11deacon_core6dockerNtBd_9CliDockerNtNtBf_9container12ContainerOps16create_container00s0_0s_0Bf_
FN:838,_RNCNCNCNCNvXs0_NtCs1G9XuckPzNo_11deacon_core6dockerNtBd_9CliDockerNtNtBf_9container12ContainerOps16remove_container0000Bf_
FN:866,_RNCNCNCNCNvXs0_NtCs1G9XuckPzNo_11deacon_core6dockerNtBd_9CliDockerNtNtBf_9container12ContainerOps19get_container_image0000Bf_
FN:878,_RNCNCNCNCNvXs0_NtCs1G9XuckPzNo_11deacon_core6dockerNtBd_9CliDockerNtNtBf_9container12ContainerOps19get_container_image000s_0Bf_
FN:466,_RNCNCNCNCNvXs_NtCs1G9XuckPzNo_11deacon_core6dockerNtBc_9CliDockerNtBc_6Docker15list_containers00s_00Be_
FN:484,_RNCNCNCNCNvXs_NtCs1G9XuckPzNo_11deacon_core6dockerNtBc_9CliDockerNtBc_6Docker15list_containers00s_0s0_0Be_
FN:491,_RNCNCNCNCNvXs_NtCs1G9XuckPzNo_11deacon_core6dockerNtBc_9CliDockerNtBc_6Docker15list_containers00s_0s1_0Be_
FN:496,_RNCNCNCNCNvXs_NtCs1G9XuckPzNo_11deacon_core6dockerNtBc_9CliDockerNtBc_6Docker15list_containers00s_0s2_0Be_
FN:497,_RNCNCNCNCNvXs_NtCs1G9XuckPzNo_11deacon_core6dockerNtBc_9CliDockerNtBc_6Docker15list_containers00s_0s3_0Be_
FN:501,_RNCNCNCNCNvXs_NtCs1G9XuckPzNo_11deacon_core6dockerNtBc_9CliDockerNtBc_6Docker15list_containers00s_0s4_0Be_
FN:506,_RNCNCNCNCNvXs_NtCs1G9XuckPzNo_11deacon_core6dockerNtBc_9CliDockerNtBc_6Docker15list_containers00s_0s5_0Be_
FN:511,_RNCNCNCNCNvXs_NtCs1G9XuckPzNo_11deacon_core6dockerNtBc_9CliDockerNtBc_6Docker15list_containers00s_0s6_0Be_
FN:473,_RNCNCNCNCNvXs_NtCs1G9XuckPzNo_11deacon_core6dockerNtBc_9CliDockerNtBc_6Docker15list_containers00s_0s_0Be_
FN:537,_RNCNCNCNCNvXs_NtCs1G9XuckPzNo_11deacon_core6dockerNtBc_9CliDockerNtBc_6Docker17inspect_container0000Be_
FN:556,_RNCNCNCNCNvXs_NtCs1G9XuckPzNo_11deacon_core6dockerNtBc_9CliDockerNtBc_6Docker17inspect_container000s0_0Be_
FN:571,_RNCNCNCNCNvXs_NtCs1G9XuckPzNo_11deacon_core6dockerNtBc_9CliDockerNtBc_6Docker17inspect_container000s1_0Be_
FN:576,_RNCNCNCNCNvXs_NtCs1G9XuckPzNo_11deacon_core6dockerNtBc_9CliDockerNtBc_6Docker17inspect_container000s2_0Be_
FN:577,_RNCNCNCNCNvXs_NtCs1G9XuckPzNo_11deacon_core6dockerNtBc_9CliDockerNtBc_6Docker17inspect_container000s3_0Be_
FN:581,_RNCNCNCNCNvXs_NtCs1G9XuckPzNo_11deacon_core6dockerNtBc_9CliDockerNtBc_6Docker17inspect_container000s4_0Be_
FN:582,_RNCNCNCNCNvXs_NtCs1G9XuckPzNo_11deacon_core6dockerNtBc_9CliDockerNtBc_6Docker17inspect_container000s5_0Be_
FN:587,_RNCNCNCNCNvXs_NtCs1G9XuckPzNo_11deacon_core6dockerNtBc_9CliDockerNtBc_6Docker17inspect_container000s6_0Be_
FN:588,_RNCNCNCNCNvXs_NtCs1G9XuckPzNo_11deacon_core6dockerNtBc_9CliDockerNtBc_6Docker17inspect_container000s7_0Be_
FN:593,_RNCNCNCNCNvXs_NtCs1G9XuckPzNo_11deacon_core6dockerNtBc_9CliDockerNtBc_6Docker17inspect_container000s8_0Be_
FN:594,_RNCNCNCNCNvXs_NtCs1G9XuckPzNo_11deacon_core6dockerNtBc_9CliDockerNtBc_6Docker17inspect_container000s9_0Be_
FN:551,_RNCNCNCNCNvXs_NtCs1G9XuckPzNo_11deacon_core6dockerNtBc_9CliDockerNtBc_6Docker17inspect_container000s_0Be_
FN:652,_RNCNCNCNCNvXs_NtCs1G9XuckPzNo_11deacon_core6dockerNtBc_9CliDockerNtBc_6Docker4exec0000Be_
FN:681,_RNCNCNCNCNvXs_NtCs1G9XuckPzNo_11deacon_core6dockerNtBc_9CliDockerNtBc_6Docker4exec000s0_0Be_
FN:677,_RNCNCNCNCNvXs_NtCs1G9XuckPzNo_11deacon_core6dockerNtBc_9CliDockerNtBc_6Docker4exec000s_0Be_
FN:806,_RNCNCNCNvXs0_NtCs1G9XuckPzNo_11deacon_core6dockerNtBb_9CliDockerNtNtBd_9container12ContainerOps15start_container000Bd_
FN:823,_RNCNCNCNvXs0_NtCs1G9XuckPzNo_11deacon_core6dockerNtBb_9CliDockerNtNtBd_9container12ContainerOps15start_container00s_0Bd_
FN:739,_RNCNCNCNvXs0_NtCs1G9XuckPzNo_11deacon_core6dockerNtBb_9CliDockerNtNtBd_9container12ContainerOps16create_container000Bd_
FN:772,_RNCNCNCNvXs0_NtCs1G9XuckPzNo_11deacon_core6dockerNtBb_9CliDockerNtNtBd_9container12ContainerOps16create_container00s0_0Bd_
FN:793,_RNCNCNCNvXs0_NtCs1G9XuckPzNo_11deacon_core6dockerNtBb_9CliDockerNtNtBd_9container12ContainerOps16create_container00s1_0Bd_
FN:748,_RNCNCNCNvXs0_NtCs1G9XuckPzNo_11deacon_core6dockerNtBb_9CliDockerNtNtBd_9container12ContainerOps16create_container00s3_0Bd_
FN:765,_RNCNCNCNvXs0_NtCs1G9XuckPzNo_11deacon_core6dockerNtBb_9CliDockerNtNtBd_9container12ContainerOps16create_container00s_0Bd_
FN:834,_RNCNCNCNvXs0_NtCs1G9XuckPzNo_11deacon_core6dockerNtBb_9CliDockerNtNtBd_9container12ContainerOps16remove_container000Bd_
FN:851,_RNCNCNCNvXs0_NtCs1G9XuckPzNo_11deacon_core6dockerNtBb_9CliDockerNtNtBd_9container12ContainerOps16remove_container00s_0Bd_
FN:862,_RNCNCNCNvXs0_NtCs1G9XuckPzNo_11deacon_core6dockerNtBb_9CliDockerNtNtBd_9container12ContainerOps19get_container_image000Bd_
FN:885,_RNCNCNCNvXs0_NtCs1G9XuckPzNo_11deacon_core6dockerNtBb_9CliDockerNtNtBd_9container12ContainerOps19get_container_image00s_0Bd_
FN:451,_RNCNCNCNvXs_NtCs1G9XuckPzNo_11deacon_core6dockerNtBa_9CliDockerNtBa_6Docker15list_containers000Bc_
FN:523,_RNCNCNCNvXs_NtCs1G9XuckPzNo_11deacon_core6dockerNtBa_9CliDockerNtBa_6Docker15list_containers00s0_0Bc_
FN:453,_RNCNCNCNvXs_NtCs1G9XuckPzNo_11deacon_core6dockerNtBa_9CliDockerNtBa_6Docker15list_containers00s_0Bc_
FN:533,_RNCNCNCNvXs_NtCs1G9XuckPzNo_11deacon_core6dockerNtBa_9CliDockerNtBa_6Docker17inspect_container000Bc_
FN:604,_RNCNCNCNvXs_NtCs1G9XuckPzNo_11deacon_core6dockerNtBa_9CliDockerNtBa_6Docker17inspect_container00s_0Bc_
FN:620,_RNCNCNCNvXs_NtCs1G9XuckPzNo_11deacon_core6dockerNtBa_9CliDockerNtBa_6Docker4exec000Bc_
FN:691,_RNCNCNCNvXs_NtCs1G9XuckPzNo_11deacon_core6dockerNtBa_9CliDockerNtBa_6Docker4exec00s_0Bc_
FN:414,_RNCNCNCNvXs_NtCs1G9XuckPzNo_11deacon_core6dockerNtBa_9CliDockerNtBa_6Docker4ping000Bc_
FN:440,_RNCNCNCNvXs_NtCs1G9XuckPzNo_11deacon_core6dockerNtBa_9CliDockerNtBa_6Docker4ping00s_0Bc_
FN:257,_RNCNvMNtCs1G9XuckPzNo_11deacon_core6dockerNtB4_9CliDocker14execute_docker0B6_
FN:267,_RNCNvMNtCs1G9XuckPzNo_11deacon_core6dockerNtB4_9CliDocker14execute_dockers_0B6_
FN:800,_RNCNvXs0_NtCs1G9XuckPzNo_11deacon_core6dockerNtB7_9CliDockerNtNtB9_9container12ContainerOps15start_container0B9_
FN:716,_RNCNvXs0_NtCs1G9XuckPzNo_11deacon_core6dockerNtB7_9CliDockerNtNtB9_9container12ContainerOps16create_container0B9_
FN:828,_RNCNvXs0_NtCs1G9XuckPzNo_11deacon_core6dockerNtB7_9CliDockerNtNtB9_9container12ContainerOps16remove_container0B9_
FN:856,_RNCNvXs0_NtCs1G9XuckPzNo_11deacon_core6dockerNtB7_9CliDockerNtNtB9_9container12ContainerOps19get_container_image0B9_
FN:698,_RNCNvXs0_NtCs1G9XuckPzNo_11deacon_core6dockerNtB7_9CliDockerNtNtB9_9container12ContainerOps24find_matching_containers0B9_
FN:899,_RNCNvXs1_NtCs1G9XuckPzNo_11deacon_core6dockerNtB7_9CliDockerNtB7_15DockerLifecycle2up0B9_
FN:444,_RNCNvXs_NtCs1G9XuckPzNo_11deacon_core6dockerNtB6_9CliDockerNtB6_6Docker15list_containers0B8_
FN:527,_RNCNvXs_NtCs1G9XuckPzNo_11deacon_core6dockerNtB6_9CliDockerNtB6_6Docker17inspect_container0B8_
FN:613,_RNCNvXs_NtCs1G9XuckPzNo_11deacon_core6dockerNtB6_9CliDockerNtB6_6Docker4exec0B8_
FN:408,_RNCNvXs_NtCs1G9XuckPzNo_11deacon_core6dockerNtB6_9CliDockerNtB6_6Docker4ping0B8_
FN:247,_RNvMNtCs1G9XuckPzNo_11deacon_core6dockerNtB2_9CliDocker14execute_docker
FN:334,_RNvMNtCs1G9XuckPzNo_11deacon_core6dockerNtB2_9CliDocker14parse_env_vars
FN:216,_RNvMNtCs1G9XuckPzNo_11deacon_core6dockerNtB2_9CliDocker22check_docker_installed
FN:327,_RNvMNtCs1G9XuckPzNo_11deacon_core6dockerNtB2_9CliDocker6is_tty
FN:800,_RNvXs0_NtCs1G9XuckPzNo_11deacon_core6dockerNtB5_9CliDockerNtNtB7_9container12ContainerOps15start_container
FN:711,_RNvXs0_NtCs1G9XuckPzNo_11deacon_core6dockerNtB5_9CliDockerNtNtB7_9container12ContainerOps16create_container
FN:828,_RNvXs0_NtCs1G9XuckPzNo_11deacon_core6dockerNtB5_9CliDockerNtNtB7_9container12ContainerOps16remove_container
FN:856,_RNvXs0_NtCs1G9XuckPzNo_11deacon_core6dockerNtB5_9CliDockerNtNtB7_9container12ContainerOps19get_container_image
FN:698,_RNvXs0_NtCs1G9XuckPzNo_11deacon_core6dockerNtB5_9CliDockerNtNtB7_9container12ContainerOps24find_matching_containers
FN:893,_RNvXs1_NtCs1G9XuckPzNo_11deacon_core6dockerNtB5_9CliDockerNtB5_15DockerLifecycle2up
FN:444,_RNvXs_NtCs1G9XuckPzNo_11deacon_core6dockerNtB4_9CliDockerNtB4_6Docker15list_containers
FN:527,_RNvXs_NtCs1G9XuckPzNo_11deacon_core6dockerNtB4_9CliDockerNtB4_6Docker17inspect_container
FN:608,_RNvXs_NtCs1G9XuckPzNo_11deacon_core6dockerNtB4_9CliDockerNtB4_6Docker4exec
FN:408,_RNvXs_NtCs1G9XuckPzNo_11deacon_core6dockerNtB4_9CliDockerNtB4_6Docker4ping
FN:299,_RNCNCNvMNtCs1G9XuckPzNo_11deacon_core6dockerNtB6_9CliDocker20parse_container_lists1_00B8_
FN:159,_RNCNvMNtCs1G9XuckPzNo_11deacon_core6dockerNtB4_9CliDocker19parse_exposed_ports0B6_
FN:160,_RNCNvMNtCs1G9XuckPzNo_11deacon_core6dockerNtB4_9CliDocker19parse_exposed_portss_0B6_
FN:183,_RNCNvMNtCs1G9XuckPzNo_11deacon_core6dockerNtB4_9CliDocker19parse_port_mappings0B6_
FN:192,_RNCNvMNtCs1G9XuckPzNo_11deacon_core6dockerNtB4_9CliDocker19parse_port_mappingss0_0B6_
FN:193,_RNCNvMNtCs1G9XuckPzNo_11deacon_core6dockerNtB4_9CliDocker19parse_port_mappingss1_0B6_
FN:184,_RNCNvMNtCs1G9XuckPzNo_11deacon_core6dockerNtB4_9CliDocker19parse_port_mappingss_0B6_
FN:284,_RNCNvMNtCs1G9XuckPzNo_11deacon_core6dockerNtB4_9CliDocker20parse_container_list0B6_
FN:298,_RNCNvMNtCs1G9XuckPzNo_11deacon_core6dockerNtB4_9CliDocker20parse_container_lists0_0B6_
FN:299,_RNCNvMNtCs1G9XuckPzNo_11deacon_core6dockerNtB4_9CliDocker20parse_container_lists1_0B6_
FN:303,_RNCNvMNtCs1G9XuckPzNo_11deacon_core6dockerNtB4_9CliDocker20parse_container_lists2_0B6_
FN:308,_RNCNvMNtCs1G9XuckPzNo_11deacon_core6dockerNtB4_9CliDocker20parse_container_lists3_0B6_
FN:313,_RNCNvMNtCs1G9XuckPzNo_11deacon_core6dockerNtB4_9CliDocker20parse_container_lists4_0B6_
FN:293,_RNCNvMNtCs1G9XuckPzNo_11deacon_core6dockerNtB4_9CliDocker20parse_container_lists_0B6_
FN:358,_RNCNvMNtCs1G9XuckPzNo_11deacon_core6dockerNtB4_9CliDocker23parse_container_inspect0B6_
FN:376,_RNCNvMNtCs1G9XuckPzNo_11deacon_core6dockerNtB4_9CliDocker23parse_container_inspects0_0B6_
FN:377,_RNCNvMNtCs1G9XuckPzNo_11deacon_core6dockerNtB4_9CliDocker23parse_container_inspects1_0B6_
FN:381,_RNCNvMNtCs1G9XuckPzNo_11deacon_core6dockerNtB4_9CliDocker23parse_container_inspects2_0B6_
FN:382,_RNCNvMNtCs1G9XuckPzNo_11deacon_core6dockerNtB4_9CliDocker23parse_container_inspects3_0B6_
FN:387,_RNCNvMNtCs1G9XuckPzNo_11deacon_core6dockerNtB4_9CliDocker23parse_container_inspects4_0B6_
FN:388,_RNCNvMNtCs1G9XuckPzNo_11deacon_core6dockerNtB4_9CliDocker23parse_container_inspects5_0B6_
FN:393,_RNCNvMNtCs1G9XuckPzNo_11deacon_core6dockerNtB4_9CliDocker23parse_container_inspects6_0B6_
FN:394,_RNCNvMNtCs1G9XuckPzNo_11deacon_core6dockerNtB4_9CliDocker23parse_container_inspects7_0B6_
FN:371,_RNCNvMNtCs1G9XuckPzNo_11deacon_core6dockerNtB4_9CliDocker23parse_container_inspects_0B6_
FN:1127,_RNCNvNtNtCs1G9XuckPzNo_11deacon_core6docker5testss_31test_parse_container_with_ports0B7_
FN:1135,_RNCNvNtNtCs1G9XuckPzNo_11deacon_core6docker5testss_31test_parse_container_with_portss0_0B7_
FN:1139,_RNCNvNtNtCs1G9XuckPzNo_11deacon_core6docker5testss_31test_parse_container_with_portss1_0B7_
FN:1131,_RNCNvNtNtCs1G9XuckPzNo_11deacon_core6docker5testss_31test_parse_container_with_portss_0B7_
FN:976,_RNvNtNtCs1G9XuckPzNo_11deacon_core6docker5testss_19test_cli_docker_new
FN:983,_RNvNtNtCs1G9XuckPzNo_11deacon_core6docker5testss_25test_cli_docker_with_path
FN:991,_RNvNtNtCs1G9XuckPzNo_11deacon_core6docker5testss_31test_parse_container_list_empty
FN:1092,_RNvNtNtCs1G9XuckPzNo_11deacon_core6docker5testss_31test_parse_container_with_ports
FN:1061,_RNvNtNtCs1G9XuckPzNo_11deacon_core6docker5testss_33test_container_info_serialization
FN:1027,_RNvNtNtCs1G9XuckPzNo_11deacon_core6docker5testss_34test_parse_container_inspect_empty
FN:1053,_RNvNtNtCs1G9XuckPzNo_11deacon_core6docker5testss_40test_parse_container_inspect_empty_array
FN:999,_RNvNtNtCs1G9XuckPzNo_11deacon_core6docker5testss_42test_parse_container_list_single_container
FN:1035,_RNvNtNtCs1G9XuckPzNo_11deacon_core6docker5testss_45test_parse_container_inspect_single_container
FN:1014,_RNvNtNtCs1G9XuckPzNo_11deacon_core6docker5testss_45test_parse_container_list_multiple_containers
FN:154,_RNvMNtCs1G9XuckPzNo_11deacon_core6dockerNtB2_9CliDocker19parse_exposed_ports
FN:178,_RNvMNtCs1G9XuckPzNo_11deacon_core6dockerNtB2_9CliDocker19parse_port_mappings
FN:274,_RNvMNtCs1G9XuckPzNo_11deacon_core6dockerNtB2_9CliDocker20parse_container_list
FN:352,_RNvMNtCs1G9XuckPzNo_11deacon_core6dockerNtB2_9CliDocker23parse_container_inspect
FN:142,_RNvMNtCs1G9XuckPzNo_11deacon_core6dockerNtB2_9CliDocker3new
FN:149,_RNvMNtCs1G9XuckPzNo_11deacon_core6dockerNtB2_9CliDocker9with_path
FN:652,_RNCNCNCNCNvXs_NtCshLLWmVuQQJZ_11deacon_core6dockerNtBc_9CliDockerNtBc_6Docker4exec0000Cs9OXLKDI7tN3_31integration_container_lifecycle
FN:681,_RNCNCNCNCNvXs_NtCshLLWmVuQQJZ_11deacon_core6dockerNtBc_9CliDockerNtBc_6Docker4exec000s0_0Cs9OXLKDI7tN3_31integration_container_lifecycle
FN:677,_RNCNCNCNCNvXs_NtCshLLWmVuQQJZ_11deacon_core6dockerNtBc_9CliDockerNtBc_6Docker4exec000s_0Cs9OXLKDI7tN3_31integration_container_lifecycle
FN:620,_RNCNCNCNvXs_NtCshLLWmVuQQJZ_11deacon_core6dockerNtBa_9CliDockerNtBa_6Docker4exec000Cs9OXLKDI7tN3_31integration_container_lifecycle
FN:691,_RNCNCNCNvXs_NtCshLLWmVuQQJZ_11deacon_core6dockerNtBa_9CliDockerNtBa_6Docker4exec00s_0Cs9OXLKDI7tN3_31integration_container_lifecycle
FN:613,_RNCNvXs_NtCshLLWmVuQQJZ_11deacon_core6dockerNtB6_9CliDockerNtB6_6Docker4exec0Cs9OXLKDI7tN3_31integration_container_lifecycle
FNDA:0,_RNCNCNCNCNvXs0_NtCshLLWmVuQQJZ_11deacon_core6dockerNtBd_9CliDockerNtNtBf_9container12ContainerOps15start_container0000CsgueokGkgs2b_6deacon
FNDA:0,_RNCNCNCNCNvXs0_NtCshLLWmVuQQJZ_11deacon_core6dockerNtBd_9CliDockerNtNtBf_9container12ContainerOps16create_container00s0_00CsgueokGkgs2b_6deacon
FNDA:0,_RNCNCNCNCNvXs0_NtCshLLWmVuQQJZ_11deacon_core6dockerNtBd_9CliDockerNtNtBf_9container12ContainerOps16create_container00s0_0s_0CsgueokGkgs2b_6deacon
FNDA:0,_RNCNCNCNCNvXs0_NtCshLLWmVuQQJZ_11deacon_core6dockerNtBd_9CliDockerNtNtBf_9container12ContainerOps16remove_container0000CsgueokGkgs2b_6deacon
FNDA:0,_RNCNCNCNCNvXs0_NtCshLLWmVuQQJZ_11deacon_core6dockerNtBd_9CliDockerNtNtBf_9container12ContainerOps19get_container_image0000CsgueokGkgs2b_6deacon
FNDA:0,_RNCNCNCNCNvXs0_NtCshLLWmVuQQJZ_11deacon_core6dockerNtBd_9CliDockerNtNtBf_9container12ContainerOps19get_container_image000s_0CsgueokGkgs2b_6deacon
FNDA:0,_RNCNCNCNCNvXs_NtCshLLWmVuQQJZ_11deacon_core6dockerNtBc_9CliDockerNtBc_6Docker15list_containers00s_00CsgueokGkgs2b_6deacon
FNDA:0,_RNCNCNCNCNvXs_NtCshLLWmVuQQJZ_11deacon_core6dockerNtBc_9CliDockerNtBc_6Docker15list_containers00s_0s0_0CsgueokGkgs2b_6deacon
FNDA:0,_RNCNCNCNCNvXs_NtCshLLWmVuQQJZ_11deacon_core6dockerNtBc_9CliDockerNtBc_6Docker15list_containers00s_0s1_0CsgueokGkgs2b_6deacon
FNDA:0,_RNCNCNCNCNvXs_NtCshLLWmVuQQJZ_11deacon_core6dockerNtBc_9CliDockerNtBc_6Docker15list_containers00s_0s2_0CsgueokGkgs2b_6deacon
FNDA:0,_RNCNCNCNCNvXs_NtCshLLWmVuQQJZ_11deacon_core6dockerNtBc_9CliDockerNtBc_6Docker15list_containers00s_0s3_0CsgueokGkgs2b_6deacon
FNDA:0,_RNCNCNCNCNvXs_NtCshLLWmVuQQJZ_11deacon_core6dockerNtBc_9CliDockerNtBc_6Docker15list_containers00s_0s4_0CsgueokGkgs2b_6deacon
FNDA:0,_RNCNCNCNCNvXs_NtCshLLWmVuQQJZ_11deacon_core6dockerNtBc_9CliDockerNtBc_6Docker15list_containers00s_0s5_0CsgueokGkgs2b_6deacon
FNDA:0,_RNCNCNCNCNvXs_NtCshLLWmVuQQJZ_11deacon_core6dockerNtBc_9CliDockerNtBc_6Docker15list_containers00s_0s6_0CsgueokGkgs2b_6deacon
FNDA:0,_RNCNCNCNCNvXs_NtCshLLWmVuQQJZ_11deacon_core6dockerNtBc_9CliDockerNtBc_6Docker15list_containers00s_0s_0CsgueokGkgs2b_6deacon
FNDA:0,_RNCNCNCNCNvXs_NtCshLLWmVuQQJZ_11deacon_core6dockerNtBc_9CliDockerNtBc_6Docker17inspect_container0000CsgueokGkgs2b_6deacon
FNDA:0,_RNCNCNCNCNvXs_NtCshLLWmVuQQJZ_11deacon_core6dockerNtBc_9CliDockerNtBc_6Docker17inspect_container000s0_0CsgueokGkgs2b_6deacon
FNDA:1,_RNCNCNCNCNvXs_NtCshLLWmVuQQJZ_11deacon_core6dockerNtBc_9CliDockerNtBc_6Docker17inspect_container000s1_0CsgueokGkgs2b_6deacon
FNDA:1,_RNCNCNCNCNvXs_NtCshLLWmVuQQJZ_11deacon_core6dockerNtBc_9CliDockerNtBc_6Docker17inspect_container000s2_0CsgueokGkgs2b_6deacon
FNDA:1,_RNCNCNCNCNvXs_NtCshLLWmVuQQJZ_11deacon_core6dockerNtBc_9CliDockerNtBc_6Docker17inspect_container000s3_0CsgueokGkgs2b_6deacon
FNDA:1,_RNCNCNCNCNvXs_NtCshLLWmVuQQJZ_11deacon_core6dockerNtBc_9CliDockerNtBc_6Docker17inspect_container000s4_0CsgueokGkgs2b_6deacon
FNDA:1,_RNCNCNCNCNvXs_NtCshLLWmVuQQJZ_11deacon_core6dockerNtBc_9CliDockerNtBc_6Docker17inspect_container000s5_0CsgueokGkgs2b_6deacon
FNDA:1,_RNCNCNCNCNvXs_NtCshLLWmVuQQJZ_11deacon_core6dockerNtBc_9CliDockerNtBc_6Docker17inspect_container000s6_0CsgueokGkgs2b_6deacon
FNDA:1,_RNCNCNCNCNvXs_NtCshLLWmVuQQJZ_11deacon_core6dockerNtBc_9CliDockerNtBc_6Docker17inspect_container000s7_0CsgueokGkgs2b_6deacon
FNDA:1,_RNCNCNCNCNvXs_NtCshLLWmVuQQJZ_11deacon_core6dockerNtBc_9CliDockerNtBc_6Docker17inspect_container000s8_0CsgueokGkgs2b_6deacon
FNDA:1,_RNCNCNCNCNvXs_NtCshLLWmVuQQJZ_11deacon_core6dockerNtBc_9CliDockerNtBc_6Docker17inspect_container000s9_0CsgueokGkgs2b_6deacon
FNDA:0,_RNCNCNCNCNvXs_NtCshLLWmVuQQJZ_11deacon_core6dockerNtBc_9CliDockerNtBc_6Docker17inspect_container000s_0CsgueokGkgs2b_6deacon
FNDA:1,_RNCNCNCNCNvXs_NtCshLLWmVuQQJZ_11deacon_core6dockerNtBc_9CliDockerNtBc_6Docker4exec0000CsgueokGkgs2b_6deacon
FNDA:0,_RNCNCNCNCNvXs_NtCshLLWmVuQQJZ_11deacon_core6dockerNtBc_9CliDockerNtBc_6Docker4exec000s0_0CsgueokGkgs2b_6deacon
FNDA:0,_RNCNCNCNCNvXs_NtCshLLWmVuQQJZ_11deacon_core6dockerNtBc_9CliDockerNtBc_6Docker4exec000s_0CsgueokGkgs2b_6deacon
FNDA:2,_RNCNCNCNvXs0_NtCshLLWmVuQQJZ_11deacon_core6dockerNtBb_9CliDockerNtNtBd_9container12ContainerOps15start_container000CsgueokGkgs2b_6deacon
FNDA:0,_RNCNCNCNvXs0_NtCshLLWmVuQQJZ_11deacon_core6dockerNtBb_9CliDockerNtNtBd_9container12ContainerOps15start_container00s_0CsgueokGkgs2b_6deacon
FNDA:0,_RNCNCNCNvXs0_NtCshLLWmVuQQJZ_11deacon_core6dockerNtBb_9CliDockerNtNtBd_9container12ContainerOps16create_container000CsgueokGkgs2b_6deacon
FNDA:2,_RNCNCNCNvXs0_NtCshLLWmVuQQJZ_11deacon_core6dockerNtBb_9CliDockerNtNtBd_9container12ContainerOps16create_container00s0_0CsgueokGkgs2b_6deacon
FNDA:0,_RNCNCNCNvXs0_NtCshLLWmVuQQJZ_11deacon_core6dockerNtBb_9CliDockerNtNtBd_9container12ContainerOps16create_container00s1_0CsgueokGkgs2b_6deacon
FNDA:2,_RNCNCNCNvXs0_NtCshLLWmVuQQJZ_11deacon_core6dockerNtBb_9CliDockerNtNtBd_9container12ContainerOps16create_container00s3_0CsgueokGkgs2b_6deacon
FNDA:0,_RNCNCNCNvXs0_NtCshLLWmVuQQJZ_11deacon_core6dockerNtBb_9CliDockerNtNtBd_9container12ContainerOps16create_container00s_0CsgueokGkgs2b_6deacon
FNDA:0,_RNCNCNCNvXs0_NtCshLLWmVuQQJZ_11deacon_core6dockerNtBb_9CliDockerNtNtBd_9container12ContainerOps16remove_container000CsgueokGkgs2b_6deacon
FNDA:0,_RNCNCNCNvXs0_NtCshLLWmVuQQJZ_11deacon_core6dockerNtBb_9CliDockerNtNtBd_9container12ContainerOps16remove_container00s_0CsgueokGkgs2b_6deacon
FNDA:2,_RNCNCNCNvXs0_NtCshLLWmVuQQJZ_11deacon_core6dockerNtBb_9CliDockerNtNtBd_9container12ContainerOps19get_container_image000CsgueokGkgs2b_6deacon
FNDA:0,_RNCNCNCNvXs0_NtCshLLWmVuQQJZ_11deacon_core6dockerNtBb_9CliDockerNtNtBd_9container12ContainerOps19get_container_image00s_0CsgueokGkgs2b_6deacon
FNDA:4,_RNCNCNCNvXs_NtCshLLWmVuQQJZ_11deacon_core6dockerNtBa_9CliDockerNtBa_6Docker15list_containers000CsgueokGkgs2b_6deacon
FNDA:0,_RNCNCNCNvXs_NtCshLLWmVuQQJZ_11deacon_core6dockerNtBa_9CliDockerNtBa_6Docker15list_containers00s0_0CsgueokGkgs2b_6deacon
FNDA:4,_RNCNCNCNvXs_NtCshLLWmVuQQJZ_11deacon_core6dockerNtBa_9CliDockerNtBa_6Docker15list_containers00s_0CsgueokGkgs2b_6deacon
FNDA:1,_RNCNCNCNvXs_NtCshLLWmVuQQJZ_11deacon_core6dockerNtBa_9CliDockerNtBa_6Docker17inspect_container000CsgueokGkgs2b_6deacon
FNDA:0,_RNCNCNCNvXs_NtCshLLWmVuQQJZ_11deacon_core6dockerNtBa_9CliDockerNtBa_6Docker17inspect_container00s_0CsgueokGkgs2b_6deacon
FNDA:1,_RNCNCNCNvXs_NtCshLLWmVuQQJZ_11deacon_core6dockerNtBa_9CliDockerNtBa_6Docker4exec000CsgueokGkgs2b_6deacon
FNDA:0,_RNCNCNCNvXs_NtCshLLWmVuQQJZ_11deacon_core6dockerNtBa_9CliDockerNtBa_6Docker4exec00s_0CsgueokGkgs2b_6deacon
FNDA:10,_RNCNCNCNvXs_NtCshLLWmVuQQJZ_11deacon_core6dockerNtBa_9CliDockerNtBa_6Docker4ping000CsgueokGkgs2b_6deacon
FNDA:0,_RNCNCNCNvXs_NtCshLLWmVuQQJZ_11deacon_core6dockerNtBa_9CliDockerNtBa_6Docker4ping00s_0CsgueokGkgs2b_6deacon
FNDA:2,_RNCNvXs0_NtCshLLWmVuQQJZ_11deacon_core6dockerNtB7_9CliDockerNtNtB9_9container12ContainerOps15start_container0CsgueokGkgs2b_6deacon
FNDA:2,_RNCNvXs0_NtCshLLWmVuQQJZ_11deacon_core6dockerNtB7_9CliDockerNtNtB9_9container12ContainerOps16create_container0CsgueokGkgs2b_6deacon
FNDA:0,_RNCNvXs0_NtCshLLWmVuQQJZ_11deacon_core6dockerNtB7_9CliDockerNtNtB9_9container12ContainerOps16remove_container0CsgueokGkgs2b_6deacon
FNDA:2,_RNCNvXs0_NtCshLLWmVuQQJZ_11deacon_core6dockerNtB7_9CliDockerNtNtB9_9container12ContainerOps19get_container_image0CsgueokGkgs2b_6deacon
FNDA:4,_RNCNvXs0_NtCshLLWmVuQQJZ_11deacon_core6dockerNtB7_9CliDockerNtNtB9_9container12ContainerOps24find_matching_containers0CsgueokGkgs2b_6deacon
FNDA:2,_RNCNvXs1_NtCshLLWmVuQQJZ_11deacon_core6dockerNtB7_9CliDockerNtB7_15DockerLifecycle2up0CsgueokGkgs2b_6deacon
FNDA:4,_RNCNvXs_NtCshLLWmVuQQJZ_11deacon_core6dockerNtB6_9CliDockerNtB6_6Docker15list_containers0CsgueokGkgs2b_6deacon
FNDA:1,_RNCNvXs_NtCshLLWmVuQQJZ_11deacon_core6dockerNtB6_9CliDockerNtB6_6Docker17inspect_container0CsgueokGkgs2b_6deacon
FNDA:1,_RNCNvXs_NtCshLLWmVuQQJZ_11deacon_core6dockerNtB6_9CliDockerNtB6_6Docker4exec0CsgueokGkgs2b_6deacon
FNDA:10,_RNCNvXs_NtCshLLWmVuQQJZ_11deacon_core6dockerNtB6_9CliDockerNtB6_6Docker4ping0CsgueokGkgs2b_6deacon
FNDA:1,_RNCNvMNtCshLLWmVuQQJZ_11deacon_core6dockerNtB4_9CliDocker19parse_exposed_ports0B6_
FNDA:0,_RNCNvMNtCshLLWmVuQQJZ_11deacon_core6dockerNtB4_9CliDocker19parse_exposed_portss_0B6_
FNDA:1,_RNCNvMNtCshLLWmVuQQJZ_11deacon_core6dockerNtB4_9CliDocker19parse_port_mappings0B6_
FNDA:0,_RNCNvMNtCshLLWmVuQQJZ_11deacon_core6dockerNtB4_9CliDocker19parse_port_mappingss0_0B6_
FNDA:0,_RNCNvMNtCshLLWmVuQQJZ_11deacon_core6dockerNtB4_9CliDocker19parse_port_mappingss1_0B6_
FNDA:1,_RNCNvMNtCshLLWmVuQQJZ_11deacon_core6dockerNtB4_9CliDocker19parse_port_mappingss_0B6_
FNDA:1,_RNvMNtCshLLWmVuQQJZ_11deacon_core6dockerNtB2_9CliDocker19parse_exposed_ports
FNDA:1,_RNvMNtCshLLWmVuQQJZ_11deacon_core6dockerNtB2_9CliDocker19parse_port_mappings
FNDA:6,_RNvMNtCshLLWmVuQQJZ_11deacon_core6dockerNtB2_9CliDocker22check_docker_installed
FNDA:15,_RNvMNtCshLLWmVuQQJZ_11deacon_core6dockerNtB2_9CliDocker3new
FNDA:0,_RNvMNtCshLLWmVuQQJZ_11deacon_core6dockerNtB2_9CliDocker6is_tty
FNDA:0,_RNvMNtCshLLWmVuQQJZ_11deacon_core6dockerNtB2_9CliDocker9with_path
FNDA:2,_RNvXs0_NtCshLLWmVuQQJZ_11deacon_core6dockerNtB5_9CliDockerNtNtB7_9container12ContainerOps15start_container
FNDA:2,_RNvXs0_NtCshLLWmVuQQJZ_11deacon_core6dockerNtB5_9CliDockerNtNtB7_9container12ContainerOps16create_container
FNDA:0,_RNvXs0_NtCshLLWmVuQQJZ_11deacon_core6dockerNtB5_9CliDockerNtNtB7_9container12ContainerOps16remove_container
FNDA:2,_RNvXs0_NtCshLLWmVuQQJZ_11deacon_core6dockerNtB5_9CliDockerNtNtB7_9container12ContainerOps19get_container_image
FNDA:4,_RNvXs0_NtCshLLWmVuQQJZ_11deacon_core6dockerNtB5_9CliDockerNtNtB7_9container12ContainerOps24find_matching_containers
FNDA:2,_RNvXs1_NtCshLLWmVuQQJZ_11deacon_core6dockerNtB5_9CliDockerNtB5_15DockerLifecycle2up
FNDA:4,_RNvXs_NtCshLLWmVuQQJZ_11deacon_core6dockerNtB4_9CliDockerNtB4_6Docker15list_containers
FNDA:1,_RNvXs_NtCshLLWmVuQQJZ_11deacon_core6dockerNtB4_9CliDockerNtB4_6Docker17inspect_container
FNDA:3,_RNvXs_NtCshLLWmVuQQJZ_11deacon_core6dockerNtB4_9CliDockerNtB4_6Docker4exec
FNDA:10,_RNvXs_NtCshLLWmVuQQJZ_11deacon_core6dockerNtB4_9CliDockerNtB4_6Docker4ping
FNDA:0,_RNCNCNCNCNvXs0_NtCshLLWmVuQQJZ_11deacon_core6dockerNtBd_9CliDockerNtNtBf_9container12ContainerOps15start_container0000Bf_
FNDA:0,_RNCNCNCNCNvXs0_NtCshLLWmVuQQJZ_11deacon_core6dockerNtBd_9CliDockerNtNtBf_9container12ContainerOps16create_container00s0_00Bf_
FNDA:0,_RNCNCNCNCNvXs0_NtCshLLWmVuQQJZ_11deacon_core6dockerNtBd_9CliDockerNtNtBf_9container12ContainerOps16create_container00s0_0s_0Bf_
FNDA:0,_RNCNCNCNCNvXs0_NtCshLLWmVuQQJZ_11deacon_core6dockerNtBd_9CliDockerNtNtBf_9container12ContainerOps16remove_container0000Bf_
FNDA:0,_RNCNCNCNCNvXs0_NtCshLLWmVuQQJZ_11deacon_core6dockerNtBd_9CliDockerNtNtBf_9container12ContainerOps19get_container_image0000Bf_
FNDA:0,_RNCNCNCNCNvXs0_NtCshLLWmVuQQJZ_11deacon_core6dockerNtBd_9CliDockerNtNtBf_9container12ContainerOps19get_container_image000s_0Bf_
FNDA:0,_RNCNCNCNCNvXs_NtCshLLWmVuQQJZ_11deacon_core6dockerNtBc_9CliDockerNtBc_6Docker15list_containers00s_00Be_
FNDA:0,_RNCNCNCNCNvXs_NtCshLLWmVuQQJZ_11deacon_core6dockerNtBc_9CliDockerNtBc_6Docker15list_containers00s_0s0_0Be_
FNDA:0,_RNCNCNCNCNvXs_NtCshLLWmVuQQJZ_11deacon_core6dockerNtBc_9CliDockerNtBc_6Docker15list_containers00s_0s1_0Be_
FNDA:0,_RNCNCNCNCNvXs_NtCshLLWmVuQQJZ_11deacon_core6dockerNtBc_9CliDockerNtBc_6Docker15list_containers00s_0s2_0Be_
FNDA:0,_RNCNCNCNCNvXs_NtCshLLWmVuQQJZ_11deacon_core6dockerNtBc_9CliDockerNtBc_6Docker15list_containers00s_0s3_0Be_
FNDA:0,_RNCNCNCNCNvXs_NtCshLLWmVuQQJZ_11deacon_core6dockerNtBc_9CliDockerNtBc_6Docker15list_containers00s_0s4_0Be_
FNDA:0,_RNCNCNCNCNvXs_NtCshLLWmVuQQJZ_11deacon_core6dockerNtBc_9CliDockerNtBc_6Docker15list_containers00s_0s5_0Be_
FNDA:0,_RNCNCNCNCNvXs_NtCshLLWmVuQQJZ_11deacon_core6dockerNtBc_9CliDockerNtBc_6Docker15list_containers00s_0s6_0Be_
FNDA:0,_RNCNCNCNCNvXs_NtCshLLWmVuQQJZ_11deacon_core6dockerNtBc_9CliDockerNtBc_6Docker15list_containers00s_0s_0Be_
FNDA:0,_RNCNCNCNCNvXs_NtCshLLWmVuQQJZ_11deacon_core6dockerNtBc_9CliDockerNtBc_6Docker17inspect_container0000Be_
FNDA:0,_RNCNCNCNCNvXs_NtCshLLWmVuQQJZ_11deacon_core6dockerNtBc_9CliDockerNtBc_6Docker17inspect_container000s0_0Be_
FNDA:0,_RNCNCNCNCNvXs_NtCshLLWmVuQQJZ_11deacon_core6dockerNtBc_9CliDockerNtBc_6Docker17inspect_container000s1_0Be_
FNDA:0,_RNCNCNCNCNvXs_NtCshLLWmVuQQJZ_11deacon_core6dockerNtBc_9CliDockerNtBc_6Docker17inspect_container000s2_0Be_
FNDA:0,_RNCNCNCNCNvXs_NtCshLLWmVuQQJZ_11deacon_core6dockerNtBc_9CliDockerNtBc_6Docker17inspect_container000s3_0Be_
FNDA:0,_RNCNCNCNCNvXs_NtCshLLWmVuQQJZ_11deacon_core6dockerNtBc_9CliDockerNtBc_6Docker17inspect_container000s4_0Be_
FNDA:0,_RNCNCNCNCNvXs_NtCshLLWmVuQQJZ_11deacon_core6dockerNtBc_9CliDockerNtBc_6Docker17inspect_container000s5_0Be_
FNDA:0,_RNCNCNCNCNvXs_NtCshLLWmVuQQJZ_11deacon_core6dockerNtBc_9CliDockerNtBc_6Docker17inspect_container000s6_0Be_
FNDA:0,_RNCNCNCNCNvXs_NtCshLLWmVuQQJZ_11deacon_core6dockerNtBc_9CliDockerNtBc_6Docker17inspect_container000s7_0Be_
FNDA:0,_RNCNCNCNCNvXs_NtCshLLWmVuQQJZ_11deacon_core6dockerNtBc_9CliDockerNtBc_6Docker17inspect_container000s8_0Be_
FNDA:0,_RNCNCNCNCNvXs_NtCshLLWmVuQQJZ_11deacon_core6dockerNtBc_9CliDockerNtBc_6Docker17inspect_container000s9_0Be_
FNDA:0,_RNCNCNCNCNvXs_NtCshLLWmVuQQJZ_11deacon_core6dockerNtBc_9CliDockerNtBc_6Docker17inspect_container000s_0Be_
FNDA:0,_RNCNCNCNCNvXs_NtCshLLWmVuQQJZ_11deacon_core6dockerNtBc_9CliDockerNtBc_6Docker4exec0000Be_
FNDA:0,_RNCNCNCNCNvXs_NtCshLLWmVuQQJZ_11deacon_core6dockerNtBc_9CliDockerNtBc_6Docker4exec000s0_0Be_
FNDA:0,_RNCNCNCNCNvXs_NtCshLLWmVuQQJZ_11deacon_core6dockerNtBc_9CliDockerNtBc_6Docker4exec000s_0Be_
FNDA:0,_RNCNCNCNvXs0_NtCshLLWmVuQQJZ_11deacon_core6dockerNtBb_9CliDockerNtNtBd_9container12ContainerOps15start_container000Bd_
FNDA:0,_RNCNCNCNvXs0_NtCshLLWmVuQQJZ_11deacon_core6dockerNtBb_9CliDockerNtNtBd_9container12ContainerOps15start_container00s_0Bd_
FNDA:0,_RNCNCNCNvXs0_NtCshLLWmVuQQJZ_11deacon_core6dockerNtBb_9CliDockerNtNtBd_9container12ContainerOps16create_container000Bd_
FNDA:0,_RNCNCNCNvXs0_NtCshLLWmVuQQJZ_11deacon_core6dockerNtBb_9CliDockerNtNtBd_9container12ContainerOps16create_container00s0_0Bd_
FNDA:0,_RNCNCNCNvXs0_NtCshLLWmVuQQJZ_11deacon_core6dockerNtBb_9CliDockerNtNtBd_9container12ContainerOps16create_container00s1_0Bd_
FNDA:0,_RNCNCNCNvXs0_NtCshLLWmVuQQJZ_11deacon_core6dockerNtBb_9CliDockerNtNtBd_9container12ContainerOps16create_container00s3_0Bd_
FNDA:0,_RNCNCNCNvXs0_NtCshLLWmVuQQJZ_11deacon_core6dockerNtBb_9CliDockerNtNtBd_9container12ContainerOps16create_container00s_0Bd_
FNDA:0,_RNCNCNCNvXs0_NtCshLLWmVuQQJZ_11deacon_core6dockerNtBb_9CliDockerNtNtBd_9container12ContainerOps16remove_container000Bd_
FNDA:0,_RNCNCNCNvXs0_NtCshLLWmVuQQJZ_11deacon_core6dockerNtBb_9CliDockerNtNtBd_9container12ContainerOps16remove_container00s_0Bd_
FNDA:0,_RNCNCNCNvXs0_NtCshLLWmVuQQJZ_11deacon_core6dockerNtBb_9CliDockerNtNtBd_9container12ContainerOps19get_container_image000Bd_
FNDA:0,_RNCNCNCNvXs0_NtCshLLWmVuQQJZ_11deacon_core6dockerNtBb_9CliDockerNtNtBd_9container12ContainerOps19get_container_image00s_0Bd_
FNDA:0,_RNCNCNCNvXs_NtCshLLWmVuQQJZ_11deacon_core6dockerNtBa_9CliDockerNtBa_6Docker15list_containers000Bc_
FNDA:0,_RNCNCNCNvXs_NtCshLLWmVuQQJZ_11deacon_core6dockerNtBa_9CliDockerNtBa_6Docker15list_containers00s0_0Bc_
FNDA:0,_RNCNCNCNvXs_NtCshLLWmVuQQJZ_11deacon_core6dockerNtBa_9CliDockerNtBa_6Docker15list_containers00s_0Bc_
FNDA:0,_RNCNCNCNvXs_NtCshLLWmVuQQJZ_11deacon_core6dockerNtBa_9CliDockerNtBa_6Docker17inspect_container000Bc_
FNDA:0,_RNCNCNCNvXs_NtCshLLWmVuQQJZ_11deacon_core6dockerNtBa_9CliDockerNtBa_6Docker17inspect_container00s_0Bc_
FNDA:0,_RNCNCNCNvXs_NtCshLLWmVuQQJZ_11deacon_core6dockerNtBa_9CliDockerNtBa_6Docker4exec000Bc_
FNDA:0,_RNCNCNCNvXs_NtCshLLWmVuQQJZ_11deacon_core6dockerNtBa_9CliDockerNtBa_6Docker4exec00s_0Bc_
FNDA:0,_RNCNCNCNvXs_NtCshLLWmVuQQJZ_11deacon_core6dockerNtBa_9CliDockerNtBa_6Docker4ping000Bc_
FNDA:0,_RNCNCNCNvXs_NtCshLLWmVuQQJZ_11deacon_core6dockerNtBa_9CliDockerNtBa_6Docker4ping00s_0Bc_
FNDA:0,_RNCNCNvMNtCshLLWmVuQQJZ_11deacon_core6dockerNtB6_9CliDocker20parse_container_lists1_00B8_
FNDA:0,_RNCNvMNtCshLLWmVuQQJZ_11deacon_core6dockerNtB4_9CliDocker14execute_docker0B6_
FNDA:0,_RNCNvMNtCshLLWmVuQQJZ_11deacon_core6dockerNtB4_9CliDocker14execute_dockers_0B6_
FNDA:0,_RNCNvMNtCshLLWmVuQQJZ_11deacon_core6dockerNtB4_9CliDocker20parse_container_list0B6_
FNDA:0,_RNCNvMNtCshLLWmVuQQJZ_11deacon_core6dockerNtB4_9CliDocker20parse_container_lists0_0B6_
FNDA:0,_RNCNvMNtCshLLWmVuQQJZ_11deacon_core6dockerNtB4_9CliDocker20parse_container_lists1_0B6_
FNDA:0,_RNCNvMNtCshLLWmVuQQJZ_11deacon_core6dockerNtB4_9CliDocker20parse_container_lists2_0B6_
FNDA:0,_RNCNvMNtCshLLWmVuQQJZ_11deacon_core6dockerNtB4_9CliDocker20parse_container_lists3_0B6_
FNDA:0,_RNCNvMNtCshLLWmVuQQJZ_11deacon_core6dockerNtB4_9CliDocker20parse_container_lists4_0B6_
FNDA:0,_RNCNvMNtCshLLWmVuQQJZ_11deacon_core6dockerNtB4_9CliDocker20parse_container_lists_0B6_
FNDA:0,_RNCNvMNtCshLLWmVuQQJZ_11deacon_core6dockerNtB4_9CliDocker23parse_container_inspect0B6_
FNDA:0,_RNCNvMNtCshLLWmVuQQJZ_11deacon_core6dockerNtB4_9CliDocker23parse_container_inspects0_0B6_
FNDA:0,_RNCNvMNtCshLLWmVuQQJZ_11deacon_core6dockerNtB4_9CliDocker23parse_container_inspects1_0B6_
FNDA:0,_RNCNvMNtCshLLWmVuQQJZ_11deacon_core6dockerNtB4_9CliDocker23parse_container_inspects2_0B6_
FNDA:0,_RNCNvMNtCshLLWmVuQQJZ_11deacon_core6dockerNtB4_9CliDocker23parse_container_inspects3_0B6_
FNDA:0,_RNCNvMNtCshLLWmVuQQJZ_11deacon_core6dockerNtB4_9CliDocker23parse_container_inspects4_0B6_
FNDA:0,_RNCNvMNtCshLLWmVuQQJZ_11deacon_core6dockerNtB4_9CliDocker23parse_container_inspects5_0B6_
FNDA:0,_RNCNvMNtCshLLWmVuQQJZ_11deacon_core6dockerNtB4_9CliDocker23parse_container_inspects6_0B6_
FNDA:0,_RNCNvMNtCshLLWmVuQQJZ_11deacon_core6dockerNtB4_9CliDocker23parse_container_inspects7_0B6_
FNDA:0,_RNCNvMNtCshLLWmVuQQJZ_11deacon_core6dockerNtB4_9CliDocker23parse_container_inspects_0B6_
FNDA:0,_RNCNvXs0_NtCshLLWmVuQQJZ_11deacon_core6dockerNtB7_9CliDockerNtNtB9_9container12ContainerOps15start_container0B9_
FNDA:0,_RNCNvXs0_NtCshLLWmVuQQJZ_11deacon_core6dockerNtB7_9CliDockerNtNtB9_9container12ContainerOps16create_container0B9_
FNDA:0,_RNCNvXs0_NtCshLLWmVuQQJZ_11deacon_core6dockerNtB7_9CliDockerNtNtB9_9container12ContainerOps16remove_container0B9_
FNDA:0,_RNCNvXs0_NtCshLLWmVuQQJZ_11deacon_core6dockerNtB7_9CliDockerNtNtB9_9container12ContainerOps19get_container_image0B9_
FNDA:0,_RNCNvXs0_NtCshLLWmVuQQJZ_11deacon_core6dockerNtB7_9CliDockerNtNtB9_9container12ContainerOps24find_matching_containers0B9_
FNDA:0,_RNCNvXs1_NtCshLLWmVuQQJZ_11deacon_core6dockerNtB7_9CliDockerNtB7_15DockerLifecycle2up0B9_
FNDA:0,_RNCNvXs_NtCshLLWmVuQQJZ_11deacon_core6dockerNtB6_9CliDockerNtB6_6Docker15list_containers0B8_
FNDA:0,_RNCNvXs_NtCshLLWmVuQQJZ_11deacon_core6dockerNtB6_9CliDockerNtB6_6Docker17inspect_container0B8_
FNDA:0,_RNCNvXs_NtCshLLWmVuQQJZ_11deacon_core6dockerNtB6_9CliDockerNtB6_6Docker4exec0B8_
FNDA:0,_RNCNvXs_NtCshLLWmVuQQJZ_11deacon_core6dockerNtB6_9CliDockerNtB6_6Docker4ping0B8_
FNDA:0,_RNvMNtCshLLWmVuQQJZ_11deacon_core6dockerNtB2_9CliDocker14execute_docker
FNDA:0,_RNvMNtCshLLWmVuQQJZ_11deacon_core6dockerNtB2_9CliDocker14parse_env_vars
FNDA:0,_RNvMNtCshLLWmVuQQJZ_11deacon_core6dockerNtB2_9CliDocker20parse_container_list
FNDA:0,_RNvMNtCshLLWmVuQQJZ_11deacon_core6dockerNtB2_9CliDocker23parse_container_inspect
FNDA:0,_RNCNCNCNCNvXs0_NtCs1G9XuckPzNo_11deacon_core6dockerNtBd_9CliDockerNtNtBf_9container12ContainerOps15start_container0000Bf_
FNDA:0,_RNCNCNCNCNvXs0_NtCs1G9XuckPzNo_11deacon_core6dockerNtBd_9CliDockerNtNtBf_9container12ContainerOps16create_container00s0_00Bf_
FNDA:0,_RNCNCNCNCNvXs0_NtCs1G9XuckPzNo_11deacon_core6dockerNtBd_9CliDockerNtNtBf_9container12ContainerOps16create_container00s0_0s_0Bf_
FNDA:0,_RNCNCNCNCNvXs0_NtCs1G9XuckPzNo_11deacon_core6dockerNtBd_9CliDockerNtNtBf_9container12ContainerOps16remove_container0000Bf_
FNDA:0,_RNCNCNCNCNvXs0_NtCs1G9XuckPzNo_11deacon_core6dockerNtBd_9CliDockerNtNtBf_9container12ContainerOps19get_container_image0000Bf_
FNDA:0,_RNCNCNCNCNvXs0_NtCs1G9XuckPzNo_11deacon_core6dockerNtBd_9CliDockerNtNtBf_9container12ContainerOps19get_container_image000s_0Bf_
FNDA:0,_RNCNCNCNCNvXs_NtCs1G9XuckPzNo_11deacon_core6dockerNtBc_9CliDockerNtBc_6Docker15list_containers00s_00Be_
FNDA:0,_RNCNCNCNCNvXs_NtCs1G9XuckPzNo_11deacon_core6dockerNtBc_9CliDockerNtBc_6Docker15list_containers00s_0s0_0Be_
FNDA:0,_RNCNCNCNCNvXs_NtCs1G9XuckPzNo_11deacon_core6dockerNtBc_9CliDockerNtBc_6Docker15list_containers00s_0s1_0Be_
FNDA:0,_RNCNCNCNCNvXs_NtCs1G9XuckPzNo_11deacon_core6dockerNtBc_9CliDockerNtBc_6Docker15list_containers00s_0s2_0Be_
FNDA:0,_RNCNCNCNCNvXs_NtCs1G9XuckPzNo_11deacon_core6dockerNtBc_9CliDockerNtBc_6Docker15list_containers00s_0s3_0Be_
FNDA:0,_RNCNCNCNCNvXs_NtCs1G9XuckPzNo_11deacon_core6dockerNtBc_9CliDockerNtBc_6Docker15list_containers00s_0s4_0Be_
FNDA:0,_RNCNCNCNCNvXs_NtCs1G9XuckPzNo_11deacon_core6dockerNtBc_9CliDockerNtBc_6Docker15list_containers00s_0s5_0Be_
FNDA:0,_RNCNCNCNCNvXs_NtCs1G9XuckPzNo_11deacon_core6dockerNtBc_9CliDockerNtBc_6Docker15list_containers00s_0s6_0Be_
FNDA:0,_RNCNCNCNCNvXs_NtCs1G9XuckPzNo_11deacon_core6dockerNtBc_9CliDockerNtBc_6Docker15list_containers00s_0s_0Be_
FNDA:0,_RNCNCNCNCNvXs_NtCs1G9XuckPzNo_11deacon_core6dockerNtBc_9CliDockerNtBc_6Docker17inspect_container0000Be_
FNDA:0,_RNCNCNCNCNvXs_NtCs1G9XuckPzNo_11deacon_core6dockerNtBc_9CliDockerNtBc_6Docker17inspect_container000s0_0Be_
FNDA:0,_RNCNCNCNCNvXs_NtCs1G9XuckPzNo_11deacon_core6dockerNtBc_9CliDockerNtBc_6Docker17inspect_container000s1_0Be_
FNDA:0,_RNCNCNCNCNvXs_NtCs1G9XuckPzNo_11deacon_core6dockerNtBc_9CliDockerNtBc_6Docker17inspect_container000s2_0Be_
FNDA:0,_RNCNCNCNCNvXs_NtCs1G9XuckPzNo_11deacon_core6dockerNtBc_9CliDockerNtBc_6Docker17inspect_container000s3_0Be_
FNDA:0,_RNCNCNCNCNvXs_NtCs1G9XuckPzNo_11deacon_core6dockerNtBc_9CliDockerNtBc_6Docker17inspect_container000s4_0Be_
FNDA:0,_RNCNCNCNCNvXs_NtCs1G9XuckPzNo_11deacon_core6dockerNtBc_9CliDockerNtBc_6Docker17inspect_container000s5_0Be_
FNDA:0,_RNCNCNCNCNvXs_NtCs1G9XuckPzNo_11deacon_core6dockerNtBc_9CliDockerNtBc_6Docker17inspect_container000s6_0Be_
FNDA:0,_RNCNCNCNCNvXs_NtCs1G9XuckPzNo_11deacon_core6dockerNtBc_9CliDockerNtBc_6Docker17inspect_container000s7_0Be_
FNDA:0,_RNCNCNCNCNvXs_NtCs1G9XuckPzNo_11deacon_core6dockerNtBc_9CliDockerNtBc_6Docker17inspect_container000s8_0Be_
FNDA:0,_RNCNCNCNCNvXs_NtCs1G9XuckPzNo_11deacon_core6dockerNtBc_9CliDockerNtBc_6Docker17inspect_container000s9_0Be_
FNDA:0,_RNCNCNCNCNvXs_NtCs1G9XuckPzNo_11deacon_core6dockerNtBc_9CliDockerNtBc_6Docker17inspect_container000s_0Be_
FNDA:0,_RNCNCNCNCNvXs_NtCs1G9XuckPzNo_11deacon_core6dockerNtBc_9CliDockerNtBc_6Docker4exec0000Be_
FNDA:0,_RNCNCNCNCNvXs_NtCs1G9XuckPzNo_11deacon_core6dockerNtBc_9CliDockerNtBc_6Docker4exec000s0_0Be_
FNDA:0,_RNCNCNCNCNvXs_NtCs1G9XuckPzNo_11deacon_core6dockerNtBc_9CliDockerNtBc_6Docker4exec000s_0Be_
FNDA:0,_RNCNCNCNvXs0_NtCs1G9XuckPzNo_11deacon_core6dockerNtBb_9CliDockerNtNtBd_9container12ContainerOps15start_container000Bd_
FNDA:0,_RNCNCNCNvXs0_NtCs1G9XuckPzNo_11deacon_core6dockerNtBb_9CliDockerNtNtBd_9container12ContainerOps15start_container00s_0Bd_
FNDA:0,_RNCNCNCNvXs0_NtCs1G9XuckPzNo_11deacon_core6dockerNtBb_9CliDockerNtNtBd_9container12ContainerOps16create_container000Bd_
FNDA:0,_RNCNCNCNvXs0_NtCs1G9XuckPzNo_11deacon_core6dockerNtBb_9CliDockerNtNtBd_9container12ContainerOps16create_container00s0_0Bd_
FNDA:0,_RNCNCNCNvXs0_NtCs1G9XuckPzNo_11deacon_core6dockerNtBb_9CliDockerNtNtBd_9container12ContainerOps16create_container00s1_0Bd_
FNDA:0,_RNCNCNCNvXs0_NtCs1G9XuckPzNo_11deacon_core6dockerNtBb_9CliDockerNtNtBd_9container12ContainerOps16create_container00s3_0Bd_
FNDA:0,_RNCNCNCNvXs0_NtCs1G9XuckPzNo_11deacon_core6dockerNtBb_9CliDockerNtNtBd_9container12ContainerOps16create_container00s_0Bd_
FNDA:0,_RNCNCNCNvXs0_NtCs1G9XuckPzNo_11deacon_core6dockerNtBb_9CliDockerNtNtBd_9container12ContainerOps16remove_container000Bd_
FNDA:0,_RNCNCNCNvXs0_NtCs1G9XuckPzNo_11deacon_core6dockerNtBb_9CliDockerNtNtBd_9container12ContainerOps16remove_container00s_0Bd_
FNDA:0,_RNCNCNCNvXs0_NtCs1G9XuckPzNo_11deacon_core6dockerNtBb_9CliDockerNtNtBd_9container12ContainerOps19get_container_image000Bd_
FNDA:0,_RNCNCNCNvXs0_NtCs1G9XuckPzNo_11deacon_core6dockerNtBb_9CliDockerNtNtBd_9container12ContainerOps19get_container_image00s_0Bd_
FNDA:0,_RNCNCNCNvXs_NtCs1G9XuckPzNo_11deacon_core6dockerNtBa_9CliDockerNtBa_6Docker15list_containers000Bc_
FNDA:0,_RNCNCNCNvXs_NtCs1G9XuckPzNo_11deacon_core6dockerNtBa_9CliDockerNtBa_6Docker15list_containers00s0_0Bc_
FNDA:0,_RNCNCNCNvXs_NtCs1G9XuckPzNo_11deacon_core6dockerNtBa_9CliDockerNtBa_6Docker15list_containers00s_0Bc_
FNDA:0,_RNCNCNCNvXs_NtCs1G9XuckPzNo_11deacon_core6dockerNtBa_9CliDockerNtBa_6Docker17inspect_container000Bc_
FNDA:0,_RNCNCNCNvXs_NtCs1G9XuckPzNo_11deacon_core6dockerNtBa_9CliDockerNtBa_6Docker17inspect_container00s_0Bc_
FNDA:0,_RNCNCNCNvXs_NtCs1G9XuckPzNo_11deacon_core6dockerNtBa_9CliDockerNtBa_6Docker4exec000Bc_
FNDA:0,_RNCNCNCNvXs_NtCs1G9XuckPzNo_11deacon_core6dockerNtBa_9CliDockerNtBa_6Docker4exec00s_0Bc_
FNDA:0,_RNCNCNCNvXs_NtCs1G9XuckPzNo_11deacon_core6dockerNtBa_9CliDockerNtBa_6Docker4ping000Bc_
FNDA:0,_RNCNCNCNvXs_NtCs1G9XuckPzNo_11deacon_core6dockerNtBa_9CliDockerNtBa_6Docker4ping00s_0Bc_
FNDA:0,_RNCNvMNtCs1G9XuckPzNo_11deacon_core6dockerNtB4_9CliDocker14execute_docker0B6_
FNDA:0,_RNCNvMNtCs1G9XuckPzNo_11deacon_core6dockerNtB4_9CliDocker14execute_dockers_0B6_
FNDA:0,_RNCNvXs0_NtCs1G9XuckPzNo_11deacon_core6dockerNtB7_9CliDockerNtNtB9_9container12ContainerOps15start_container0B9_
FNDA:0,_RNCNvXs0_NtCs1G9XuckPzNo_11deacon_core6dockerNtB7_9CliDockerNtNtB9_9container12ContainerOps16create_container0B9_
FNDA:0,_RNCNvXs0_NtCs1G9XuckPzNo_11deacon_core6dockerNtB7_9CliDockerNtNtB9_9container12ContainerOps16remove_container0B9_
FNDA:0,_RNCNvXs0_NtCs1G9XuckPzNo_11deacon_core6dockerNtB7_9CliDockerNtNtB9_9container12ContainerOps19get_container_image0B9_
FNDA:0,_RNCNvXs0_NtCs1G9XuckPzNo_11deacon_core6dockerNtB7_9CliDockerNtNtB9_9container12ContainerOps24find_matching_containers0B9_
FNDA:0,_RNCNvXs1_NtCs1G9XuckPzNo_11deacon_core6dockerNtB7_9CliDockerNtB7_15DockerLifecycle2up0B9_
FNDA:0,_RNCNvXs_NtCs1G9XuckPzNo_11deacon_core6dockerNtB6_9CliDockerNtB6_6Docker15list_containers0B8_
FNDA:0,_RNCNvXs_NtCs1G9XuckPzNo_11deacon_core6dockerNtB6_9CliDockerNtB6_6Docker17inspect_container0B8_
FNDA:0,_RNCNvXs_NtCs1G9XuckPzNo_11deacon_core6dockerNtB6_9CliDockerNtB6_6Docker4exec0B8_
FNDA:0,_RNCNvXs_NtCs1G9XuckPzNo_11deacon_core6dockerNtB6_9CliDockerNtB6_6Docker4ping0B8_
FNDA:0,_RNvMNtCs1G9XuckPzNo_11deacon_core6dockerNtB2_9CliDocker14execute_docker
FNDA:0,_RNvMNtCs1G9XuckPzNo_11deacon_core6dockerNtB2_9CliDocker14parse_env_vars
FNDA:0,_RNvMNtCs1G9XuckPzNo_11deacon_core6dockerNtB2_9CliDocker22check_docker_installed
FNDA:0,_RNvMNtCs1G9XuckPzNo_11deacon_core6dockerNtB2_9CliDocker6is_tty
FNDA:0,_RNvXs0_NtCs1G9XuckPzNo_11deacon_core6dockerNtB5_9CliDockerNtNtB7_9container12ContainerOps15start_container
FNDA:0,_RNvXs0_NtCs1G9XuckPzNo_11deacon_core6dockerNtB5_9CliDockerNtNtB7_9container12ContainerOps16create_container
FNDA:0,_RNvXs0_NtCs1G9XuckPzNo_11deacon_core6dockerNtB5_9CliDockerNtNtB7_9container12ContainerOps16remove_container
FNDA:0,_RNvXs0_NtCs1G9XuckPzNo_11deacon_core6dockerNtB5_9CliDockerNtNtB7_9container12ContainerOps19get_container_image
FNDA:0,_RNvXs0_NtCs1G9XuckPzNo_11deacon_core6dockerNtB5_9CliDockerNtNtB7_9container12ContainerOps24find_matching_containers
FNDA:0,_RNvXs1_NtCs1G9XuckPzNo_11deacon_core6dockerNtB5_9CliDockerNtB5_15DockerLifecycle2up
FNDA:0,_RNvXs_NtCs1G9XuckPzNo_11deacon_core6dockerNtB4_9CliDockerNtB4_6Docker15list_containers
FNDA:0,_RNvXs_NtCs1G9XuckPzNo_11deacon_core6dockerNtB4_9CliDockerNtB4_6Docker17inspect_container
FNDA:0,_RNvXs_NtCs1G9XuckPzNo_11deacon_core6dockerNtB4_9CliDockerNtB4_6Docker4exec
FNDA:0,_RNvXs_NtCs1G9XuckPzNo_11deacon_core6dockerNtB4_9CliDockerNtB4_6Docker4ping
FNDA:3,_RNCNCNvMNtCs1G9XuckPzNo_11deacon_core6dockerNtB6_9CliDocker20parse_container_lists1_00B8_
FNDA:2,_RNCNvMNtCs1G9XuckPzNo_11deacon_core6dockerNtB4_9CliDocker19parse_exposed_ports0B6_
FNDA:1,_RNCNvMNtCs1G9XuckPzNo_11deacon_core6dockerNtB4_9CliDocker19parse_exposed_portss_0B6_
FNDA:1,_RNCNvMNtCs1G9XuckPzNo_11deacon_core6dockerNtB4_9CliDocker19parse_port_mappings0B6_
FNDA:2,_RNCNvMNtCs1G9XuckPzNo_11deacon_core6dockerNtB4_9CliDocker19parse_port_mappingss0_0B6_
FNDA:2,_RNCNvMNtCs1G9XuckPzNo_11deacon_core6dockerNtB4_9CliDocker19parse_port_mappingss1_0B6_
FNDA:1,_RNCNvMNtCs1G9XuckPzNo_11deacon_core6dockerNtB4_9CliDocker19parse_port_mappingss_0B6_
FNDA:0,_RNCNvMNtCs1G9XuckPzNo_11deacon_core6dockerNtB4_9CliDocker20parse_container_list0B6_
FNDA:3,_RNCNvMNtCs1G9XuckPzNo_11deacon_core6dockerNtB4_9CliDocker20parse_container_lists0_0B6_
FNDA:3,_RNCNvMNtCs1G9XuckPzNo_11deacon_core6dockerNtB4_9CliDocker20parse_container_lists1_0B6_
FNDA:3,_RNCNvMNtCs1G9XuckPzNo_11deacon_core6dockerNtB4_9CliDocker20parse_container_lists2_0B6_
FNDA:3,_RNCNvMNtCs1G9XuckPzNo_11deacon_core6dockerNtB4_9CliDocker20parse_container_lists3_0B6_
FNDA:3,_RNCNvMNtCs1G9XuckPzNo_11deacon_core6dockerNtB4_9CliDocker20parse_container_lists4_0B6_
FNDA:3,_RNCNvMNtCs1G9XuckPzNo_11deacon_core6dockerNtB4_9CliDocker20parse_container_lists_0B6_
FNDA:0,_RNCNvMNtCs1G9XuckPzNo_11deacon_core6dockerNtB4_9CliDocker23parse_container_inspect0B6_
FNDA:2,_RNCNvMNtCs1G9XuckPzNo_11deacon_core6dockerNtB4_9CliDocker23parse_container_inspects0_0B6_
FNDA:2,_RNCNvMNtCs1G9XuckPzNo_11deacon_core6dockerNtB4_9CliDocker23parse_container_inspects1_0B6_
FNDA:2,_RNCNvMNtCs1G9XuckPzNo_11deacon_core6dockerNtB4_9CliDocker23parse_container_inspects2_0B6_
FNDA:2,_RNCNvMNtCs1G9XuckPzNo_11deacon_core6dockerNtB4_9CliDocker23parse_container_inspects3_0B6_
FNDA:2,_RNCNvMNtCs1G9XuckPzNo_11deacon_core6dockerNtB4_9CliDocker23parse_container_inspects4_0B6_
FNDA:2,_RNCNvMNtCs1G9XuckPzNo_11deacon_core6dockerNtB4_9CliDocker23parse_container_inspects5_0B6_
FNDA:2,_RNCNvMNtCs1G9XuckPzNo_11deacon_core6dockerNtB4_9CliDocker23parse_container_inspects6_0B6_
FNDA:2,_RNCNvMNtCs1G9XuckPzNo_11deacon_core6dockerNtB4_9CliDocker23parse_container_inspects7_0B6_
FNDA:2,_RNCNvMNtCs1G9XuckPzNo_11deacon_core6dockerNtB4_9CliDocker23parse_container_inspects_0B6_
FNDA:1,_RNCNvNtNtCs1G9XuckPzNo_11deacon_core6docker5testss_31test_parse_container_with_ports0B7_
FNDA:1,_RNCNvNtNtCs1G9XuckPzNo_11deacon_core6docker5testss_31test_parse_container_with_portss0_0B7_
FNDA:2,_RNCNvNtNtCs1G9XuckPzNo_11deacon_core6docker5testss_31test_parse_container_with_portss1_0B7_
FNDA:2,_RNCNvNtNtCs1G9XuckPzNo_11deacon_core6docker5testss_31test_parse_container_with_portss_0B7_
FNDA:1,_RNvNtNtCs1G9XuckPzNo_11deacon_core6docker5testss_19test_cli_docker_new
FNDA:1,_RNvNtNtCs1G9XuckPzNo_11deacon_core6docker5testss_25test_cli_docker_with_path
FNDA:1,_RNvNtNtCs1G9XuckPzNo_11deacon_core6docker5testss_31test_parse_container_list_empty
FNDA:1,_RNvNtNtCs1G9XuckPzNo_11deacon_core6docker5testss_31test_parse_container_with_ports
FNDA:1,_RNvNtNtCs1G9XuckPzNo_11deacon_core6docker5testss_33test_container_info_serialization
FNDA:1,_RNvNtNtCs1G9XuckPzNo_11deacon_core6docker5testss_34test_parse_container_inspect_empty
FNDA:1,_RNvNtNtCs1G9XuckPzNo_11deacon_core6docker5testss_40test_parse_container_inspect_empty_array
FNDA:1,_RNvNtNtCs1G9XuckPzNo_11deacon_core6docker5testss_42test_parse_container_list_single_container
FNDA:1,_RNvNtNtCs1G9XuckPzNo_11deacon_core6docker5testss_45test_parse_container_inspect_single_container
FNDA:1,_RNvNtNtCs1G9XuckPzNo_11deacon_core6docker5testss_45test_parse_container_list_multiple_containers
FNDA:2,_RNvMNtCs1G9XuckPzNo_11deacon_core6dockerNtB2_9CliDocker19parse_exposed_ports
FNDA:2,_RNvMNtCs1G9XuckPzNo_11deacon_core6dockerNtB2_9CliDocker19parse_port_mappings
FNDA:3,_RNvMNtCs1G9XuckPzNo_11deacon_core6dockerNtB2_9CliDocker20parse_container_list
FNDA:4,_RNvMNtCs1G9XuckPzNo_11deacon_core6dockerNtB2_9CliDocker23parse_container_inspect
FNDA:8,_RNvMNtCs1G9XuckPzNo_11deacon_core6dockerNtB2_9CliDocker3new
FNDA:1,_RNvMNtCs1G9XuckPzNo_11deacon_core6dockerNtB2_9CliDocker9with_path
FNDA:2,_RNCNCNCNCNvXs_NtCshLLWmVuQQJZ_11deacon_core6dockerNtBc_9CliDockerNtBc_6Docker4exec0000Cs9OXLKDI7tN3_31integration_container_lifecycle
FNDA:0,_RNCNCNCNCNvXs_NtCshLLWmVuQQJZ_11deacon_core6dockerNtBc_9CliDockerNtBc_6Docker4exec000s0_0Cs9OXLKDI7tN3_31integration_container_lifecycle
FNDA:0,_RNCNCNCNCNvXs_NtCshLLWmVuQQJZ_11deacon_core6dockerNtBc_9CliDockerNtBc_6Docker4exec000s_0Cs9OXLKDI7tN3_31integration_container_lifecycle
FNDA:2,_RNCNCNCNvXs_NtCshLLWmVuQQJZ_11deacon_core6dockerNtBa_9CliDockerNtBa_6Docker4exec000Cs9OXLKDI7tN3_31integration_container_lifecycle
FNDA:0,_RNCNCNCNvXs_NtCshLLWmVuQQJZ_11deacon_core6dockerNtBa_9CliDockerNtBa_6Docker4exec00s_0Cs9OXLKDI7tN3_31integration_container_lifecycle
FNDA:2,_RNCNvXs_NtCshLLWmVuQQJZ_11deacon_core6dockerNtB6_9CliDockerNtB6_6Docker4exec0Cs9OXLKDI7tN3_31integration_container_lifecycle
FNF:120
FNH:80
DA:142,23
DA:143,23
DA:144,23
DA:145,23
DA:146,23
DA:149,1
DA:150,1
DA:151,1
DA:154,3
DA:155,3
DA:157,3
DA:158,3
DA:159,3
DA:160,3
DA:162,2
DA:163,2
DA:164,2
DA:165,2
DA:166,2
DA:167,2
DA:168,2
DA:169,2
DA:170,0
DA:172,2
DA:174,3
DA:175,3
DA:178,3
DA:179,3
DA:181,3
DA:182,3
DA:183,3
DA:184,3
DA:186,2
DA:187,2
DA:188,2
DA:189,2
DA:190,4
DA:191,2
DA:192,2
DA:193,2
DA:195,2
DA:196,2
DA:197,2
DA:198,2
DA:199,2
DA:200,2
DA:201,2
DA:202,2
DA:203,0
DA:205,0
DA:206,0
DA:207,0
DA:209,1
DA:211,3
DA:212,3
DA:216,6
DA:217,6
DA:218,0
DA:222,6
DA:224,6
DA:225,6
DA:226,6
DA:227,6
DA:228,6
DA:230,0
DA:231,0
DA:232,0
DA:233,0
DA:234,0
DA:237,0
DA:238,0
DA:239,0
DA:242,6
DA:247,0
DA:248,0
DA:249,0
DA:251,0
DA:254,0
DA:255,0
DA:256,0
DA:257,0
DA:258,0
DA:259,0
DA:261,0
DA:262,0
DA:263,0
DA:264,0
DA:266,0
DA:267,0
DA:269,0
DA:270,0
DA:274,3
DA:275,3
DA:276,1
DA:277,2
DA:279,2
DA:280,2
DA:281,2
DA:282,2
DA:283,2
DA:284,2
DA:285,0
DA:286,0
DA:288,2
DA:289,5
DA:290,3
DA:291,3
DA:292,3
DA:293,3
DA:294,3
DA:295,3
DA:296,3
DA:297,3
DA:298,3
DA:299,3
DA:300,3
DA:301,3
DA:302,3
DA:303,3
DA:304,3
DA:305,3
DA:306,3
DA:307,3
DA:308,3
DA:309,3
DA:310,3
DA:311,3
DA:312,3
DA:313,3
DA:314,3
DA:315,3
DA:316,3
DA:317,3
DA:319,3
DA:322,2
DA:323,3
DA:327,0
DA:329,0
DA:330,0
DA:334,0
DA:335,0
DA:336,0
DA:337,0
DA:338,0
DA:339,0
DA:340,0
DA:341,0
DA:342,0
DA:343,0
DA:344,0
DA:347,0
DA:348,0
DA:352,4
DA:353,4
DA:354,1
DA:355,3
DA:357,3
DA:358,3
DA:360,3
DA:361,1
DA:362,2
DA:364,2
DA:365,2
DA:366,2
DA:368,2
DA:369,2
DA:370,2
DA:371,2
DA:372,2
DA:373,2
DA:374,2
DA:375,2
DA:376,2
DA:377,2
DA:378,2
DA:379,2
DA:380,2
DA:381,2
DA:382,2
DA:383,2
DA:384,2
DA:385,2
DA:386,2
DA:387,2
DA:388,2
DA:389,2
DA:390,2
DA:391,2
DA:392,2
DA:393,2
DA:394,2
DA:395,2
DA:396,2
DA:397,2
DA:398,2
DA:401,2
DA:402,4
DA:408,10
DA:414,10
DA:415,10
DA:416,10
DA:417,10
DA:419,10
DA:420,10
DA:421,10
DA:422,10
DA:423,10
DA:425,0
DA:426,0
DA:427,0
DA:428,0
DA:429,0
DA:432,0
DA:433,0
DA:434,0
DA:437,10
DA:440,0
DA:441,10
DA:444,4
DA:451,4
DA:453,4
DA:454,4
DA:457,4
DA:458,4
DA:459,4
DA:460,4
DA:461,4
DA:463,4
DA:464,4
DA:465,4
DA:466,4
DA:468,4
DA:469,0
DA:470,0
DA:471,4
DA:473,4
DA:474,0
DA:475,0
DA:478,4
DA:479,4
DA:480,0
DA:481,0
DA:482,0
DA:484,0
DA:485,0
DA:486,0
DA:488,0
DA:489,0
DA:490,0
DA:491,0
DA:492,0
DA:493,0
DA:494,0
DA:495,0
DA:496,0
DA:497,0
DA:498,0
DA:499,0
DA:500,0
DA:501,0
DA:502,0
DA:503,0
DA:504,0
DA:505,0
DA:506,0
DA:507,0
DA:508,0
DA:509,0
DA:510,0
DA:511,0
DA:512,0
DA:513,0
DA:514,0
DA:515,0
DA:517,0
DA:520,4
DA:521,4
DA:523,0
DA:524,4
DA:527,1
DA:533,1
DA:534,1
DA:535,1
DA:536,1
DA:537,1
DA:538,0
DA:539,0
DA:541,1
DA:542,0
DA:543,0
DA:544,0
DA:545,0
DA:546,0
DA:547,0
DA:548,0
DA:549,1
DA:551,1
DA:552,0
DA:553,0
DA:555,1
DA:556,1
DA:557,0
DA:558,0
DA:560,1
DA:561,0
DA:562,1
DA:564,1
DA:565,1
DA:566,1
DA:568,1
DA:569,1
DA:570,1
DA:571,1
DA:572,1
DA:573,1
DA:574,1
DA:575,1
DA:576,1
DA:577,1
DA:578,1
DA:579,1
DA:580,1
DA:581,1
DA:582,1
DA:583,1
DA:584,1
DA:585,1
DA:586,1
DA:587,1
DA:588,1
DA:589,1
DA:590,1
DA:591,1
DA:592,1
DA:593,1
DA:594,1
DA:595,1
DA:596,1
DA:597,1
DA:598,1
DA:601,1
DA:602,1
DA:604,0
DA:605,1
DA:608,3
DA:609,3
DA:610,3
DA:611,3
DA:612,3
DA:613,3
DA:620,3
DA:621,3
DA:624,3
DA:625,0
DA:626,3
DA:627,3
DA:628,0
DA:629,3
DA:632,3
DA:633,0
DA:634,3
DA:637,6
DA:638,2
DA:639,2
DA:640,2
DA:643,6
DA:644,3
DA:645,3
DA:646,3
DA:649,3
DA:650,3
DA:651,3
DA:652,3
DA:653,3
DA:654,6
DA:655,3
DA:656,3
DA:657,3
DA:660,3
DA:661,0
DA:662,3
DA:665,3
DA:668,12
DA:669,9
DA:670,9
DA:672,3
DA:674,3
DA:675,3
DA:676,3
DA:677,3
DA:678,0
DA:679,0
DA:681,3
DA:682,0
DA:683,0
DA:685,3
DA:686,3
DA:688,3
DA:689,3
DA:691,0
DA:692,3
DA:698,4
DA:708,4
DA:711,2
DA:712,2
DA:713,2
DA:714,2
DA:715,2
DA:716,2
DA:736,2
DA:739,0
DA:748,2
DA:765,0
DA:766,0
DA:767,0
DA:772,2
DA:773,2
DA:774,2
DA:775,2
DA:776,2
DA:778,2
DA:779,0
DA:780,0
DA:781,0
DA:782,0
DA:783,0
DA:784,2
DA:786,2
DA:787,0
DA:788,0
DA:790,2
DA:791,2
DA:793,0
DA:797,2
DA:800,2
DA:806,2
DA:807,2
DA:808,2
DA:809,2
DA:810,2
DA:812,2
DA:813,0
DA:814,0
DA:815,0
DA:816,0
DA:817,0
DA:818,2
DA:820,2
DA:821,2
DA:823,0
DA:825,2
DA:828,0
DA:834,0
DA:835,0
DA:836,0
DA:837,0
DA:838,0
DA:840,0
DA:841,0
DA:842,0
DA:843,0
DA:844,0
DA:845,0
DA:846,0
DA:848,0
DA:849,0
DA:851,0
DA:853,0
DA:856,2
DA:862,2
DA:863,2
DA:864,2
DA:865,2
DA:866,2
DA:867,0
DA:868,0
DA:870,2
DA:871,0
DA:872,0
DA:873,0
DA:874,0
DA:875,0
DA:876,2
DA:878,2
DA:879,0
DA:880,0
DA:882,2
DA:883,2
DA:885,0
DA:887,2
DA:893,2
DA:894,2
DA:895,2
DA:896,2
DA:897,2
DA:898,2
DA:899,2
DA:950,2
DA:976,1
DA:977,1
DA:978,1
DA:979,1
DA:983,1
DA:984,1
DA:985,1
DA:986,1
DA:987,1
DA:991,1
DA:992,1
DA:993,1
DA:994,1
DA:995,1
DA:999,1
DA:1000,1
DA:1001,1
DA:1002,1
DA:1004,1
DA:1005,1
DA:1006,1
DA:1007,1
DA:1008,1
DA:1009,1
DA:1010,1
DA:1014,1
DA:1015,1
DA:1016,1
DA:1017,1
DA:1018,1
DA:1020,1
DA:1021,1
DA:1022,1
DA:1023,1
DA:1027,1
DA:1028,1
DA:1029,1
DA:1030,1
DA:1031,1
DA:1035,1
DA:1036,1
DA:1037,1
DA:1038,1
DA:1040,1
DA:1041,1
DA:1042,1
DA:1043,1
DA:1044,1
DA:1045,1
DA:1046,1
DA:1047,1
DA:1048,1
DA:1049,1
DA:1053,1
DA:1054,1
DA:1055,1
DA:1056,1
DA:1057,1
DA:1061,1
DA:1062,1
DA:1063,1
DA:1064,1
DA:1065,1
DA:1066,1
DA:1067,1
DA:1068,1
DA:1069,1
DA:1070,1
DA:1072,1
DA:1073,1
DA:1075,1
DA:1076,1
DA:1077,1
DA:1078,1
DA:1079,1
DA:1080,1
DA:1081,1
DA:1082,1
DA:1084,1
DA:1085,1
DA:1086,1
DA:1088,1
DA:1092,1
DA:1093,1
DA:1094,1
DA:1095,1
DA:1096,1
DA:1097,1
DA:1098,1
DA:1099,1
DA:1100,1
DA:1101,1
DA:1102,1
DA:1103,1
DA:1104,1
DA:1105,1
DA:1106,1
DA:1107,1
DA:1108,1
DA:1109,1
DA:1110,1
DA:1111,1
DA:1112,1
DA:1114,1
DA:1115,1
DA:1116,1
DA:1117,1
DA:1118,1
DA:1119,1
DA:1120,1
DA:1123,1
DA:1124,1
DA:1125,1
DA:1126,1
DA:1127,1
DA:1128,1
DA:1129,1
DA:1130,1
DA:1131,2
DA:1134,1
DA:1135,1
DA:1136,1
DA:1137,1
DA:1138,1
DA:1139,2
DA:1140,1
DA:1141,1
DA:1142,1
DA:1143,1
BRF:0
BRH:0
LF:711
LH:506
end_of_record
SF:/home/runner/work/deacon/deacon/crates/core/src/doctor.rs
FN:557,_RNCNCNvMNtCshLLWmVuQQJZ_11deacon_core6doctorNtNtB8_6docker9CliDocker11get_version00CsgueokGkgs2b_6deacon
FN:566,_RNCNCNvMNtCshLLWmVuQQJZ_11deacon_core6doctorNtNtB8_6docker9CliDocker11get_version0s_0CsgueokGkgs2b_6deacon
FN:591,_RNCNCNvMNtCshLLWmVuQQJZ_11deacon_core6doctorNtNtB8_6docker9CliDocker16get_info_summary00CsgueokGkgs2b_6deacon
FN:107,_RNCNCNvNtCshLLWmVuQQJZ_11deacon_core6doctor10run_doctor00CsgueokGkgs2b_6deacon
FN:431,_RNCNCNvNtCshLLWmVuQQJZ_11deacon_core6doctor21create_support_bundle00CsgueokGkgs2b_6deacon
FN:447,_RNCNCNvNtCshLLWmVuQQJZ_11deacon_core6doctor21create_support_bundle0s0_0CsgueokGkgs2b_6deacon
FN:452,_RNCNCNvNtCshLLWmVuQQJZ_11deacon_core6doctor21create_support_bundle0s1_0CsgueokGkgs2b_6deacon
FN:459,_RNCNCNvNtCshLLWmVuQQJZ_11deacon_core6doctor21create_support_bundle0s2_0CsgueokGkgs2b_6deacon
FN:467,_RNCNCNvNtCshLLWmVuQQJZ_11deacon_core6doctor21create_support_bundle0s3_0CsgueokGkgs2b_6deacon
FN:472,_RNCNCNvNtCshLLWmVuQQJZ_11deacon_core6doctor21create_support_bundle0s4_0CsgueokGkgs2b_6deacon
FN:484,_RNCNCNvNtCshLLWmVuQQJZ_11deacon_core6doctor21create_support_bundle0s5_0CsgueokGkgs2b_6deacon
FN:490,_RNCNCNvNtCshLLWmVuQQJZ_11deacon_core6doctor21create_support_bundle0s6_0CsgueokGkgs2b_6deacon
FN:495,_RNCNCNvNtCshLLWmVuQQJZ_11deacon_core6doctor21create_support_bundle0s7_0CsgueokGkgs2b_6deacon
FN:503,_RNCNCNvNtCshLLWmVuQQJZ_11deacon_core6doctor21create_support_bundle0s8_0CsgueokGkgs2b_6deacon
FN:442,_RNCNCNvNtCshLLWmVuQQJZ_11deacon_core6doctor21create_support_bundle0s_0CsgueokGkgs2b_6deacon
FN:552,_RNCNvMNtCshLLWmVuQQJZ_11deacon_core6doctorNtNtB6_6docker9CliDocker11get_version0CsgueokGkgs2b_6deacon
FN:583,_RNCNvMNtCshLLWmVuQQJZ_11deacon_core6doctorNtNtB6_6docker9CliDocker16get_info_summary0CsgueokGkgs2b_6deacon
FN:99,_RNCNvNtCshLLWmVuQQJZ_11deacon_core6doctor10run_doctor0CsgueokGkgs2b_6deacon
FN:344,_RNCNvNtCshLLWmVuQQJZ_11deacon_core6doctor19collect_cache_stats0CsgueokGkgs2b_6deacon
FN:127,_RNCNvNtCshLLWmVuQQJZ_11deacon_core6doctor19collect_diagnostics0CsgueokGkgs2b_6deacon
FN:187,_RNCNvNtCshLLWmVuQQJZ_11deacon_core6doctor19collect_docker_info0CsgueokGkgs2b_6deacon
FN:426,_RNCNvNtCshLLWmVuQQJZ_11deacon_core6doctor21create_support_bundle0CsgueokGkgs2b_6deacon
FN:95,_RNvNtCshLLWmVuQQJZ_11deacon_core6doctor10run_doctor
FN:513,_RNvNtCshLLWmVuQQJZ_11deacon_core6doctor16sanitize_secrets
FN:355,_RNvNtCshLLWmVuQQJZ_11deacon_core6doctor17print_text_output
FN:344,_RNvNtCshLLWmVuQQJZ_11deacon_core6doctor19collect_cache_stats
FN:127,_RNvNtCshLLWmVuQQJZ_11deacon_core6doctor19collect_diagnostics
FN:187,_RNvNtCshLLWmVuQQJZ_11deacon_core6doctor19collect_docker_info
FN:152,_RNvNtCshLLWmVuQQJZ_11deacon_core6doctor20collect_host_os_info
FN:323,_RNvNtCshLLWmVuQQJZ_11deacon_core6doctor21collect_features_info
FN:422,_RNvNtCshLLWmVuQQJZ_11deacon_core6doctor21create_support_bundle
FN:242,_RNvNtCshLLWmVuQQJZ_11deacon_core6doctor23collect_disk_space_info
FN:336,_RNvNtCshLLWmVuQQJZ_11deacon_core6doctor23collect_last_build_hash
FN:283,_RNvNtCshLLWmVuQQJZ_11deacon_core6doctor29collect_config_discovery_info
FN:163,_RNCNCNvNtCshLLWmVuQQJZ_11deacon_core6doctor20collect_host_os_info00B7_
FN:164,_RNCNCNvNtCshLLWmVuQQJZ_11deacon_core6doctor20collect_host_os_info0s_0B7_
FN:518,_RNCNvNtCshLLWmVuQQJZ_11deacon_core6doctor16sanitize_secrets0B5_
FN:528,_RNCNvNtCshLLWmVuQQJZ_11deacon_core6doctor16sanitize_secretss_0B5_
FN:160,_RNCNvNtCshLLWmVuQQJZ_11deacon_core6doctor20collect_host_os_info0B5_
FN:170,_RNCNvNtCshLLWmVuQQJZ_11deacon_core6doctor20collect_host_os_infos_0B5_
FN:246,_RNCNvNtCshLLWmVuQQJZ_11deacon_core6doctor23collect_disk_space_info0B5_
FN:290,_RNCNvNtCshLLWmVuQQJZ_11deacon_core6doctor29collect_config_discovery_info0B5_
FN:299,_RNCNvNtCshLLWmVuQQJZ_11deacon_core6doctor29collect_config_discovery_infos_0B5_
FN:552,_RNvMNtCshLLWmVuQQJZ_11deacon_core6doctorNtNtB4_6docker9CliDocker11get_version
FN:583,_RNvMNtCshLLWmVuQQJZ_11deacon_core6doctorNtNtB4_6docker9CliDocker16get_info_summary
FN:557,_RNCNCNvMNtCshLLWmVuQQJZ_11deacon_core6doctorNtNtB8_6docker9CliDocker11get_version00B8_
FN:566,_RNCNCNvMNtCshLLWmVuQQJZ_11deacon_core6doctorNtNtB8_6docker9CliDocker11get_version0s_0B8_
FN:591,_RNCNCNvMNtCshLLWmVuQQJZ_11deacon_core6doctorNtNtB8_6docker9CliDocker16get_info_summary00B8_
FN:107,_RNCNCNvNtCshLLWmVuQQJZ_11deacon_core6doctor10run_doctor00B7_
FN:431,_RNCNCNvNtCshLLWmVuQQJZ_11deacon_core6doctor21create_support_bundle00B7_
FN:447,_RNCNCNvNtCshLLWmVuQQJZ_11deacon_core6doctor21create_support_bundle0s0_0B7_
FN:452,_RNCNCNvNtCshLLWmVuQQJZ_11deacon_core6doctor21create_support_bundle0s1_0B7_
FN:459,_RNCNCNvNtCshLLWmVuQQJZ_11deacon_core6doctor21create_support_bundle0s2_0B7_
FN:467,_RNCNCNvNtCshLLWmVuQQJZ_11deacon_core6doctor21create_support_bundle0s3_0B7_
FN:472,_RNCNCNvNtCshLLWmVuQQJZ_11deacon_core6doctor21create_support_bundle0s4_0B7_
FN:484,_RNCNCNvNtCshLLWmVuQQJZ_11deacon_core6doctor21create_support_bundle0s5_0B7_
FN:490,_RNCNCNvNtCshLLWmVuQQJZ_11deacon_core6doctor21create_support_bundle0s6_0B7_
FN:495,_RNCNCNvNtCshLLWmVuQQJZ_11deacon_core6doctor21create_support_bundle0s7_0B7_
FN:503,_RNCNCNvNtCshLLWmVuQQJZ_11deacon_core6doctor21create_support_bundle0s8_0B7_
FN:442,_RNCNCNvNtCshLLWmVuQQJZ_11deacon_core6doctor21create_support_bundle0s_0B7_
FN:552,_RNCNvMNtCshLLWmVuQQJZ_11deacon_core6doctorNtNtB6_6docker9CliDocker11get_version0B6_
FN:583,_RNCNvMNtCshLLWmVuQQJZ_11deacon_core6doctorNtNtB6_6docker9CliDocker16get_info_summary0B6_
FN:99,_RNCNvNtCshLLWmVuQQJZ_11deacon_core6doctor10run_doctor0B5_
FN:344,_RNCNvNtCshLLWmVuQQJZ_11deacon_core6doctor19collect_cache_stats0B5_
FN:127,_RNCNvNtCshLLWmVuQQJZ_11deacon_core6doctor19collect_diagnostics0B5_
FN:187,_RNCNvNtCshLLWmVuQQJZ_11deacon_core6doctor19collect_docker_info0B5_
FN:426,_RNCNvNtCshLLWmVuQQJZ_11deacon_core6doctor21create_support_bundle0B5_
FN:518,_RNCNvNtCs1G9XuckPzNo_11deacon_core6doctor16sanitize_secrets0B5_
FN:528,_RNCNvNtCs1G9XuckPzNo_11deacon_core6doctor16sanitize_secretss_0B5_
FN:557,_RNCNCNvMNtCs1G9XuckPzNo_11deacon_core6doctorNtNtB8_6docker9CliDocker11get_version00B8_
FN:566,_RNCNCNvMNtCs1G9XuckPzNo_11deacon_core6doctorNtNtB8_6docker9CliDocker11get_version0s_0B8_
FN:591,_RNCNCNvMNtCs1G9XuckPzNo_11deacon_core6doctorNtNtB8_6docker9CliDocker16get_info_summary00B8_
FN:107,_RNCNCNvNtCs1G9XuckPzNo_11deacon_core6doctor10run_doctor00B7_
FN:163,_RNCNCNvNtCs1G9XuckPzNo_11deacon_core6doctor20collect_host_os_info00B7_
FN:164,_RNCNCNvNtCs1G9XuckPzNo_11deacon_core6doctor20collect_host_os_info0s_0B7_
FN:431,_RNCNCNvNtCs1G9XuckPzNo_11deacon_core6doctor21create_support_bundle00B7_
FN:447,_RNCNCNvNtCs1G9XuckPzNo_11deacon_core6doctor21create_support_bundle0s0_0B7_
FN:452,_RNCNCNvNtCs1G9XuckPzNo_11deacon_core6doctor21create_support_bundle0s1_0B7_
FN:459,_RNCNCNvNtCs1G9XuckPzNo_11deacon_core6doctor21create_support_bundle0s2_0B7_
FN:467,_RNCNCNvNtCs1G9XuckPzNo_11deacon_core6doctor21create_support_bundle0s3_0B7_
FN:472,_RNCNCNvNtCs1G9XuckPzNo_11deacon_core6doctor21create_support_bundle0s4_0B7_
FN:484,_RNCNCNvNtCs1G9XuckPzNo_11deacon_core6doctor21create_support_bundle0s5_0B7_
FN:490,_RNCNCNvNtCs1G9XuckPzNo_11deacon_core6doctor21create_support_bundle0s6_0B7_
FN:495,_RNCNCNvNtCs1G9XuckPzNo_11deacon_core6doctor21create_support_bundle0s7_0B7_
FN:503,_RNCNCNvNtCs1G9XuckPzNo_11deacon_core6doctor21create_support_bundle0s8_0B7_
FN:442,_RNCNCNvNtCs1G9XuckPzNo_11deacon_core6doctor21create_support_bundle0s_0B7_
FN:552,_RNCNvMNtCs1G9XuckPzNo_11deacon_core6doctorNtNtB6_6docker9CliDocker11get_version0B6_
FN:583,_RNCNvMNtCs1G9XuckPzNo_11deacon_core6doctorNtNtB6_6docker9CliDocker16get_info_summary0B6_
FN:99,_RNCNvNtCs1G9XuckPzNo_11deacon_core6doctor10run_doctor0B5_
FN:344,_RNCNvNtCs1G9XuckPzNo_11deacon_core6doctor19collect_cache_stats0B5_
FN:127,_RNCNvNtCs1G9XuckPzNo_11deacon_core6doctor19collect_diagnostics0B5_
FN:187,_RNCNvNtCs1G9XuckPzNo_11deacon_core6doctor19collect_docker_info0B5_
FN:160,_RNCNvNtCs1G9XuckPzNo_11deacon_core6doctor20collect_host_os_info0B5_
FN:170,_RNCNvNtCs1G9XuckPzNo_11deacon_core6doctor20collect_host_os_infos_0B5_
FN:426,_RNCNvNtCs1G9XuckPzNo_11deacon_core6doctor21create_support_bundle0B5_
FN:246,_RNCNvNtCs1G9XuckPzNo_11deacon_core6doctor23collect_disk_space_info0B5_
FN:290,_RNCNvNtCs1G9XuckPzNo_11deacon_core6doctor29collect_config_discovery_info0B5_
FN:299,_RNCNvNtCs1G9XuckPzNo_11deacon_core6doctor29collect_config_discovery_infos_0B5_
FN:552,_RNvMNtCs1G9XuckPzNo_11deacon_core6doctorNtNtB4_6docker9CliDocker11get_version
FN:583,_RNvMNtCs1G9XuckPzNo_11deacon_core6doctorNtNtB4_6docker9CliDocker16get_info_summary
FN:95,_RNvNtCs1G9XuckPzNo_11deacon_core6doctor10run_doctor
FN:355,_RNvNtCs1G9XuckPzNo_11deacon_core6doctor17print_text_output
FN:344,_RNvNtCs1G9XuckPzNo_11deacon_core6doctor19collect_cache_stats
FN:127,_RNvNtCs1G9XuckPzNo_11deacon_core6doctor19collect_diagnostics
FN:187,_RNvNtCs1G9XuckPzNo_11deacon_core6doctor19collect_docker_info
FN:152,_RNvNtCs1G9XuckPzNo_11deacon_core6doctor20collect_host_os_info
FN:323,_RNvNtCs1G9XuckPzNo_11deacon_core6doctor21collect_features_info
FN:422,_RNvNtCs1G9XuckPzNo_11deacon_core6doctor21create_support_bundle
FN:242,_RNvNtCs1G9XuckPzNo_11deacon_core6doctor23collect_disk_space_info
FN:336,_RNvNtCs1G9XuckPzNo_11deacon_core6doctor23collect_last_build_hash
FN:283,_RNvNtCs1G9XuckPzNo_11deacon_core6doctor29collect_config_discovery_info
FN:513,_RNvNtCs1G9XuckPzNo_11deacon_core6doctor16sanitize_secrets
FN:658,_RNvNtNtCs1G9XuckPzNo_11deacon_core6doctor5testss_32test_sanitize_secrets_no_secrets
FN:622,_RNvNtNtCs1G9XuckPzNo_11deacon_core6doctor5testss_33test_sanitize_secrets_quoted_keys
FN:674,_RNvNtNtCs1G9XuckPzNo_11deacon_core6doctor5testss_37test_sanitize_secrets_partial_matches
FN:641,_RNvNtNtCs1G9XuckPzNo_11deacon_core6doctor5testss_38test_sanitize_secrets_case_insensitive
FNDA:0,_RNCNCNvMNtCshLLWmVuQQJZ_11deacon_core6doctorNtNtB8_6docker9CliDocker11get_version00CsgueokGkgs2b_6deacon
FNDA:0,_RNCNCNvMNtCshLLWmVuQQJZ_11deacon_core6doctorNtNtB8_6docker9CliDocker11get_version0s_0CsgueokGkgs2b_6deacon
FNDA:0,_RNCNCNvMNtCshLLWmVuQQJZ_11deacon_core6doctorNtNtB8_6docker9CliDocker16get_info_summary00CsgueokGkgs2b_6deacon
FNDA:0,_RNCNCNvNtCshLLWmVuQQJZ_11deacon_core6doctor10run_doctor00CsgueokGkgs2b_6deacon
FNDA:0,_RNCNCNvNtCshLLWmVuQQJZ_11deacon_core6doctor21create_support_bundle00CsgueokGkgs2b_6deacon
FNDA:0,_RNCNCNvNtCshLLWmVuQQJZ_11deacon_core6doctor21create_support_bundle0s0_0CsgueokGkgs2b_6deacon
FNDA:0,_RNCNCNvNtCshLLWmVuQQJZ_11deacon_core6doctor21create_support_bundle0s1_0CsgueokGkgs2b_6deacon
FNDA:0,_RNCNCNvNtCshLLWmVuQQJZ_11deacon_core6doctor21create_support_bundle0s2_0CsgueokGkgs2b_6deacon
FNDA:0,_RNCNCNvNtCshLLWmVuQQJZ_11deacon_core6doctor21create_support_bundle0s3_0CsgueokGkgs2b_6deacon
FNDA:0,_RNCNCNvNtCshLLWmVuQQJZ_11deacon_core6doctor21create_support_bundle0s4_0CsgueokGkgs2b_6deacon
FNDA:0,_RNCNCNvNtCshLLWmVuQQJZ_11deacon_core6doctor21create_support_bundle0s5_0CsgueokGkgs2b_6deacon
FNDA:0,_RNCNCNvNtCshLLWmVuQQJZ_11deacon_core6doctor21create_support_bundle0s6_0CsgueokGkgs2b_6deacon
FNDA:0,_RNCNCNvNtCshLLWmVuQQJZ_11deacon_core6doctor21create_support_bundle0s7_0CsgueokGkgs2b_6deacon
FNDA:0,_RNCNCNvNtCshLLWmVuQQJZ_11deacon_core6doctor21create_support_bundle0s8_0CsgueokGkgs2b_6deacon
FNDA:0,_RNCNCNvNtCshLLWmVuQQJZ_11deacon_core6doctor21create_support_bundle0s_0CsgueokGkgs2b_6deacon
FNDA:4,_RNCNvMNtCshLLWmVuQQJZ_11deacon_core6doctorNtNtB6_6docker9CliDocker11get_version0CsgueokGkgs2b_6deacon
FNDA:4,_RNCNvMNtCshLLWmVuQQJZ_11deacon_core6doctorNtNtB6_6docker9CliDocker16get_info_summary0CsgueokGkgs2b_6deacon
FNDA:4,_RNCNvNtCshLLWmVuQQJZ_11deacon_core6doctor10run_doctor0CsgueokGkgs2b_6deacon
FNDA:4,_RNCNvNtCshLLWmVuQQJZ_11deacon_core6doctor19collect_cache_stats0CsgueokGkgs2b_6deacon
FNDA:4,_RNCNvNtCshLLWmVuQQJZ_11deacon_core6doctor19collect_diagnostics0CsgueokGkgs2b_6deacon
FNDA:4,_RNCNvNtCshLLWmVuQQJZ_11deacon_core6doctor19collect_docker_info0CsgueokGkgs2b_6deacon
FNDA:1,_RNCNvNtCshLLWmVuQQJZ_11deacon_core6doctor21create_support_bundle0CsgueokGkgs2b_6deacon
FNDA:4,_RNvNtCshLLWmVuQQJZ_11deacon_core6doctor10run_doctor
FNDA:0,_RNvNtCshLLWmVuQQJZ_11deacon_core6doctor16sanitize_secrets
FNDA:3,_RNvNtCshLLWmVuQQJZ_11deacon_core6doctor17print_text_output
FNDA:4,_RNvNtCshLLWmVuQQJZ_11deacon_core6doctor19collect_cache_stats
FNDA:4,_RNvNtCshLLWmVuQQJZ_11deacon_core6doctor19collect_diagnostics
FNDA:4,_RNvNtCshLLWmVuQQJZ_11deacon_core6doctor19collect_docker_info
FNDA:4,_RNvNtCshLLWmVuQQJZ_11deacon_core6doctor20collect_host_os_info
FNDA:4,_RNvNtCshLLWmVuQQJZ_11deacon_core6doctor21collect_features_info
FNDA:1,_RNvNtCshLLWmVuQQJZ_11deacon_core6doctor21create_support_bundle
FNDA:4,_RNvNtCshLLWmVuQQJZ_11deacon_core6doctor23collect_disk_space_info
FNDA:4,_RNvNtCshLLWmVuQQJZ_11deacon_core6doctor23collect_last_build_hash
FNDA:4,_RNvNtCshLLWmVuQQJZ_11deacon_core6doctor29collect_config_discovery_info
FNDA:4,_RNCNCNvNtCshLLWmVuQQJZ_11deacon_core6doctor20collect_host_os_info00B7_
FNDA:4,_RNCNCNvNtCshLLWmVuQQJZ_11deacon_core6doctor20collect_host_os_info0s_0B7_
FNDA:0,_RNCNvNtCshLLWmVuQQJZ_11deacon_core6doctor16sanitize_secrets0B5_
FNDA:0,_RNCNvNtCshLLWmVuQQJZ_11deacon_core6doctor16sanitize_secretss_0B5_
FNDA:4,_RNCNvNtCshLLWmVuQQJZ_11deacon_core6doctor20collect_host_os_info0B5_
FNDA:0,_RNCNvNtCshLLWmVuQQJZ_11deacon_core6doctor20collect_host_os_infos_0B5_
FNDA:0,_RNCNvNtCshLLWmVuQQJZ_11deacon_core6doctor23collect_disk_space_info0B5_
FNDA:0,_RNCNvNtCshLLWmVuQQJZ_11deacon_core6doctor29collect_config_discovery_info0B5_
FNDA:0,_RNCNvNtCshLLWmVuQQJZ_11deacon_core6doctor29collect_config_discovery_infos_0B5_
FNDA:4,_RNvMNtCshLLWmVuQQJZ_11deacon_core6doctorNtNtB4_6docker9CliDocker11get_version
FNDA:4,_RNvMNtCshLLWmVuQQJZ_11deacon_core6doctorNtNtB4_6docker9CliDocker16get_info_summary
FNDA:0,_RNCNCNvMNtCshLLWmVuQQJZ_11deacon_core6doctorNtNtB8_6docker9CliDocker11get_version00B8_
FNDA:0,_RNCNCNvMNtCshLLWmVuQQJZ_11deacon_core6doctorNtNtB8_6docker9CliDocker11get_version0s_0B8_
FNDA:0,_RNCNCNvMNtCshLLWmVuQQJZ_11deacon_core6doctorNtNtB8_6docker9CliDocker16get_info_summary00B8_
FNDA:0,_RNCNCNvNtCshLLWmVuQQJZ_11deacon_core6doctor10run_doctor00B7_
FNDA:0,_RNCNCNvNtCshLLWmVuQQJZ_11deacon_core6doctor21create_support_bundle00B7_
FNDA:0,_RNCNCNvNtCshLLWmVuQQJZ_11deacon_core6doctor21create_support_bundle0s0_0B7_
FNDA:0,_RNCNCNvNtCshLLWmVuQQJZ_11deacon_core6doctor21create_support_bundle0s1_0B7_
FNDA:0,_RNCNCNvNtCshLLWmVuQQJZ_11deacon_core6doctor21create_support_bundle0s2_0B7_
FNDA:0,_RNCNCNvNtCshLLWmVuQQJZ_11deacon_core6doctor21create_support_bundle0s3_0B7_
FNDA:0,_RNCNCNvNtCshLLWmVuQQJZ_11deacon_core6doctor21create_support_bundle0s4_0B7_
FNDA:0,_RNCNCNvNtCshLLWmVuQQJZ_11deacon_core6doctor21create_support_bundle0s5_0B7_
FNDA:0,_RNCNCNvNtCshLLWmVuQQJZ_11deacon_core6doctor21create_support_bundle0s6_0B7_
FNDA:0,_RNCNCNvNtCshLLWmVuQQJZ_11deacon_core6doctor21create_support_bundle0s7_0B7_
FNDA:0,_RNCNCNvNtCshLLWmVuQQJZ_11deacon_core6doctor21create_support_bundle0s8_0B7_
FNDA:0,_RNCNCNvNtCshLLWmVuQQJZ_11deacon_core6doctor21create_support_bundle0s_0B7_
FNDA:0,_RNCNvMNtCshLLWmVuQQJZ_11deacon_core6doctorNtNtB6_6docker9CliDocker11get_version0B6_
FNDA:0,_RNCNvMNtCshLLWmVuQQJZ_11deacon_core6doctorNtNtB6_6docker9CliDocker16get_info_summary0B6_
FNDA:0,_RNCNvNtCshLLWmVuQQJZ_11deacon_core6doctor10run_doctor0B5_
FNDA:0,_RNCNvNtCshLLWmVuQQJZ_11deacon_core6doctor19collect_cache_stats0B5_
FNDA:0,_RNCNvNtCshLLWmVuQQJZ_11deacon_core6doctor19collect_diagnostics0B5_
FNDA:0,_RNCNvNtCshLLWmVuQQJZ_11deacon_core6doctor19collect_docker_info0B5_
FNDA:0,_RNCNvNtCshLLWmVuQQJZ_11deacon_core6doctor21create_support_bundle0B5_
FNDA:0,_RNCNvNtCs1G9XuckPzNo_11deacon_core6doctor16sanitize_secrets0B5_
FNDA:0,_RNCNvNtCs1G9XuckPzNo_11deacon_core6doctor16sanitize_secretss_0B5_
FNDA:0,_RNCNCNvMNtCs1G9XuckPzNo_11deacon_core6doctorNtNtB8_6docker9CliDocker11get_version00B8_
FNDA:0,_RNCNCNvMNtCs1G9XuckPzNo_11deacon_core6doctorNtNtB8_6docker9CliDocker11get_version0s_0B8_
FNDA:0,_RNCNCNvMNtCs1G9XuckPzNo_11deacon_core6doctorNtNtB8_6docker9CliDocker16get_info_summary00B8_
FNDA:0,_RNCNCNvNtCs1G9XuckPzNo_11deacon_core6doctor10run_doctor00B7_
FNDA:0,_RNCNCNvNtCs1G9XuckPzNo_11deacon_core6doctor20collect_host_os_info00B7_
FNDA:0,_RNCNCNvNtCs1G9XuckPzNo_11deacon_core6doctor20collect_host_os_info0s_0B7_
FNDA:0,_RNCNCNvNtCs1G9XuckPzNo_11deacon_core6doctor21create_support_bundle00B7_
FNDA:0,_RNCNCNvNtCs1G9XuckPzNo_11deacon_core6doctor21create_support_bundle0s0_0B7_
FNDA:0,_RNCNCNvNtCs1G9XuckPzNo_11deacon_core6doctor21create_support_bundle0s1_0B7_
FNDA:0,_RNCNCNvNtCs1G9XuckPzNo_11deacon_core6doctor21create_support_bundle0s2_0B7_
FNDA:0,_RNCNCNvNtCs1G9XuckPzNo_11deacon_core6doctor21create_support_bundle0s3_0B7_
FNDA:0,_RNCNCNvNtCs1G9XuckPzNo_11deacon_core6doctor21create_support_bundle0s4_0B7_
FNDA:0,_RNCNCNvNtCs1G9XuckPzNo_11deacon_core6doctor21create_support_bundle0s5_0B7_
FNDA:0,_RNCNCNvNtCs1G9XuckPzNo_11deacon_core6doctor21create_support_bundle0s6_0B7_
FNDA:0,_RNCNCNvNtCs1G9XuckPzNo_11deacon_core6doctor21create_support_bundle0s7_0B7_
FNDA:0,_RNCNCNvNtCs1G9XuckPzNo_11deacon_core6doctor21create_support_bundle0s8_0B7_
FNDA:0,_RNCNCNvNtCs1G9XuckPzNo_11deacon_core6doctor21create_support_bundle0s_0B7_
FNDA:0,_RNCNvMNtCs1G9XuckPzNo_11deacon_core6doctorNtNtB6_6docker9CliDocker11get_version0B6_
FNDA:0,_RNCNvMNtCs1G9XuckPzNo_11deacon_core6doctorNtNtB6_6docker9CliDocker16get_info_summary0B6_
FNDA:0,_RNCNvNtCs1G9XuckPzNo_11deacon_core6doctor10run_doctor0B5_
FNDA:0,_RNCNvNtCs1G9XuckPzNo_11deacon_core6doctor19collect_cache_stats0B5_
FNDA:0,_RNCNvNtCs1G9XuckPzNo_11deacon_core6doctor19collect_diagnostics0B5_
FNDA:0,_RNCNvNtCs1G9XuckPzNo_11deacon_core6doctor19collect_docker_info0B5_
FNDA:0,_RNCNvNtCs1G9XuckPzNo_11deacon_core6doctor20collect_host_os_info0B5_
FNDA:0,_RNCNvNtCs1G9XuckPzNo_11deacon_core6doctor20collect_host_os_infos_0B5_
FNDA:0,_RNCNvNtCs1G9XuckPzNo_11deacon_core6doctor21create_support_bundle0B5_
FNDA:0,_RNCNvNtCs1G9XuckPzNo_11deacon_core6doctor23collect_disk_space_info0B5_
FNDA:0,_RNCNvNtCs1G9XuckPzNo_11deacon_core6doctor29collect_config_discovery_info0B5_
FNDA:0,_RNCNvNtCs1G9XuckPzNo_11deacon_core6doctor29collect_config_discovery_infos_0B5_
FNDA:0,_RNvMNtCs1G9XuckPzNo_11deacon_core6doctorNtNtB4_6docker9CliDocker11get_version
FNDA:0,_RNvMNtCs1G9XuckPzNo_11deacon_core6doctorNtNtB4_6docker9CliDocker16get_info_summary
FNDA:0,_RNvNtCs1G9XuckPzNo_11deacon_core6doctor10run_doctor
FNDA:0,_RNvNtCs1G9XuckPzNo_11deacon_core6doctor17print_text_output
FNDA:0,_RNvNtCs1G9XuckPzNo_11deacon_core6doctor19collect_cache_stats
FNDA:0,_RNvNtCs1G9XuckPzNo_11deacon_core6doctor19collect_diagnostics
FNDA:0,_RNvNtCs1G9XuckPzNo_11deacon_core6doctor19collect_docker_info
FNDA:0,_RNvNtCs1G9XuckPzNo_11deacon_core6doctor20collect_host_os_info
FNDA:0,_RNvNtCs1G9XuckPzNo_11deacon_core6doctor21collect_features_info
FNDA:0,_RNvNtCs1G9XuckPzNo_11deacon_core6doctor21create_support_bundle
FNDA:0,_RNvNtCs1G9XuckPzNo_11deacon_core6doctor23collect_disk_space_info
FNDA:0,_RNvNtCs1G9XuckPzNo_11deacon_core6doctor23collect_last_build_hash
FNDA:0,_RNvNtCs1G9XuckPzNo_11deacon_core6doctor29collect_config_discovery_info
FNDA:4,_RNvNtCs1G9XuckPzNo_11deacon_core6doctor16sanitize_secrets
FNDA:1,_RNvNtNtCs1G9XuckPzNo_11deacon_core6doctor5testss_32test_sanitize_secrets_no_secrets
FNDA:1,_RNvNtNtCs1G9XuckPzNo_11deacon_core6doctor5testss_33test_sanitize_secrets_quoted_keys
FNDA:1,_RNvNtNtCs1G9XuckPzNo_11deacon_core6doctor5testss_37test_sanitize_secrets_partial_matches
FNDA:1,_RNvNtNtCs1G9XuckPzNo_11deacon_core6doctor5testss_38test_sanitize_secrets_case_insensitive
FNF:49
FNH:28
DA:95,4
DA:96,4
DA:97,4
DA:98,4
DA:99,4
DA:100,4
DA:103,4
DA:106,4
DA:107,1
DA:108,0
DA:109,0
DA:110,0
DA:111,0
DA:112,1
DA:113,3
DA:114,3
DA:115,3
DA:118,4
DA:119,1
DA:120,1
DA:121,3
DA:123,4
DA:124,4
DA:127,4
DA:128,4
DA:130,4
DA:131,4
DA:132,4
DA:133,4
DA:134,4
DA:135,4
DA:136,4
DA:137,4
DA:139,4
DA:140,4
DA:141,4
DA:142,4
DA:143,4
DA:144,4
DA:145,4
DA:146,4
DA:147,4
DA:148,4
DA:149,4
DA:152,4
DA:153,4
DA:154,4
DA:157,4
DA:158,4
DA:159,4
DA:160,4
DA:161,4
DA:162,4
DA:163,4
DA:164,4
DA:165,4
DA:166,4
DA:167,4
DA:168,4
DA:169,4
DA:170,4
DA:171,0
DA:172,0
DA:173,0
DA:174,0
DA:176,0
DA:179,4
DA:180,4
DA:181,4
DA:182,4
DA:183,4
DA:184,4
DA:187,4
DA:188,4
DA:194,4
DA:197,4
DA:199,4
DA:200,0
DA:201,0
DA:202,0
DA:203,0
DA:204,0
DA:205,0
DA:206,4
DA:209,4
DA:212,4
DA:215,4
DA:216,4
DA:218,0
DA:221,4
DA:222,4
DA:223,4
DA:224,4
DA:225,4
DA:226,4
DA:239,4
DA:242,4
DA:243,4
DA:246,4
DA:251,4
DA:253,4
DA:254,4
DA:255,4
DA:257,4
DA:258,4
DA:259,4
DA:260,4
DA:261,4
DA:263,0
DA:264,0
DA:265,0
DA:266,0
DA:267,0
DA:280,4
DA:283,4
DA:284,4
DA:286,4
DA:287,4
DA:288,4
DA:289,4
DA:290,4
DA:293,4
DA:294,4
DA:295,4
DA:296,4
DA:297,4
DA:299,4
DA:300,4
DA:302,16
DA:303,12
DA:304,12
DA:305,0
DA:306,12
DA:309,4
DA:310,0
DA:312,4
DA:315,4
DA:316,4
DA:317,4
DA:318,4
DA:319,4
DA:320,4
DA:323,4
DA:324,4
DA:327,4
DA:328,4
DA:329,4
DA:330,4
DA:331,4
DA:333,4
DA:336,4
DA:337,4
DA:340,4
DA:341,4
DA:344,4
DA:345,4
DA:348,4
DA:349,4
DA:350,4
DA:351,4
DA:352,4
DA:355,3
DA:356,3
DA:357,3
DA:358,3
DA:360,3
DA:361,3
DA:363,3
DA:364,3
DA:365,3
DA:366,3
DA:367,3
DA:369,3
DA:370,3
DA:371,3
DA:372,3
DA:373,3
DA:374,3
DA:375,3
DA:376,3
DA:377,3
DA:378,3
DA:380,3
DA:381,3
DA:382,3
DA:383,3
DA:384,0
DA:385,3
DA:387,3
DA:388,3
DA:389,3
DA:390,3
DA:392,3
DA:393,3
DA:394,3
DA:396,3
DA:397,3
DA:399,3
DA:400,3
DA:401,0
DA:402,3
DA:403,3
DA:404,0
DA:405,3
DA:406,3
DA:407,3
DA:410,3
DA:412,3
DA:413,3
DA:415,3
DA:416,0
DA:417,0
DA:418,3
DA:419,3
DA:422,1
DA:423,1
DA:424,1
DA:425,1
DA:426,1
DA:427,1
DA:431,1
DA:432,0
DA:433,0
DA:434,0
DA:435,0
DA:437,1
DA:438,1
DA:439,1
DA:442,1
DA:443,0
DA:444,0
DA:445,0
DA:446,0
DA:447,1
DA:448,0
DA:449,0
DA:450,0
DA:451,0
DA:452,1
DA:453,0
DA:454,0
DA:455,0
DA:456,0
DA:459,1
DA:460,1
DA:462,1
DA:463,0
DA:464,0
DA:465,0
DA:466,0
DA:467,0
DA:468,0
DA:469,0
DA:470,0
DA:471,0
DA:472,0
DA:473,0
DA:474,0
DA:475,0
DA:476,0
DA:477,0
DA:482,1
DA:483,1
DA:484,1
DA:485,0
DA:486,0
DA:487,0
DA:488,0
DA:489,1
DA:490,1
DA:491,0
DA:492,0
DA:493,0
DA:494,0
DA:495,1
DA:496,0
DA:497,0
DA:498,0
DA:499,0
DA:500,0
DA:501,0
DA:503,1
DA:504,0
DA:505,0
DA:506,0
DA:507,0
DA:508,1
DA:509,1
DA:513,4
DA:514,4
DA:517,4
DA:518,4
DA:519,0
DA:520,0
DA:521,0
DA:522,0
DA:525,4
DA:526,4
DA:528,4
DA:529,0
DA:530,0
DA:531,0
DA:532,0
DA:534,4
DA:537,4
DA:538,4
DA:539,4
DA:542,4
DA:543,4
DA:544,4
DA:546,4
DA:547,4
DA:552,4
DA:553,4
DA:554,4
DA:555,4
DA:556,4
DA:557,4
DA:558,0
DA:559,0
DA:560,0
DA:561,0
DA:562,0
DA:564,4
DA:565,4
DA:566,4
DA:567,0
DA:568,0
DA:569,0
DA:570,0
DA:571,0
DA:572,4
DA:573,4
DA:574,4
DA:576,0
DA:577,0
DA:578,0
DA:580,4
DA:583,4
DA:584,4
DA:585,4
DA:586,4
DA:587,4
DA:588,4
DA:589,4
DA:590,4
DA:591,4
DA:592,0
DA:593,0
DA:594,0
DA:595,0
DA:596,0
DA:598,4
DA:601,4
DA:602,4
DA:603,4
DA:604,4
DA:605,4
DA:606,4
DA:607,4
DA:608,4
DA:610,0
DA:611,0
DA:612,0
DA:614,4
DA:622,1
DA:623,1
DA:624,1
DA:625,1
DA:626,1
DA:627,1
DA:628,1
DA:629,1
DA:630,1
DA:632,1
DA:634,1
DA:635,1
DA:636,1
DA:637,1
DA:638,1
DA:641,1
DA:642,1
DA:643,1
DA:644,1
DA:645,1
DA:646,1
DA:647,1
DA:648,1
DA:650,1
DA:652,1
DA:653,1
DA:654,1
DA:655,1
DA:658,1
DA:659,1
DA:660,1
DA:661,1
DA:662,1
DA:663,1
DA:664,1
DA:665,1
DA:667,1
DA:670,1
DA:671,1
DA:674,1
DA:675,1
DA:676,1
DA:677,1
DA:678,1
DA:679,1
DA:680,1
DA:681,1
DA:682,1
DA:684,1
DA:686,1
DA:687,1
DA:688,1
DA:689,1
DA:690,1
BRF:0
BRH:0
LF:466
LH:323
end_of_record
SF:/home/runner/work/deacon/deacon/crates/core/src/dotfiles.rs
FN:70,_RNCNCNCNvNtCshLLWmVuQQJZ_11deacon_core8dotfiles16clone_repository000B9_
FN:114,_RNCNCNCNvNtCshLLWmVuQQJZ_11deacon_core8dotfiles22execute_install_script000B9_
FN:168,_RNCNvNtCshLLWmVuQQJZ_11deacon_core8dotfiles14apply_dotfiles0B5_
FN:61,_RNCNvNtCshLLWmVuQQJZ_11deacon_core8dotfiles16clone_repository0B5_
FN:42,_RNCNvNtCshLLWmVuQQJZ_11deacon_core8dotfiles19check_git_available0B5_
FN:86,_RNCNvNtCshLLWmVuQQJZ_11deacon_core8dotfiles21detect_install_script0B5_
FN:105,_RNCNvNtCshLLWmVuQQJZ_11deacon_core8dotfiles22execute_install_script0B5_
FN:70,_RNCNCNCNvNtCs1G9XuckPzNo_11deacon_core8dotfiles16clone_repository000B9_
FN:114,_RNCNCNCNvNtCs1G9XuckPzNo_11deacon_core8dotfiles22execute_install_script000B9_
FN:168,_RNCNvNtCs1G9XuckPzNo_11deacon_core8dotfiles14apply_dotfiles0B5_
FN:61,_RNCNvNtCs1G9XuckPzNo_11deacon_core8dotfiles16clone_repository0B5_
FN:42,_RNCNvNtCs1G9XuckPzNo_11deacon_core8dotfiles19check_git_available0B5_
FN:86,_RNCNvNtCs1G9XuckPzNo_11deacon_core8dotfiles21detect_install_script0B5_
FN:105,_RNCNvNtCs1G9XuckPzNo_11deacon_core8dotfiles22execute_install_script0B5_
FN:208,_RNvNtNtCs1G9XuckPzNo_11deacon_core8dotfiles5testss_24test_check_git_available
FN:462,_RNvNtNtCs1G9XuckPzNo_11deacon_core8dotfiles5testss_27test_dotfiles_configuration
FN:475,_RNvNtNtCs1G9XuckPzNo_11deacon_core8dotfiles5testss_29test_dotfiles_options_default
FN:244,_RNvNtNtCs1G9XuckPzNo_11deacon_core8dotfiles5testss_35test_detect_install_script_priority
FN:268,_RNvNtNtCs1G9XuckPzNo_11deacon_core8dotfiles5testss_35test_execute_install_script_success
FN:259,_RNvNtNtCs1G9XuckPzNo_11deacon_core8dotfiles5testss_37test_detect_install_script_none_found
FN:300,_RNvNtNtCs1G9XuckPzNo_11deacon_core8dotfiles5testss_38test_apply_dotfiles_with_local_fixture
FN:231,_RNvNtNtCs1G9XuckPzNo_11deacon_core8dotfiles5testss_40test_detect_install_script_with_setup_sh
FN:391,_RNvNtNtCs1G9XuckPzNo_11deacon_core8dotfiles5testss_42test_apply_dotfiles_without_install_script
FN:218,_RNvNtNtCs1G9XuckPzNo_11deacon_core8dotfiles5testss_42test_detect_install_script_with_install_sh
FN:208,_RNCNvNtNtCs1G9XuckPzNo_11deacon_core8dotfiles5testss_24test_check_git_available0B7_
FN:244,_RNCNvNtNtCs1G9XuckPzNo_11deacon_core8dotfiles5testss_35test_detect_install_script_priority0B7_
FN:268,_RNCNvNtNtCs1G9XuckPzNo_11deacon_core8dotfiles5testss_35test_execute_install_script_success0B7_
FN:259,_RNCNvNtNtCs1G9XuckPzNo_11deacon_core8dotfiles5testss_37test_detect_install_script_none_found0B7_
FN:300,_RNCNvNtNtCs1G9XuckPzNo_11deacon_core8dotfiles5testss_38test_apply_dotfiles_with_local_fixture0B7_
FN:231,_RNCNvNtNtCs1G9XuckPzNo_11deacon_core8dotfiles5testss_40test_detect_install_script_with_setup_sh0B7_
FN:391,_RNCNvNtNtCs1G9XuckPzNo_11deacon_core8dotfiles5testss_42test_apply_dotfiles_without_install_script0B7_
FN:218,_RNCNvNtNtCs1G9XuckPzNo_11deacon_core8dotfiles5testss_42test_detect_install_script_with_install_sh0B7_
FN:164,_RNvNtCs1G9XuckPzNo_11deacon_core8dotfiles14apply_dotfiles
FN:61,_RNvNtCs1G9XuckPzNo_11deacon_core8dotfiles16clone_repository
FN:42,_RNvNtCs1G9XuckPzNo_11deacon_core8dotfiles19check_git_available
FN:86,_RNvNtCs1G9XuckPzNo_11deacon_core8dotfiles21detect_install_script
FN:105,_RNvNtCs1G9XuckPzNo_11deacon_core8dotfiles22execute_install_script
FNDA:0,_RNCNCNCNvNtCshLLWmVuQQJZ_11deacon_core8dotfiles16clone_repository000B9_
FNDA:0,_RNCNCNCNvNtCshLLWmVuQQJZ_11deacon_core8dotfiles22execute_install_script000B9_
FNDA:0,_RNCNvNtCshLLWmVuQQJZ_11deacon_core8dotfiles14apply_dotfiles0B5_
FNDA:0,_RNCNvNtCshLLWmVuQQJZ_11deacon_core8dotfiles16clone_repository0B5_
FNDA:0,_RNCNvNtCshLLWmVuQQJZ_11deacon_core8dotfiles19check_git_available0B5_
FNDA:0,_RNCNvNtCshLLWmVuQQJZ_11deacon_core8dotfiles21detect_install_script0B5_
FNDA:0,_RNCNvNtCshLLWmVuQQJZ_11deacon_core8dotfiles22execute_install_script0B5_
FNDA:0,_RNCNCNCNvNtCs1G9XuckPzNo_11deacon_core8dotfiles16clone_repository000B9_
FNDA:0,_RNCNCNCNvNtCs1G9XuckPzNo_11deacon_core8dotfiles22execute_install_script000B9_
FNDA:2,_RNCNvNtCs1G9XuckPzNo_11deacon_core8dotfiles14apply_dotfiles0B5_
FNDA:2,_RNCNvNtCs1G9XuckPzNo_11deacon_core8dotfiles16clone_repository0B5_
FNDA:3,_RNCNvNtCs1G9XuckPzNo_11deacon_core8dotfiles19check_git_available0B5_
FNDA:6,_RNCNvNtCs1G9XuckPzNo_11deacon_core8dotfiles21detect_install_script0B5_
FNDA:2,_RNCNvNtCs1G9XuckPzNo_11deacon_core8dotfiles22execute_install_script0B5_
FNDA:1,_RNvNtNtCs1G9XuckPzNo_11deacon_core8dotfiles5testss_24test_check_git_available
FNDA:1,_RNvNtNtCs1G9XuckPzNo_11deacon_core8dotfiles5testss_27test_dotfiles_configuration
FNDA:1,_RNvNtNtCs1G9XuckPzNo_11deacon_core8dotfiles5testss_29test_dotfiles_options_default
FNDA:1,_RNvNtNtCs1G9XuckPzNo_11deacon_core8dotfiles5testss_35test_detect_install_script_priority
FNDA:1,_RNvNtNtCs1G9XuckPzNo_11deacon_core8dotfiles5testss_35test_execute_install_script_success
FNDA:1,_RNvNtNtCs1G9XuckPzNo_11deacon_core8dotfiles5testss_37test_detect_install_script_none_found
FNDA:1,_RNvNtNtCs1G9XuckPzNo_11deacon_core8dotfiles5testss_38test_apply_dotfiles_with_local_fixture
FNDA:1,_RNvNtNtCs1G9XuckPzNo_11deacon_core8dotfiles5testss_40test_detect_install_script_with_setup_sh
FNDA:1,_RNvNtNtCs1G9XuckPzNo_11deacon_core8dotfiles5testss_42test_apply_dotfiles_without_install_script
FNDA:1,_RNvNtNtCs1G9XuckPzNo_11deacon_core8dotfiles5testss_42test_detect_install_script_with_install_sh
FNDA:1,_RNCNvNtNtCs1G9XuckPzNo_11deacon_core8dotfiles5testss_24test_check_git_available0B7_
FNDA:1,_RNCNvNtNtCs1G9XuckPzNo_11deacon_core8dotfiles5testss_35test_detect_install_script_priority0B7_
FNDA:1,_RNCNvNtNtCs1G9XuckPzNo_11deacon_core8dotfiles5testss_35test_execute_install_script_success0B7_
FNDA:1,_RNCNvNtNtCs1G9XuckPzNo_11deacon_core8dotfiles5testss_37test_detect_install_script_none_found0B7_
FNDA:1,_RNCNvNtNtCs1G9XuckPzNo_11deacon_core8dotfiles5testss_38test_apply_dotfiles_with_local_fixture0B7_
FNDA:1,_RNCNvNtNtCs1G9XuckPzNo_11deacon_core8dotfiles5testss_40test_detect_install_script_with_setup_sh0B7_
FNDA:1,_RNCNvNtNtCs1G9XuckPzNo_11deacon_core8dotfiles5testss_42test_apply_dotfiles_without_install_script0B7_
FNDA:1,_RNCNvNtNtCs1G9XuckPzNo_11deacon_core8dotfiles5testss_42test_detect_install_script_with_install_sh0B7_
FNDA:2,_RNvNtCs1G9XuckPzNo_11deacon_core8dotfiles14apply_dotfiles
FNDA:2,_RNvNtCs1G9XuckPzNo_11deacon_core8dotfiles16clone_repository
FNDA:3,_RNvNtCs1G9XuckPzNo_11deacon_core8dotfiles19check_git_available
FNDA:6,_RNvNtCs1G9XuckPzNo_11deacon_core8dotfiles21detect_install_script
FNDA:2,_RNvNtCs1G9XuckPzNo_11deacon_core8dotfiles22execute_install_script
FNF:30
FNH:28
DA:42,3
DA:57,3
DA:61,2
DA:70,0
DA:82,2
DA:86,6
DA:101,6
DA:105,2
DA:114,0
DA:140,2
DA:164,2
DA:165,2
DA:166,2
DA:167,2
DA:168,2
DA:198,2
DA:208,1
DA:210,1
DA:211,1
DA:212,1
DA:213,1
DA:214,1
DA:215,1
DA:218,1
DA:219,1
DA:220,1
DA:223,1
DA:224,1
DA:226,1
DA:227,1
DA:228,1
DA:231,1
DA:232,1
DA:233,1
DA:236,1
DA:237,1
DA:239,1
DA:240,1
DA:241,1
DA:244,1
DA:245,1
DA:246,1
DA:249,1
DA:250,1
DA:251,1
DA:252,1
DA:254,1
DA:255,1
DA:256,1
DA:259,1
DA:260,1
DA:261,1
DA:263,1
DA:264,1
DA:265,1
DA:268,1
DA:269,1
DA:270,1
DA:273,1
DA:274,1
DA:275,1
DA:276,1
DA:277,1
DA:279,1
DA:285,1
DA:286,1
DA:287,1
DA:290,1
DA:291,1
DA:294,1
DA:295,1
DA:296,1
DA:297,1
DA:300,1
DA:302,1
DA:303,1
DA:304,1
DA:305,1
DA:308,1
DA:309,1
DA:310,1
DA:311,1
DA:312,1
DA:314,1
DA:316,0
DA:317,1
DA:320,1
DA:321,1
DA:322,1
DA:323,1
DA:324,1
DA:325,1
DA:327,1
DA:328,1
DA:329,1
DA:330,1
DA:331,1
DA:332,1
DA:335,1
DA:336,1
DA:338,1
DA:339,1
DA:340,1
DA:341,1
DA:347,1
DA:348,1
DA:349,1
DA:353,1
DA:354,1
DA:355,1
DA:356,1
DA:357,1
DA:358,1
DA:360,1
DA:361,1
DA:362,1
DA:363,1
DA:364,1
DA:365,1
DA:368,1
DA:369,1
DA:371,1
DA:372,1
DA:374,1
DA:375,1
DA:376,1
DA:377,1
DA:380,1
DA:381,1
DA:384,1
DA:385,1
DA:386,1
DA:387,1
DA:388,1
DA:391,1
DA:393,1
DA:394,1
DA:395,1
DA:396,1
DA:399,1
DA:400,1
DA:401,1
DA:402,1
DA:403,1
DA:405,1
DA:407,0
DA:408,1
DA:411,1
DA:412,1
DA:413,1
DA:414,1
DA:415,1
DA:416,1
DA:418,1
DA:419,1
DA:420,1
DA:421,1
DA:422,1
DA:423,1
DA:426,1
DA:427,1
DA:430,1
DA:431,1
DA:432,1
DA:433,1
DA:434,1
DA:435,1
DA:437,1
DA:438,1
DA:439,1
DA:440,1
DA:441,1
DA:442,1
DA:445,1
DA:446,1
DA:448,1
DA:449,1
DA:451,1
DA:452,1
DA:453,1
DA:454,1
DA:457,1
DA:458,1
DA:459,1
DA:462,1
DA:463,1
DA:464,1
DA:465,1
DA:466,1
DA:467,1
DA:469,1
DA:470,1
DA:471,1
DA:472,1
DA:475,1
DA:476,1
DA:478,1
DA:479,1
BRF:0
BRH:0
LF:221
LH:216
end_of_record
SF:/home/runner/work/deacon/deacon/crates/core/src/env_probe.rs
FN:387,_RNCNCNvMs_NtCshLLWmVuQQJZ_11deacon_core9env_probeNtB8_17EnvironmentProber13get_unix_user00Ba_
FN:398,_RNCNCNvMs_NtCshLLWmVuQQJZ_11deacon_core9env_probeNtB8_17EnvironmentProber13get_unix_users_00Ba_
FN:384,_RNCNvMs_NtCshLLWmVuQQJZ_11deacon_core9env_probeNtB6_17EnvironmentProber13get_unix_user0B8_
FN:403,_RNCNvMs_NtCshLLWmVuQQJZ_11deacon_core9env_probeNtB6_17EnvironmentProber13get_unix_users0_0B8_
FN:404,_RNCNvMs_NtCshLLWmVuQQJZ_11deacon_core9env_probeNtB6_17EnvironmentProber13get_unix_users1_0B8_
FN:395,_RNCNvMs_NtCshLLWmVuQQJZ_11deacon_core9env_probeNtB6_17EnvironmentProber13get_unix_users_0B8_
FN:170,_RNCNvMs_NtCshLLWmVuQQJZ_11deacon_core9env_probeNtB6_17EnvironmentProber14get_shell_path0B8_
FN:178,_RNCNvMs_NtCshLLWmVuQQJZ_11deacon_core9env_probeNtB6_17EnvironmentProber14get_shell_paths_0B8_
FN:343,_RNCNvMs_NtCshLLWmVuQQJZ_11deacon_core9env_probeNtB6_17EnvironmentProber16parse_env_output0B8_
FN:249,_RNCNvMs_NtCshLLWmVuQQJZ_11deacon_core9env_probeNtB6_17EnvironmentProber19execute_shell_probe0B8_
FN:265,_RNCNvMs_NtCshLLWmVuQQJZ_11deacon_core9env_probeNtB6_17EnvironmentProber19execute_shell_probes_0B8_
FN:301,_RNCNvMs_NtCshLLWmVuQQJZ_11deacon_core9env_probeNtB6_17EnvironmentProber20execute_with_timeout0B8_
FN:308,_RNCNvMs_NtCshLLWmVuQQJZ_11deacon_core9env_probeNtB6_17EnvironmentProber20execute_with_timeouts_0B8_
FN:378,_RNvMs_NtCshLLWmVuQQJZ_11deacon_core9env_probeNtB4_17EnvironmentProber13get_unix_user
FN:167,_RNvMs_NtCshLLWmVuQQJZ_11deacon_core9env_probeNtB4_17EnvironmentProber14get_shell_path
FN:155,_RNvMs_NtCshLLWmVuQQJZ_11deacon_core9env_probeNtB4_17EnvironmentProber15get_remote_user
FN:329,_RNvMs_NtCshLLWmVuQQJZ_11deacon_core9env_probeNtB4_17EnvironmentProber16parse_env_output
FN:100,_RNvMs_NtCshLLWmVuQQJZ_11deacon_core9env_probeNtB4_17EnvironmentProber17probe_environment
FN:353,_RNvMs_NtCshLLWmVuQQJZ_11deacon_core9env_probeNtB4_17EnvironmentProber18merge_environments
FN:187,_RNvMs_NtCshLLWmVuQQJZ_11deacon_core9env_probeNtB4_17EnvironmentProber19execute_shell_probe
FN:286,_RNvMs_NtCshLLWmVuQQJZ_11deacon_core9env_probeNtB4_17EnvironmentProber20execute_with_timeout
FN:90,_RNvMs_NtCshLLWmVuQQJZ_11deacon_core9env_probeNtB4_17EnvironmentProber3new
FN:83,_RNvXNtCshLLWmVuQQJZ_11deacon_core9env_probeNtB2_17EnvironmentProberNtNtCs66KPHxksi63_4core7default7Default7default
FN:83,_RNvXNtCs1G9XuckPzNo_11deacon_core9env_probeNtB2_17EnvironmentProberNtNtCs66KPHxksi63_4core7default7Default7default
FN:387,_RNCNCNvMs_NtCs1G9XuckPzNo_11deacon_core9env_probeNtB8_17EnvironmentProber13get_unix_user00Ba_
FN:398,_RNCNCNvMs_NtCs1G9XuckPzNo_11deacon_core9env_probeNtB8_17EnvironmentProber13get_unix_users_00Ba_
FN:384,_RNCNvMs_NtCs1G9XuckPzNo_11deacon_core9env_probeNtB6_17EnvironmentProber13get_unix_user0B8_
FN:403,_RNCNvMs_NtCs1G9XuckPzNo_11deacon_core9env_probeNtB6_17EnvironmentProber13get_unix_users0_0B8_
FN:404,_RNCNvMs_NtCs1G9XuckPzNo_11deacon_core9env_probeNtB6_17EnvironmentProber13get_unix_users1_0B8_
FN:395,_RNCNvMs_NtCs1G9XuckPzNo_11deacon_core9env_probeNtB6_17EnvironmentProber13get_unix_users_0B8_
FN:170,_RNCNvMs_NtCs1G9XuckPzNo_11deacon_core9env_probeNtB6_17EnvironmentProber14get_shell_path0B8_
FN:178,_RNCNvMs_NtCs1G9XuckPzNo_11deacon_core9env_probeNtB6_17EnvironmentProber14get_shell_paths_0B8_
FN:343,_RNCNvMs_NtCs1G9XuckPzNo_11deacon_core9env_probeNtB6_17EnvironmentProber16parse_env_output0B8_
FN:249,_RNCNvMs_NtCs1G9XuckPzNo_11deacon_core9env_probeNtB6_17EnvironmentProber19execute_shell_probe0B8_
FN:265,_RNCNvMs_NtCs1G9XuckPzNo_11deacon_core9env_probeNtB6_17EnvironmentProber19execute_shell_probes_0B8_
FN:301,_RNCNvMs_NtCs1G9XuckPzNo_11deacon_core9env_probeNtB6_17EnvironmentProber20execute_with_timeout0B8_
FN:308,_RNCNvMs_NtCs1G9XuckPzNo_11deacon_core9env_probeNtB6_17EnvironmentProber20execute_with_timeouts_0B8_
FN:535,_RNvNtNtCs1G9XuckPzNo_11deacon_core9env_probe5testss_20test_get_remote_user
FN:551,_RNvNtNtCs1G9XuckPzNo_11deacon_core9env_probe5testss_21test_caching_behavior
FN:488,_RNvNtNtCs1G9XuckPzNo_11deacon_core9env_probe5testss_21test_parse_env_output
FN:450,_RNvNtNtCs1G9XuckPzNo_11deacon_core9env_probe5testss_25test_remote_user_creation
FN:527,_RNvNtNtCs1G9XuckPzNo_11deacon_core9env_probe5testss_28test_get_shell_path_fallback
FN:442,_RNvNtNtCs1G9XuckPzNo_11deacon_core9env_probe5testss_29test_probe_mode_serialization
FN:462,_RNvNtNtCs1G9XuckPzNo_11deacon_core9env_probe5testss_32test_environment_prober_creation
FN:468,_RNvNtNtCs1G9XuckPzNo_11deacon_core9env_probe5testss_32test_probe_environment_none_mode
FN:502,_RNvNtNtCs1G9XuckPzNo_11deacon_core9env_probe5testss_34test_merge_environments_precedence
FN:570,_RNvNtNtCs1G9XuckPzNo_11deacon_core9env_probe5testss_37test_different_modes_cache_separately
FN:476,_RNvNtNtCs1G9XuckPzNo_11deacon_core9env_probe5testss_38test_probe_environment_with_remote_env
FN:378,_RNvMs_NtCs1G9XuckPzNo_11deacon_core9env_probeNtB4_17EnvironmentProber13get_unix_user
FN:425,_RNvMs_NtCs1G9XuckPzNo_11deacon_core9env_probeNtB4_17EnvironmentProber14get_call_count
FN:167,_RNvMs_NtCs1G9XuckPzNo_11deacon_core9env_probeNtB4_17EnvironmentProber14get_shell_path
FN:155,_RNvMs_NtCs1G9XuckPzNo_11deacon_core9env_probeNtB4_17EnvironmentProber15get_remote_user
FN:329,_RNvMs_NtCs1G9XuckPzNo_11deacon_core9env_probeNtB4_17EnvironmentProber16parse_env_output
FN:431,_RNvMs_NtCs1G9XuckPzNo_11deacon_core9env_probeNtB4_17EnvironmentProber16reset_call_count
FN:100,_RNvMs_NtCs1G9XuckPzNo_11deacon_core9env_probeNtB4_17EnvironmentProber17probe_environment
FN:353,_RNvMs_NtCs1G9XuckPzNo_11deacon_core9env_probeNtB4_17EnvironmentProber18merge_environments
FN:187,_RNvMs_NtCs1G9XuckPzNo_11deacon_core9env_probeNtB4_17EnvironmentProber19execute_shell_probe
FN:286,_RNvMs_NtCs1G9XuckPzNo_11deacon_core9env_probeNtB4_17EnvironmentProber20execute_with_timeout
FN:90,_RNvMs_NtCs1G9XuckPzNo_11deacon_core9env_probeNtB4_17EnvironmentProber3new
FNDA:1,_RNCNCNvMs_NtCshLLWmVuQQJZ_11deacon_core9env_probeNtB8_17EnvironmentProber13get_unix_user00Ba_
FNDA:1,_RNCNCNvMs_NtCshLLWmVuQQJZ_11deacon_core9env_probeNtB8_17EnvironmentProber13get_unix_users_00Ba_
FNDA:1,_RNCNvMs_NtCshLLWmVuQQJZ_11deacon_core9env_probeNtB6_17EnvironmentProber13get_unix_user0B8_
FNDA:0,_RNCNvMs_NtCshLLWmVuQQJZ_11deacon_core9env_probeNtB6_17EnvironmentProber13get_unix_users0_0B8_
FNDA:0,_RNCNvMs_NtCshLLWmVuQQJZ_11deacon_core9env_probeNtB6_17EnvironmentProber13get_unix_users1_0B8_
FNDA:1,_RNCNvMs_NtCshLLWmVuQQJZ_11deacon_core9env_probeNtB6_17EnvironmentProber13get_unix_users_0B8_
FNDA:0,_RNCNvMs_NtCshLLWmVuQQJZ_11deacon_core9env_probeNtB6_17EnvironmentProber14get_shell_path0B8_
FNDA:0,_RNCNvMs_NtCshLLWmVuQQJZ_11deacon_core9env_probeNtB6_17EnvironmentProber14get_shell_paths_0B8_
FNDA:0,_RNCNvMs_NtCshLLWmVuQQJZ_11deacon_core9env_probeNtB6_17EnvironmentProber16parse_env_output0B8_
FNDA:0,_RNCNvMs_NtCshLLWmVuQQJZ_11deacon_core9env_probeNtB6_17EnvironmentProber19execute_shell_probe0B8_
FNDA:0,_RNCNvMs_NtCshLLWmVuQQJZ_11deacon_core9env_probeNtB6_17EnvironmentProber19execute_shell_probes_0B8_
FNDA:0,_RNCNvMs_NtCshLLWmVuQQJZ_11deacon_core9env_probeNtB6_17EnvironmentProber20execute_with_timeout0B8_
FNDA:0,_RNCNvMs_NtCshLLWmVuQQJZ_11deacon_core9env_probeNtB6_17EnvironmentProber20execute_with_timeouts_0B8_
FNDA:1,_RNvMs_NtCshLLWmVuQQJZ_11deacon_core9env_probeNtB4_17EnvironmentProber13get_unix_user
FNDA:10,_RNvMs_NtCshLLWmVuQQJZ_11deacon_core9env_probeNtB4_17EnvironmentProber14get_shell_path
FNDA:1,_RNvMs_NtCshLLWmVuQQJZ_11deacon_core9env_probeNtB4_17EnvironmentProber15get_remote_user
FNDA:0,_RNvMs_NtCshLLWmVuQQJZ_11deacon_core9env_probeNtB4_17EnvironmentProber16parse_env_output
FNDA:12,_RNvMs_NtCshLLWmVuQQJZ_11deacon_core9env_probeNtB4_17EnvironmentProber17probe_environment
FNDA:10,_RNvMs_NtCshLLWmVuQQJZ_11deacon_core9env_probeNtB4_17EnvironmentProber18merge_environments
FNDA:9,_RNvMs_NtCshLLWmVuQQJZ_11deacon_core9env_probeNtB4_17EnvironmentProber19execute_shell_probe
FNDA:0,_RNvMs_NtCshLLWmVuQQJZ_11deacon_core9env_probeNtB4_17EnvironmentProber20execute_with_timeout
FNDA:8,_RNvMs_NtCshLLWmVuQQJZ_11deacon_core9env_probeNtB4_17EnvironmentProber3new
FNDA:0,_RNvXNtCshLLWmVuQQJZ_11deacon_core9env_probeNtB2_17EnvironmentProberNtNtCs66KPHxksi63_4core7default7Default7default
FNDA:0,_RNvXNtCs1G9XuckPzNo_11deacon_core9env_probeNtB2_17EnvironmentProberNtNtCs66KPHxksi63_4core7default7Default7default
FNDA:1,_RNCNCNvMs_NtCs1G9XuckPzNo_11deacon_core9env_probeNtB8_17EnvironmentProber13get_unix_user00Ba_
FNDA:1,_RNCNCNvMs_NtCs1G9XuckPzNo_11deacon_core9env_probeNtB8_17EnvironmentProber13get_unix_users_00Ba_
FNDA:1,_RNCNvMs_NtCs1G9XuckPzNo_11deacon_core9env_probeNtB6_17EnvironmentProber13get_unix_user0B8_
FNDA:0,_RNCNvMs_NtCs1G9XuckPzNo_11deacon_core9env_probeNtB6_17EnvironmentProber13get_unix_users0_0B8_
FNDA:0,_RNCNvMs_NtCs1G9XuckPzNo_11deacon_core9env_probeNtB6_17EnvironmentProber13get_unix_users1_0B8_
FNDA:1,_RNCNvMs_NtCs1G9XuckPzNo_11deacon_core9env_probeNtB6_17EnvironmentProber13get_unix_users_0B8_
FNDA:0,_RNCNvMs_NtCs1G9XuckPzNo_11deacon_core9env_probeNtB6_17EnvironmentProber14get_shell_path0B8_
FNDA:0,_RNCNvMs_NtCs1G9XuckPzNo_11deacon_core9env_probeNtB6_17EnvironmentProber14get_shell_paths_0B8_
FNDA:13,_RNCNvMs_NtCs1G9XuckPzNo_11deacon_core9env_probeNtB6_17EnvironmentProber16parse_env_output0B8_
FNDA:0,_RNCNvMs_NtCs1G9XuckPzNo_11deacon_core9env_probeNtB6_17EnvironmentProber19execute_shell_probe0B8_
FNDA:0,_RNCNvMs_NtCs1G9XuckPzNo_11deacon_core9env_probeNtB6_17EnvironmentProber19execute_shell_probes_0B8_
FNDA:0,_RNCNvMs_NtCs1G9XuckPzNo_11deacon_core9env_probeNtB6_17EnvironmentProber20execute_with_timeout0B8_
FNDA:0,_RNCNvMs_NtCs1G9XuckPzNo_11deacon_core9env_probeNtB6_17EnvironmentProber20execute_with_timeouts_0B8_
FNDA:1,_RNvNtNtCs1G9XuckPzNo_11deacon_core9env_probe5testss_20test_get_remote_user
FNDA:1,_RNvNtNtCs1G9XuckPzNo_11deacon_core9env_probe5testss_21test_caching_behavior
FNDA:1,_RNvNtNtCs1G9XuckPzNo_11deacon_core9env_probe5testss_21test_parse_env_output
FNDA:1,_RNvNtNtCs1G9XuckPzNo_11deacon_core9env_probe5testss_25test_remote_user_creation
FNDA:1,_RNvNtNtCs1G9XuckPzNo_11deacon_core9env_probe5testss_28test_get_shell_path_fallback
FNDA:1,_RNvNtNtCs1G9XuckPzNo_11deacon_core9env_probe5testss_29test_probe_mode_serialization
FNDA:1,_RNvNtNtCs1G9XuckPzNo_11deacon_core9env_probe5testss_32test_environment_prober_creation
FNDA:1,_RNvNtNtCs1G9XuckPzNo_11deacon_core9env_probe5testss_32test_probe_environment_none_mode
FNDA:1,_RNvNtNtCs1G9XuckPzNo_11deacon_core9env_probe5testss_34test_merge_environments_precedence
FNDA:1,_RNvNtNtCs1G9XuckPzNo_11deacon_core9env_probe5testss_37test_different_modes_cache_separately
FNDA:1,_RNvNtNtCs1G9XuckPzNo_11deacon_core9env_probe5testss_38test_probe_environment_with_remote_env
FNDA:1,_RNvMs_NtCs1G9XuckPzNo_11deacon_core9env_probeNtB4_17EnvironmentProber13get_unix_user
FNDA:4,_RNvMs_NtCs1G9XuckPzNo_11deacon_core9env_probeNtB4_17EnvironmentProber14get_call_count
FNDA:5,_RNvMs_NtCs1G9XuckPzNo_11deacon_core9env_probeNtB4_17EnvironmentProber14get_shell_path
FNDA:1,_RNvMs_NtCs1G9XuckPzNo_11deacon_core9env_probeNtB4_17EnvironmentProber15get_remote_user
FNDA:1,_RNvMs_NtCs1G9XuckPzNo_11deacon_core9env_probeNtB4_17EnvironmentProber16parse_env_output
FNDA:2,_RNvMs_NtCs1G9XuckPzNo_11deacon_core9env_probeNtB4_17EnvironmentProber16reset_call_count
FNDA:6,_RNvMs_NtCs1G9XuckPzNo_11deacon_core9env_probeNtB4_17EnvironmentProber17probe_environment
FNDA:5,_RNvMs_NtCs1G9XuckPzNo_11deacon_core9env_probeNtB4_17EnvironmentProber18merge_environments
FNDA:3,_RNvMs_NtCs1G9XuckPzNo_11deacon_core9env_probeNtB4_17EnvironmentProber19execute_shell_probe
FNDA:0,_RNvMs_NtCs1G9XuckPzNo_11deacon_core9env_probeNtB4_17EnvironmentProber20execute_with_timeout
FNDA:9,_RNvMs_NtCs1G9XuckPzNo_11deacon_core9env_probeNtB4_17EnvironmentProber3new
FNF:36
FNH:26
DA:83,0
DA:84,0
DA:85,0
DA:90,17
DA:91,17
DA:92,17
DA:93,17
DA:94,17
DA:95,17
DA:96,17
DA:100,18
DA:101,18
DA:102,18
DA:103,18
DA:104,18
DA:106,18
DA:107,4
DA:108,4
DA:109,14
DA:112,14
DA:113,14
DA:114,14
DA:115,14
DA:116,14
DA:120,14
DA:121,14
DA:122,2
DA:123,0
DA:126,2
DA:127,12
DA:131,12
DA:133,12
DA:134,0
DA:139,12
DA:140,12
DA:141,12
DA:142,12
DA:145,3
DA:146,3
DA:147,3
DA:148,3
DA:150,12
DA:151,18
DA:155,2
DA:158,2
DA:164,2
DA:167,15
DA:168,15
DA:169,15
DA:170,15
DA:172,0
DA:173,0
DA:175,0
DA:177,0
DA:178,15
DA:179,0
DA:180,0
DA:181,0
DA:182,0
DA:183,15
DA:187,12
DA:189,12
DA:190,0
DA:191,0
DA:192,0
DA:193,0
DA:194,0
DA:195,12
DA:197,12
DA:201,12
DA:202,0
DA:203,0
DA:206,12
DA:207,0
DA:208,12
DA:214,12
DA:215,0
DA:219,12
DA:220,12
DA:221,12
DA:222,12
DA:223,0
DA:225,0
DA:226,0
DA:227,0
DA:228,0
DA:229,0
DA:230,0
DA:231,0
DA:232,0
DA:233,0
DA:234,0
DA:235,0
DA:238,0
DA:241,0
DA:242,0
DA:244,0
DA:247,0
DA:248,0
DA:249,0
DA:250,0
DA:251,0
DA:252,0
DA:253,0
DA:254,0
DA:256,0
DA:257,0
DA:258,0
DA:259,0
DA:260,0
DA:261,0
DA:262,0
DA:263,0
DA:265,0
DA:266,0
DA:267,0
DA:268,0
DA:269,0
DA:271,0
DA:272,0
DA:274,0
DA:275,0
DA:279,0
DA:280,0
DA:281,0
DA:282,0
DA:283,12
DA:286,0
DA:287,0
DA:288,0
DA:289,0
DA:290,0
DA:296,0
DA:297,0
DA:298,0
DA:301,0
DA:302,0
DA:303,0
DA:304,0
DA:305,0
DA:308,0
DA:309,0
DA:310,0
DA:311,0
DA:312,0
DA:313,0
DA:315,0
DA:316,0
DA:317,0
DA:318,0
DA:320,0
DA:323,0
DA:325,0
DA:326,0
DA:329,1
DA:330,1
DA:332,5
DA:333,5
DA:334,5
DA:335,0
DA:336,5
DA:338,5
DA:339,4
DA:340,4
DA:343,13
DA:344,3
DA:345,3
DA:346,1
DA:349,1
DA:350,1
DA:353,15
DA:354,15
DA:355,15
DA:356,15
DA:357,15
DA:358,15
DA:361,15
DA:362,7
DA:363,5
DA:364,5
DA:365,1
DA:366,0
DA:369,4
DA:371,13
DA:373,15
DA:374,15
DA:378,2
DA:380,2
DA:381,2
DA:382,2
DA:383,2
DA:384,2
DA:385,2
DA:386,2
DA:387,2
DA:388,2
DA:389,2
DA:391,2
DA:392,2
DA:393,2
DA:394,2
DA:395,2
DA:396,2
DA:397,2
DA:398,2
DA:399,2
DA:400,2
DA:402,2
DA:403,2
DA:404,2
DA:406,2
DA:407,2
DA:425,4
DA:426,4
DA:427,4
DA:431,2
DA:432,2
DA:433,2
DA:442,1
DA:443,1
DA:444,1
DA:445,1
DA:446,1
DA:447,1
DA:450,1
DA:451,1
DA:452,1
DA:453,1
DA:454,1
DA:455,1
DA:456,1
DA:457,1
DA:458,1
DA:459,1
DA:462,1
DA:463,1
DA:464,1
DA:465,1
DA:468,1
DA:469,1
DA:470,1
DA:471,1
DA:472,1
DA:473,1
DA:476,1
DA:477,1
DA:478,1
DA:479,1
DA:481,1
DA:482,1
DA:483,1
DA:484,1
DA:485,1
DA:488,1
DA:489,1
DA:490,1
DA:492,1
DA:494,1
DA:495,1
DA:496,1
DA:497,1
DA:498,1
DA:499,1
DA:502,1
DA:503,1
DA:505,1
DA:506,1
DA:507,1
DA:509,1
DA:510,1
DA:511,1
DA:513,1
DA:516,1
DA:517,1
DA:518,1
DA:521,1
DA:523,1
DA:524,1
DA:527,1
DA:528,1
DA:529,1
DA:531,1
DA:532,1
DA:535,1
DA:536,1
DA:537,1
DA:540,1
DA:548,1
DA:551,1
DA:552,1
DA:553,1
DA:556,1
DA:557,1
DA:560,1
DA:561,1
DA:564,1
DA:565,1
DA:566,0
DA:567,1
DA:570,1
DA:571,1
DA:572,1
DA:575,1
DA:576,1
DA:580,1
BRF:0
BRH:0
LF:320
LH:213
end_of_record
SF:/home/runner/work/deacon/deacon/crates/core/src/errors.rs
FN:271,_RNvNtNtCs1G9XuckPzNo_11deacon_core6errors5testss_22test_git_error_display
FN:375,_RNvNtNtCs1G9XuckPzNo_11deacon_core6errors5testss_23test_anyhow_conversions
FN:398,_RNvNtNtCs1G9XuckPzNo_11deacon_core6errors5testss_23test_error_source_chain
FN:391,_RNvNtNtCs1G9XuckPzNo_11deacon_core6errors5testss_24test_io_error_conversion
FN:227,_RNvNtNtCs1G9XuckPzNo_11deacon_core6errors5testss_25test_config_error_display
FN:259,_RNvNtNtCs1G9XuckPzNo_11deacon_core6errors5testss_25test_docker_error_display
FN:292,_RNvNtNtCs1G9XuckPzNo_11deacon_core6errors5testss_26test_feature_error_display
FN:328,_RNvNtNtCs1G9XuckPzNo_11deacon_core6errors5testss_27test_internal_error_display
FN:298,_RNvNtNtCs1G9XuckPzNo_11deacon_core6errors5testss_27test_template_error_display
FN:344,_RNvNtNtCs1G9XuckPzNo_11deacon_core6errors5testss_36test_deacon_error_from_domain_errors
FNDA:1,_RNvNtNtCs1G9XuckPzNo_11deacon_core6errors5testss_22test_git_error_display
FNDA:1,_RNvNtNtCs1G9XuckPzNo_11deacon_core6errors5testss_23test_anyhow_conversions
FNDA:1,_RNvNtNtCs1G9XuckPzNo_11deacon_core6errors5testss_23test_error_source_chain
FNDA:1,_RNvNtNtCs1G9XuckPzNo_11deacon_core6errors5testss_24test_io_error_conversion
FNDA:1,_RNvNtNtCs1G9XuckPzNo_11deacon_core6errors5testss_25test_config_error_display
FNDA:1,_RNvNtNtCs1G9XuckPzNo_11deacon_core6errors5testss_25test_docker_error_display
FNDA:1,_RNvNtNtCs1G9XuckPzNo_11deacon_core6errors5testss_26test_feature_error_display
FNDA:1,_RNvNtNtCs1G9XuckPzNo_11deacon_core6errors5testss_27test_internal_error_display
FNDA:1,_RNvNtNtCs1G9XuckPzNo_11deacon_core6errors5testss_27test_template_error_display
FNDA:1,_RNvNtNtCs1G9XuckPzNo_11deacon_core6errors5testss_36test_deacon_error_from_domain_errors
FNF:10
FNH:10
DA:227,1
DA:228,1
DA:229,1
DA:230,1
DA:231,1
DA:232,1
DA:236,1
DA:237,1
DA:238,1
DA:239,1
DA:240,1
DA:244,1
DA:245,1
DA:246,1
DA:247,1
DA:249,1
DA:250,1
DA:251,1
DA:252,1
DA:253,1
DA:256,1
DA:259,1
DA:260,1
DA:261,1
DA:262,1
DA:266,1
DA:267,1
DA:268,1
DA:271,1
DA:272,1
DA:273,1
DA:274,1
DA:278,1
DA:279,1
DA:281,1
DA:282,1
DA:283,1
DA:287,1
DA:288,1
DA:289,1
DA:292,1
DA:293,1
DA:294,1
DA:295,1
DA:298,1
DA:299,1
DA:300,1
DA:302,1
DA:303,1
DA:304,1
DA:305,1
DA:306,1
DA:310,1
DA:311,1
DA:312,1
DA:313,1
DA:314,1
DA:318,1
DA:319,1
DA:320,1
DA:321,1
DA:322,1
DA:325,1
DA:328,1
DA:329,1
DA:330,1
DA:331,1
DA:332,1
DA:334,1
DA:335,1
DA:336,1
DA:337,1
DA:338,1
DA:341,1
DA:344,1
DA:345,1
DA:346,1
DA:347,1
DA:348,1
DA:349,1
DA:351,1
DA:352,1
DA:353,1
DA:355,1
DA:356,1
DA:357,1
DA:359,1
DA:360,1
DA:361,1
DA:363,1
DA:364,1
DA:365,1
DA:367,1
DA:368,1
DA:369,1
DA:370,1
DA:371,1
DA:372,1
DA:375,1
DA:376,1
DA:377,1
DA:378,1
DA:380,1
DA:381,1
DA:382,1
DA:383,1
DA:385,1
DA:386,1
DA:387,1
DA:388,1
DA:391,1
DA:392,1
DA:393,1
DA:394,1
DA:395,1
DA:398,1
DA:399,1
DA:400,1
DA:401,1
DA:404,1
DA:405,1
DA:406,1
DA:407,0
DA:408,1
BRF:0
BRH:0
LF:124
LH:123
end_of_record
SF:/home/runner/work/deacon/deacon/crates/core/src/features.rs
FN:67,_RNCNvMs_NtCshLLWmVuQQJZ_11deacon_core8featuresNtB6_13FeatureOption13default_value0B8_
FN:235,_RNCNvNtCshLLWmVuQQJZ_11deacon_core8features22parse_feature_metadata0B5_
FN:29,_RNvMNtCshLLWmVuQQJZ_11deacon_core8featuresNtB2_11OptionValue6as_str
FN:21,_RNvMNtCshLLWmVuQQJZ_11deacon_core8featuresNtB2_11OptionValue7as_bool
FN:181,_RNvMs0_NtCshLLWmVuQQJZ_11deacon_core8featuresNtB5_15FeatureMetadata22has_lifecycle_commands
FN:190,_RNvMs0_NtCshLLWmVuQQJZ_11deacon_core8featuresNtB5_15FeatureMetadata8validate
FN:264,_RNvMs1_NtCshLLWmVuQQJZ_11deacon_core8featuresNtB5_7Feature7install
FN:63,_RNvMs_NtCshLLWmVuQQJZ_11deacon_core8featuresNtB4_13FeatureOption13default_value
FN:73,_RNvMs_NtCshLLWmVuQQJZ_11deacon_core8featuresNtB4_13FeatureOption14validate_value
FN:218,_RNvNtCshLLWmVuQQJZ_11deacon_core8features22parse_feature_metadata
FN:264,_RNvMs1_NtCs1G9XuckPzNo_11deacon_core8featuresNtB5_7Feature7install
FN:29,_RNvMNtCs1G9XuckPzNo_11deacon_core8featuresNtB2_11OptionValue6as_str
FN:21,_RNvMNtCs1G9XuckPzNo_11deacon_core8featuresNtB2_11OptionValue7as_bool
FN:181,_RNvMs0_NtCs1G9XuckPzNo_11deacon_core8featuresNtB5_15FeatureMetadata22has_lifecycle_commands
FN:190,_RNvMs0_NtCs1G9XuckPzNo_11deacon_core8featuresNtB5_15FeatureMetadata8validate
FN:63,_RNvMs_NtCs1G9XuckPzNo_11deacon_core8featuresNtB4_13FeatureOption13default_value
FN:73,_RNvMs_NtCs1G9XuckPzNo_11deacon_core8featuresNtB4_13FeatureOption14validate_value
FN:218,_RNvNtCs1G9XuckPzNo_11deacon_core8features22parse_feature_metadata
FN:454,_RNvNtNtCs1G9XuckPzNo_11deacon_core8features5testss_23test_parse_invalid_json
FN:442,_RNvNtNtCs1G9XuckPzNo_11deacon_core8features5testss_27test_parse_nonexistent_file
FN:276,_RNvNtNtCs1G9XuckPzNo_11deacon_core8features5testss_29test_option_value_conversions
FN:310,_RNvNtNtCs1G9XuckPzNo_11deacon_core8features5testss_30test_feature_option_validation
FN:355,_RNvNtNtCs1G9XuckPzNo_11deacon_core8features5testss_31test_parse_feature_with_options
FN:412,_RNvNtNtCs1G9XuckPzNo_11deacon_core8features5testss_33test_parse_invalid_feature_schema
FN:287,_RNvNtNtCs1G9XuckPzNo_11deacon_core8features5testss_34test_feature_option_default_values
FN:337,_RNvNtNtCs1G9XuckPzNo_11deacon_core8features5testss_35test_parse_minimal_feature_metadata
FN:67,_RNCNvMs_NtCs1G9XuckPzNo_11deacon_core8featuresNtB6_13FeatureOption13default_value0B8_
FN:235,_RNCNvNtCs1G9XuckPzNo_11deacon_core8features22parse_feature_metadata0B5_
FNDA:8,_RNCNvMs_NtCshLLWmVuQQJZ_11deacon_core8featuresNtB6_13FeatureOption13default_value0B8_
FNDA:0,_RNCNvNtCshLLWmVuQQJZ_11deacon_core8features22parse_feature_metadata0B5_
FNDA:0,_RNvMNtCshLLWmVuQQJZ_11deacon_core8featuresNtB2_11OptionValue6as_str
FNDA:0,_RNvMNtCshLLWmVuQQJZ_11deacon_core8featuresNtB2_11OptionValue7as_bool
FNDA:10,_RNvMs0_NtCshLLWmVuQQJZ_11deacon_core8featuresNtB5_15FeatureMetadata22has_lifecycle_commands
FNDA:8,_RNvMs0_NtCshLLWmVuQQJZ_11deacon_core8featuresNtB5_15FeatureMetadata8validate
FNDA:0,_RNvMs1_NtCshLLWmVuQQJZ_11deacon_core8featuresNtB5_7Feature7install
FNDA:14,_RNvMs_NtCshLLWmVuQQJZ_11deacon_core8featuresNtB4_13FeatureOption13default_value
FNDA:18,_RNvMs_NtCshLLWmVuQQJZ_11deacon_core8featuresNtB4_13FeatureOption14validate_value
FNDA:8,_RNvNtCshLLWmVuQQJZ_11deacon_core8features22parse_feature_metadata
FNDA:0,_RNvMs1_NtCs1G9XuckPzNo_11deacon_core8featuresNtB5_7Feature7install
FNDA:2,_RNvMNtCs1G9XuckPzNo_11deacon_core8featuresNtB2_11OptionValue6as_str
FNDA:2,_RNvMNtCs1G9XuckPzNo_11deacon_core8featuresNtB2_11OptionValue7as_bool
FNDA:5,_RNvMs0_NtCs1G9XuckPzNo_11deacon_core8featuresNtB5_15FeatureMetadata22has_lifecycle_commands
FNDA:3,_RNvMs0_NtCs1G9XuckPzNo_11deacon_core8featuresNtB5_15FeatureMetadata8validate
FNDA:6,_RNvMs_NtCs1G9XuckPzNo_11deacon_core8featuresNtB4_13FeatureOption13default_value
FNDA:8,_RNvMs_NtCs1G9XuckPzNo_11deacon_core8featuresNtB4_13FeatureOption14validate_value
FNDA:5,_RNvNtCs1G9XuckPzNo_11deacon_core8features22parse_feature_metadata
FNDA:1,_RNvNtNtCs1G9XuckPzNo_11deacon_core8features5testss_23test_parse_invalid_json
FNDA:1,_RNvNtNtCs1G9XuckPzNo_11deacon_core8features5testss_27test_parse_nonexistent_file
FNDA:1,_RNvNtNtCs1G9XuckPzNo_11deacon_core8features5testss_29test_option_value_conversions
FNDA:1,_RNvNtNtCs1G9XuckPzNo_11deacon_core8features5testss_30test_feature_option_validation
FNDA:1,_RNvNtNtCs1G9XuckPzNo_11deacon_core8features5testss_31test_parse_feature_with_options
FNDA:1,_RNvNtNtCs1G9XuckPzNo_11deacon_core8features5testss_33test_parse_invalid_feature_schema
FNDA:1,_RNvNtNtCs1G9XuckPzNo_11deacon_core8features5testss_34test_feature_option_default_values
FNDA:1,_RNvNtNtCs1G9XuckPzNo_11deacon_core8features5testss_35test_parse_minimal_feature_metadata
FNDA:3,_RNCNvMs_NtCs1G9XuckPzNo_11deacon_core8featuresNtB6_13FeatureOption13default_value0B8_
FNDA:1,_RNCNvNtCs1G9XuckPzNo_11deacon_core8features22parse_feature_metadata0B5_
FNF:18
FNH:17
DA:21,2
DA:22,2
DA:23,1
DA:24,1
DA:26,2
DA:29,2
DA:30,2
DA:31,1
DA:32,1
DA:34,2
DA:63,20
DA:64,20
DA:65,9
DA:66,11
DA:67,11
DA:70,20
DA:73,26
DA:74,26
DA:75,9
DA:76,15
DA:77,15
DA:78,10
DA:79,8
DA:81,2
DA:82,2
DA:83,2
DA:84,2
DA:87,5
DA:90,2
DA:92,26
DA:181,15
DA:182,15
DA:183,10
DA:184,10
DA:185,10
DA:186,10
DA:187,15
DA:190,11
DA:192,11
DA:193,2
DA:194,2
DA:195,2
DA:196,9
DA:199,21
DA:200,12
DA:201,12
DA:202,0
DA:203,0
DA:204,0
DA:205,0
DA:206,0
DA:207,0
DA:208,12
DA:209,0
DA:212,9
DA:213,11
DA:218,13
DA:219,13
DA:222,13
DA:223,1
DA:224,1
DA:225,1
DA:226,1
DA:227,12
DA:230,12
DA:233,11
DA:234,12
DA:235,1
DA:236,1
DA:238,11
DA:239,0
DA:244,25
DA:245,14
DA:249,11
DA:250,3
DA:251,8
DA:254,11
DA:256,9
DA:257,13
DA:264,0
DA:265,0
DA:266,0
DA:276,1
DA:277,1
DA:278,1
DA:279,1
DA:281,1
DA:282,1
DA:283,1
DA:284,1
DA:287,1
DA:288,1
DA:289,1
DA:290,1
DA:291,1
DA:292,1
DA:293,1
DA:297,1
DA:298,1
DA:299,1
DA:300,1
DA:301,1
DA:302,1
DA:303,1
DA:304,1
DA:305,1
DA:307,1
DA:310,1
DA:311,1
DA:312,1
DA:313,1
DA:314,1
DA:315,1
DA:316,1
DA:317,1
DA:318,1
DA:319,1
DA:320,1
DA:322,1
DA:323,1
DA:324,1
DA:325,1
DA:326,1
DA:327,1
DA:328,1
DA:329,1
DA:330,1
DA:331,1
DA:332,1
DA:333,1
DA:334,1
DA:337,1
DA:338,1
DA:339,1
DA:340,1
DA:341,1
DA:342,1
DA:344,1
DA:345,1
DA:347,1
DA:348,1
DA:349,1
DA:350,1
DA:351,1
DA:352,1
DA:355,1
DA:356,1
DA:357,1
DA:358,1
DA:359,1
DA:360,1
DA:361,1
DA:362,1
DA:363,1
DA:364,1
DA:365,1
DA:366,1
DA:367,1
DA:368,1
DA:369,1
DA:370,1
DA:371,1
DA:372,1
DA:373,1
DA:374,1
DA:375,1
DA:376,1
DA:378,1
DA:379,1
DA:380,1
DA:381,1
DA:383,1
DA:384,1
DA:385,1
DA:386,1
DA:387,1
DA:390,1
DA:391,1
DA:392,1
DA:393,1
DA:395,0
DA:399,1
DA:400,1
DA:402,1
DA:404,1
DA:405,1
DA:407,0
DA:409,1
DA:412,1
DA:413,1
DA:414,1
DA:415,1
DA:416,1
DA:417,1
DA:418,1
DA:419,1
DA:420,1
DA:421,1
DA:422,1
DA:423,1
DA:424,1
DA:426,1
DA:427,1
DA:429,1
DA:430,1
DA:432,1
DA:433,1
DA:435,1
DA:437,0
DA:439,1
DA:442,1
DA:443,1
DA:444,1
DA:446,1
DA:447,1
DA:448,1
DA:449,0
DA:451,1
DA:454,1
DA:455,1
DA:456,1
DA:457,1
DA:458,1
DA:459,1
DA:460,1
DA:462,1
DA:463,1
DA:465,1
DA:466,1
DA:468,1
DA:469,1
DA:470,1
DA:471,0
DA:473,1
BRF:0
BRH:0
LF:236
LH:220
end_of_record
SF:/home/runner/work/deacon/deacon/crates/core/src/lib.rs
FN:32,_RNvCshLLWmVuQQJZ_11deacon_core7version
FN:41,_RNvNtCs1G9XuckPzNo_11deacon_core5testss_12test_version
FN:32,_RNvCs1G9XuckPzNo_11deacon_core7version
FNDA:4,_RNvCshLLWmVuQQJZ_11deacon_core7version
FNDA:1,_RNvNtCs1G9XuckPzNo_11deacon_core5testss_12test_version
FNDA:1,_RNvCs1G9XuckPzNo_11deacon_core7version
FNF:2
FNH:2
DA:32,5
DA:33,5
DA:34,5
DA:41,1
DA:42,1
DA:43,1
DA:44,1
DA:45,1
BRF:0
BRH:0
LF:8
LH:8
end_of_record
SF:/home/runner/work/deacon/deacon/crates/core/src/lifecycle.rs
FN:39,_RNvMNtCshLLWmVuQQJZ_11deacon_core9lifecycleNtB2_14LifecyclePhase6as_str
FN:177,_RNvMs0_NtCshLLWmVuQQJZ_11deacon_core9lifecycleNtB5_16ExecutionContext12with_timeout
FN:150,_RNvMs0_NtCshLLWmVuQQJZ_11deacon_core9lifecycleNtB5_16ExecutionContext13new_container
FN:189,_RNvMs0_NtCshLLWmVuQQJZ_11deacon_core9lifecycleNtB5_16ExecutionContext19with_container_user
FN:183,_RNvMs0_NtCshLLWmVuQQJZ_11deacon_core9lifecycleNtB5_16ExecutionContext21with_redaction_config
FN:171,_RNvMs0_NtCshLLWmVuQQJZ_11deacon_core9lifecycleNtB5_16ExecutionContext22with_working_directory
FN:206,_RNvMs0_NtCshLLWmVuQQJZ_11deacon_core9lifecycleNtB5_16ExecutionContext26with_container_working_dir
FN:139,_RNvMs0_NtCshLLWmVuQQJZ_11deacon_core9lifecycleNtB5_16ExecutionContext3new
FN:165,_RNvMs0_NtCshLLWmVuQQJZ_11deacon_core9lifecycleNtB5_16ExecutionContext8with_env
FN:255,_RNvMs2_NtCshLLWmVuQQJZ_11deacon_core9lifecycleNtB5_15LifecycleResult18add_command_result
FN:244,_RNvMs2_NtCshLLWmVuQQJZ_11deacon_core9lifecycleNtB5_15LifecycleResult3new
FN:69,_RNvMs_NtCshLLWmVuQQJZ_11deacon_core9lifecycleNtB4_17LifecycleCommands15from_json_value
FN:310,_RNvNtCshLLWmVuQQJZ_11deacon_core9lifecycle19run_phase_host_sync
FN:294,_RNvNtCshLLWmVuQQJZ_11deacon_core9lifecycle9run_phase
FN:222,_RNvXs1_NtCshLLWmVuQQJZ_11deacon_core9lifecycleNtB5_16ExecutionContextNtNtCs66KPHxksi63_4core7default7Default7default
FN:283,_RNvXs3_NtCshLLWmVuQQJZ_11deacon_core9lifecycleNtB5_15LifecycleResultNtNtCs66KPHxksi63_4core7default7Default7default
FN:358,_RNCNvNtCshLLWmVuQQJZ_11deacon_core9lifecycle19run_phase_host_sync0B5_
FN:387,_RNCNvNtCshLLWmVuQQJZ_11deacon_core9lifecycle19run_phase_host_syncs0_0B5_
FN:396,_RNCNvNtCshLLWmVuQQJZ_11deacon_core9lifecycle19run_phase_host_syncs1_0B5_
FN:376,_RNCNvNtCshLLWmVuQQJZ_11deacon_core9lifecycle19run_phase_host_syncs_0B5_
FN:358,_RNCNvNtCs1G9XuckPzNo_11deacon_core9lifecycle19run_phase_host_sync0B5_
FN:387,_RNCNvNtCs1G9XuckPzNo_11deacon_core9lifecycle19run_phase_host_syncs0_0B5_
FN:396,_RNCNvNtCs1G9XuckPzNo_11deacon_core9lifecycle19run_phase_host_syncs1_0B5_
FN:376,_RNCNvNtCs1G9XuckPzNo_11deacon_core9lifecycle19run_phase_host_syncs_0B5_
FN:177,_RNvMs0_NtCs1G9XuckPzNo_11deacon_core9lifecycleNtB5_16ExecutionContext12with_timeout
FN:150,_RNvMs0_NtCs1G9XuckPzNo_11deacon_core9lifecycleNtB5_16ExecutionContext13new_container
FN:189,_RNvMs0_NtCs1G9XuckPzNo_11deacon_core9lifecycleNtB5_16ExecutionContext19with_container_user
FN:183,_RNvMs0_NtCs1G9XuckPzNo_11deacon_core9lifecycleNtB5_16ExecutionContext21with_redaction_config
FN:206,_RNvMs0_NtCs1G9XuckPzNo_11deacon_core9lifecycleNtB5_16ExecutionContext26with_container_working_dir
FN:310,_RNvNtCs1G9XuckPzNo_11deacon_core9lifecycle19run_phase_host_sync
FN:294,_RNvNtCs1G9XuckPzNo_11deacon_core9lifecycle9run_phase
FN:222,_RNvXs1_NtCs1G9XuckPzNo_11deacon_core9lifecycleNtB5_16ExecutionContextNtNtCs66KPHxksi63_4core7default7Default7default
FN:283,_RNvXs3_NtCs1G9XuckPzNo_11deacon_core9lifecycleNtB5_15LifecycleResultNtNtCs66KPHxksi63_4core7default7Default7default
FN:446,_RNvNtNtCs1G9XuckPzNo_11deacon_core9lifecycle5testss_27test_lifecycle_phase_as_str
FN:496,_RNvNtNtCs1G9XuckPzNo_11deacon_core9lifecycle5testss_30test_lifecycle_result_creation
FN:483,_RNvNtNtCs1G9XuckPzNo_11deacon_core9lifecycle5testss_31test_execution_context_creation
FN:465,_RNvNtNtCs1G9XuckPzNo_11deacon_core9lifecycle5testss_34test_lifecycle_commands_from_array
FN:456,_RNvNtNtCs1G9XuckPzNo_11deacon_core9lifecycle5testss_35test_lifecycle_commands_from_string
FN:475,_RNvNtNtCs1G9XuckPzNo_11deacon_core9lifecycle5testss_38test_lifecycle_commands_invalid_format
FN:39,_RNvMNtCs1G9XuckPzNo_11deacon_core9lifecycleNtB2_14LifecyclePhase6as_str
FN:171,_RNvMs0_NtCs1G9XuckPzNo_11deacon_core9lifecycleNtB5_16ExecutionContext22with_working_directory
FN:139,_RNvMs0_NtCs1G9XuckPzNo_11deacon_core9lifecycleNtB5_16ExecutionContext3new
FN:165,_RNvMs0_NtCs1G9XuckPzNo_11deacon_core9lifecycleNtB5_16ExecutionContext8with_env
FN:255,_RNvMs2_NtCs1G9XuckPzNo_11deacon_core9lifecycleNtB5_15LifecycleResult18add_command_result
FN:244,_RNvMs2_NtCs1G9XuckPzNo_11deacon_core9lifecycleNtB5_15LifecycleResult3new
FN:69,_RNvMs_NtCs1G9XuckPzNo_11deacon_core9lifecycleNtB4_17LifecycleCommands15from_json_value
FNDA:69,_RNvMNtCshLLWmVuQQJZ_11deacon_core9lifecycleNtB2_14LifecyclePhase6as_str
FNDA:0,_RNvMs0_NtCshLLWmVuQQJZ_11deacon_core9lifecycleNtB5_16ExecutionContext12with_timeout
FNDA:0,_RNvMs0_NtCshLLWmVuQQJZ_11deacon_core9lifecycleNtB5_16ExecutionContext13new_container
FNDA:0,_RNvMs0_NtCshLLWmVuQQJZ_11deacon_core9lifecycleNtB5_16ExecutionContext19with_container_user
FNDA:5,_RNvMs0_NtCshLLWmVuQQJZ_11deacon_core9lifecycleNtB5_16ExecutionContext21with_redaction_config
FNDA:1,_RNvMs0_NtCshLLWmVuQQJZ_11deacon_core9lifecycleNtB5_16ExecutionContext22with_working_directory
FNDA:0,_RNvMs0_NtCshLLWmVuQQJZ_11deacon_core9lifecycleNtB5_16ExecutionContext26with_container_working_dir
FNDA:18,_RNvMs0_NtCshLLWmVuQQJZ_11deacon_core9lifecycleNtB5_16ExecutionContext3new
FNDA:1,_RNvMs0_NtCshLLWmVuQQJZ_11deacon_core9lifecycleNtB5_16ExecutionContext8with_env
FNDA:21,_RNvMs2_NtCshLLWmVuQQJZ_11deacon_core9lifecycleNtB5_15LifecycleResult18add_command_result
FNDA:18,_RNvMs2_NtCshLLWmVuQQJZ_11deacon_core9lifecycleNtB5_15LifecycleResult3new
FNDA:22,_RNvMs_NtCshLLWmVuQQJZ_11deacon_core9lifecycleNtB4_17LifecycleCommands15from_json_value
FNDA:18,_RNvNtCshLLWmVuQQJZ_11deacon_core9lifecycle19run_phase_host_sync
FNDA:18,_RNvNtCshLLWmVuQQJZ_11deacon_core9lifecycle9run_phase
FNDA:0,_RNvXs1_NtCshLLWmVuQQJZ_11deacon_core9lifecycleNtB5_16ExecutionContextNtNtCs66KPHxksi63_4core7default7Default7default
FNDA:0,_RNvXs3_NtCshLLWmVuQQJZ_11deacon_core9lifecycleNtB5_15LifecycleResultNtNtCs66KPHxksi63_4core7default7Default7default
FNDA:0,_RNCNvNtCshLLWmVuQQJZ_11deacon_core9lifecycle19run_phase_host_sync0B5_
FNDA:0,_RNCNvNtCshLLWmVuQQJZ_11deacon_core9lifecycle19run_phase_host_syncs0_0B5_
FNDA:0,_RNCNvNtCshLLWmVuQQJZ_11deacon_core9lifecycle19run_phase_host_syncs1_0B5_
FNDA:0,_RNCNvNtCshLLWmVuQQJZ_11deacon_core9lifecycle19run_phase_host_syncs_0B5_
FNDA:0,_RNCNvNtCs1G9XuckPzNo_11deacon_core9lifecycle19run_phase_host_sync0B5_
FNDA:0,_RNCNvNtCs1G9XuckPzNo_11deacon_core9lifecycle19run_phase_host_syncs0_0B5_
FNDA:0,_RNCNvNtCs1G9XuckPzNo_11deacon_core9lifecycle19run_phase_host_syncs1_0B5_
FNDA:0,_RNCNvNtCs1G9XuckPzNo_11deacon_core9lifecycle19run_phase_host_syncs_0B5_
FNDA:0,_RNvMs0_NtCs1G9XuckPzNo_11deacon_core9lifecycleNtB5_16ExecutionContext12with_timeout
FNDA:0,_RNvMs0_NtCs1G9XuckPzNo_11deacon_core9lifecycleNtB5_16ExecutionContext13new_container
FNDA:0,_RNvMs0_NtCs1G9XuckPzNo_11deacon_core9lifecycleNtB5_16ExecutionContext19with_container_user
FNDA:0,_RNvMs0_NtCs1G9XuckPzNo_11deacon_core9lifecycleNtB5_16ExecutionContext21with_redaction_config
FNDA:0,_RNvMs0_NtCs1G9XuckPzNo_11deacon_core9lifecycleNtB5_16ExecutionContext26with_container_working_dir
FNDA:0,_RNvNtCs1G9XuckPzNo_11deacon_core9lifecycle19run_phase_host_sync
FNDA:0,_RNvNtCs1G9XuckPzNo_11deacon_core9lifecycle9run_phase
FNDA:0,_RNvXs1_NtCs1G9XuckPzNo_11deacon_core9lifecycleNtB5_16ExecutionContextNtNtCs66KPHxksi63_4core7default7Default7default
FNDA:0,_RNvXs3_NtCs1G9XuckPzNo_11deacon_core9lifecycleNtB5_15LifecycleResultNtNtCs66KPHxksi63_4core7default7Default7default
FNDA:1,_RNvNtNtCs1G9XuckPzNo_11deacon_core9lifecycle5testss_27test_lifecycle_phase_as_str
FNDA:1,_RNvNtNtCs1G9XuckPzNo_11deacon_core9lifecycle5testss_30test_lifecycle_result_creation
FNDA:1,_RNvNtNtCs1G9XuckPzNo_11deacon_core9lifecycle5testss_31test_execution_context_creation
FNDA:1,_RNvNtNtCs1G9XuckPzNo_11deacon_core9lifecycle5testss_34test_lifecycle_commands_from_array
FNDA:1,_RNvNtNtCs1G9XuckPzNo_11deacon_core9lifecycle5testss_35test_lifecycle_commands_from_string
FNDA:1,_RNvNtNtCs1G9XuckPzNo_11deacon_core9lifecycle5testss_38test_lifecycle_commands_invalid_format
FNDA:6,_RNvMNtCs1G9XuckPzNo_11deacon_core9lifecycleNtB2_14LifecyclePhase6as_str
FNDA:1,_RNvMs0_NtCs1G9XuckPzNo_11deacon_core9lifecycleNtB5_16ExecutionContext22with_working_directory
FNDA:1,_RNvMs0_NtCs1G9XuckPzNo_11deacon_core9lifecycleNtB5_16ExecutionContext3new
FNDA:1,_RNvMs0_NtCs1G9XuckPzNo_11deacon_core9lifecycleNtB5_16ExecutionContext8with_env
FNDA:2,_RNvMs2_NtCs1G9XuckPzNo_11deacon_core9lifecycleNtB5_15LifecycleResult18add_command_result
FNDA:1,_RNvMs2_NtCs1G9XuckPzNo_11deacon_core9lifecycleNtB5_15LifecycleResult3new
FNDA:3,_RNvMs_NtCs1G9XuckPzNo_11deacon_core9lifecycleNtB4_17LifecycleCommands15from_json_value
FNF:26
FNH:16
DA:39,75
DA:40,75
DA:41,11
DA:42,13
DA:43,14
DA:44,14
DA:45,13
DA:46,10
DA:48,75
DA:69,25
DA:70,25
DA:71,13
DA:72,13
DA:73,13
DA:74,13
DA:75,13
DA:77,10
DA:78,10
DA:79,27
DA:80,18
DA:81,17
DA:82,17
DA:83,17
DA:84,17
DA:85,17
DA:86,1
DA:87,1
DA:88,1
DA:89,1
DA:92,9
DA:95,2
DA:96,2
DA:97,2
DA:98,2
DA:102,22
DA:103,25
DA:139,19
DA:140,19
DA:141,19
DA:142,19
DA:143,19
DA:144,19
DA:145,19
DA:146,19
DA:147,19
DA:150,0
DA:151,0
DA:152,0
DA:153,0
DA:154,0
DA:155,0
DA:156,0
DA:157,0
DA:158,0
DA:159,0
DA:160,0
DA:161,0
DA:162,0
DA:165,2
DA:166,2
DA:167,2
DA:168,2
DA:171,2
DA:172,2
DA:173,2
DA:174,2
DA:177,0
DA:178,0
DA:179,0
DA:180,0
DA:183,5
DA:184,5
DA:185,5
DA:186,5
DA:189,0
DA:191,0
DA:192,0
DA:194,0
DA:195,0
DA:196,0
DA:197,0
DA:198,0
DA:199,0
DA:200,0
DA:201,0
DA:202,0
DA:203,0
DA:206,0
DA:208,0
DA:209,0
DA:210,0
DA:211,0
DA:212,0
DA:213,0
DA:214,0
DA:215,0
DA:216,0
DA:217,0
DA:218,0
DA:222,0
DA:223,0
DA:224,0
DA:244,19
DA:245,19
DA:246,19
DA:247,19
DA:248,19
DA:249,19
DA:250,19
DA:251,19
DA:252,19
DA:255,23
DA:256,23
DA:257,23
DA:258,23
DA:259,23
DA:260,23
DA:261,23
DA:262,23
DA:263,23
DA:264,23
DA:265,19
DA:266,2
DA:267,17
DA:268,19
DA:269,4
DA:270,23
DA:271,4
DA:272,0
DA:273,4
DA:274,4
DA:275,19
DA:276,23
DA:277,2
DA:278,21
DA:279,23
DA:283,0
DA:284,0
DA:285,0
DA:294,18
DA:295,18
DA:296,18
DA:297,18
DA:298,18
DA:299,18
DA:300,18
DA:301,0
DA:302,0
DA:303,0
DA:304,0
DA:306,18
DA:310,18
DA:311,18
DA:312,18
DA:313,18
DA:314,18
DA:315,18
DA:317,21
DA:318,21
DA:319,0
DA:320,0
DA:321,0
DA:322,0
DA:326,21
DA:329,21
DA:330,0
DA:331,0
DA:332,0
DA:334,21
DA:335,21
DA:336,21
DA:340,21
DA:341,1
DA:342,20
DA:346,22
DA:347,1
DA:348,1
DA:349,22
DA:350,1
DA:351,1
DA:354,21
DA:355,21
DA:358,21
DA:359,0
DA:360,0
DA:361,0
DA:362,0
DA:363,0
DA:364,0
DA:367,21
DA:368,21
DA:370,21
DA:371,21
DA:374,21
DA:375,21
DA:376,21
DA:379,21
DA:380,21
DA:381,21
DA:385,21
DA:386,3
DA:387,3
DA:390,3
DA:391,3
DA:392,3
DA:396,21
DA:397,0
DA:398,0
DA:399,0
DA:400,0
DA:401,0
DA:402,0
DA:404,21
DA:405,21
DA:406,21
DA:407,21
DA:410,21
DA:411,21
DA:413,21
DA:414,0
DA:418,21
DA:421,21
DA:422,1
DA:423,1
DA:424,1
DA:427,1
DA:428,1
DA:429,1
DA:430,1
DA:431,1
DA:432,1
DA:433,20
DA:436,17
DA:437,17
DA:438,18
DA:446,1
DA:447,1
DA:448,1
DA:449,1
DA:450,1
DA:451,1
DA:452,1
DA:453,1
DA:456,1
DA:457,1
DA:458,1
DA:459,1
DA:460,1
DA:461,1
DA:462,1
DA:465,1
DA:466,1
DA:467,1
DA:468,1
DA:469,1
DA:470,1
DA:471,1
DA:472,1
DA:475,1
DA:476,1
DA:477,1
DA:478,1
DA:479,1
DA:480,1
DA:483,1
DA:484,1
DA:485,1
DA:486,1
DA:488,1
DA:489,1
DA:490,1
DA:492,1
DA:493,1
DA:496,1
DA:497,1
DA:498,1
DA:499,1
DA:501,1
DA:503,1
DA:504,1
DA:505,1
DA:507,1
DA:508,1
DA:509,1
DA:510,1
DA:512,1
DA:514,1
DA:515,1
DA:516,1
DA:518,1
DA:519,1
DA:520,1
DA:521,1
DA:522,1
BRF:0
BRH:0
LF:300
LH:221
end_of_record
SF:/home/runner/work/deacon/deacon/crates/core/src/logging.rs
FN:127,_RNvNtCshLLWmVuQQJZ_11deacon_core7logging14is_initialized
FN:107,_RNvNtCshLLWmVuQQJZ_11deacon_core7logging17create_env_filter
FN:58,_RNvNtCshLLWmVuQQJZ_11deacon_core7logging19init_with_redaction
FN:102,_RNvNtCshLLWmVuQQJZ_11deacon_core7logging4init
FN:110,_RNCNvNtCshLLWmVuQQJZ_11deacon_core7logging17create_env_filter0B5_
FN:119,_RNCNvNtCshLLWmVuQQJZ_11deacon_core7logging17create_env_filters_0B5_
FN:63,_RNCNvNtCshLLWmVuQQJZ_11deacon_core7logging19init_with_redaction0B5_
FN:127,_RNvNtCs1G9XuckPzNo_11deacon_core7logging14is_initialized
FN:107,_RNvNtCs1G9XuckPzNo_11deacon_core7logging17create_env_filter
FN:58,_RNvNtCs1G9XuckPzNo_11deacon_core7logging19init_with_redaction
FN:102,_RNvNtCs1G9XuckPzNo_11deacon_core7logging4init
FN:110,_RNCNvNtCs1G9XuckPzNo_11deacon_core7logging17create_env_filter0B5_
FN:119,_RNCNvNtCs1G9XuckPzNo_11deacon_core7logging17create_env_filters_0B5_
FN:63,_RNCNvNtCs1G9XuckPzNo_11deacon_core7logging19init_with_redaction0B5_
FN:194,_RNvNtNtCs1G9XuckPzNo_11deacon_core7logging5testss_16test_json_format
FN:185,_RNvNtNtCs1G9XuckPzNo_11deacon_core7logging5testss_19test_is_initialized
FN:161,_RNvNtNtCs1G9XuckPzNo_11deacon_core7logging5testss_24test_env_filter_creation
FN:150,_RNvNtNtCs1G9XuckPzNo_11deacon_core7logging5testss_26test_init_format_selection
FN:172,_RNvNtNtCs1G9XuckPzNo_11deacon_core7logging5testss_29test_env_filter_with_env_vars
FN:140,_RNvNtNtCs1G9XuckPzNo_11deacon_core7logging5testss_29test_init_multiple_calls_safe
FNDA:1,_RNvNtCshLLWmVuQQJZ_11deacon_core7logging14is_initialized
FNDA:39,_RNvNtCshLLWmVuQQJZ_11deacon_core7logging17create_env_filter
FNDA:55,_RNvNtCshLLWmVuQQJZ_11deacon_core7logging19init_with_redaction
FNDA:55,_RNvNtCshLLWmVuQQJZ_11deacon_core7logging4init
FNDA:0,_RNCNvNtCshLLWmVuQQJZ_11deacon_core7logging17create_env_filter0B5_
FNDA:2,_RNCNvNtCshLLWmVuQQJZ_11deacon_core7logging17create_env_filters_0B5_
FNDA:39,_RNCNvNtCshLLWmVuQQJZ_11deacon_core7logging19init_with_redaction0B5_
FNDA:1,_RNvNtCs1G9XuckPzNo_11deacon_core7logging14is_initialized
FNDA:5,_RNvNtCs1G9XuckPzNo_11deacon_core7logging17create_env_filter
FNDA:9,_RNvNtCs1G9XuckPzNo_11deacon_core7logging19init_with_redaction
FNDA:9,_RNvNtCs1G9XuckPzNo_11deacon_core7logging4init
FNDA:0,_RNCNvNtCs1G9XuckPzNo_11deacon_core7logging17create_env_filter0B5_
FNDA:3,_RNCNvNtCs1G9XuckPzNo_11deacon_core7logging17create_env_filters_0B5_
FNDA:1,_RNCNvNtCs1G9XuckPzNo_11deacon_core7logging19init_with_redaction0B5_
FNDA:1,_RNvNtNtCs1G9XuckPzNo_11deacon_core7logging5testss_16test_json_format
FNDA:1,_RNvNtNtCs1G9XuckPzNo_11deacon_core7logging5testss_19test_is_initialized
FNDA:1,_RNvNtNtCs1G9XuckPzNo_11deacon_core7logging5testss_24test_env_filter_creation
FNDA:1,_RNvNtNtCs1G9XuckPzNo_11deacon_core7logging5testss_26test_init_format_selection
FNDA:1,_RNvNtNtCs1G9XuckPzNo_11deacon_core7logging5testss_29test_env_filter_with_env_vars
FNDA:1,_RNvNtNtCs1G9XuckPzNo_11deacon_core7logging5testss_29test_init_multiple_calls_safe
FNF:13
FNH:12
DA:58,64
DA:59,64
DA:60,64
DA:61,64
DA:62,64
DA:63,64
DA:64,40
DA:66,40
DA:67,3
DA:68,3
DA:69,3
DA:70,3
DA:71,3
DA:72,3
DA:73,3
DA:74,3
DA:75,3
DA:76,3
DA:77,37
DA:78,37
DA:79,37
DA:80,37
DA:81,37
DA:82,37
DA:83,37
DA:84,37
DA:85,37
DA:86,37
DA:87,37
DA:90,40
DA:91,40
DA:92,40
DA:94,40
DA:96,64
DA:97,64
DA:102,64
DA:103,64
DA:104,64
DA:107,44
DA:108,44
DA:110,2
DA:111,0
DA:112,0
DA:115,0
DA:116,0
DA:119,42
DA:121,44
DA:127,2
DA:128,2
DA:129,2
DA:140,1
DA:141,1
DA:144,1
DA:145,1
DA:146,1
DA:147,1
DA:150,1
DA:151,1
DA:154,1
DA:155,1
DA:156,1
DA:157,1
DA:158,1
DA:161,1
DA:163,1
DA:167,1
DA:169,1
DA:172,1
DA:174,1
DA:175,1
DA:176,1
DA:179,1
DA:180,1
DA:181,1
DA:182,1
DA:185,1
DA:186,1
DA:189,1
DA:190,1
DA:191,1
DA:194,1
DA:195,1
DA:198,1
DA:199,1
BRF:0
BRH:0
LF:87
LH:82
end_of_record
SF:/home/runner/work/deacon/deacon/crates/core/src/mount.rs
FN:366,_RNCNvMs5_NtCshLLWmVuQQJZ_11deacon_core5mountNtB7_11MountParser25parse_docker_mount_syntax0B9_
FN:370,_RNCNvMs5_NtCshLLWmVuQQJZ_11deacon_core5mountNtB7_11MountParser25parse_docker_mount_syntaxs_0B9_
FN:189,_RNvMs4_NtCshLLWmVuQQJZ_11deacon_core5mountNtB5_5Mount14to_docker_args
FN:227,_RNvMs4_NtCshLLWmVuQQJZ_11deacon_core5mountNtB5_5Mount8validate
FN:299,_RNvMs5_NtCshLLWmVuQQJZ_11deacon_core5mountNtB5_11MountParser11parse_mount
FN:466,_RNvMs5_NtCshLLWmVuQQJZ_11deacon_core5mountNtB5_11MountParser12parse_mounts
FN:387,_RNvMs5_NtCshLLWmVuQQJZ_11deacon_core5mountNtB5_11MountParser19parse_volume_syntax
FN:494,_RNvMs5_NtCshLLWmVuQQJZ_11deacon_core5mountNtB5_11MountParser22parse_mounts_from_json
FN:312,_RNvMs5_NtCshLLWmVuQQJZ_11deacon_core5mountNtB5_11MountParser25parse_docker_mount_syntax
FN:55,_RNvXNtCshLLWmVuQQJZ_11deacon_core5mountNtB2_9MountTypeNtNtNtCs66KPHxksi63_4core3str6traits7FromStr8from_str
FN:95,_RNvXs0_NtCshLLWmVuQQJZ_11deacon_core5mountNtB5_16MountConsistencyNtNtNtCs66KPHxksi63_4core3str6traits7FromStr8from_str
FN:111,_RNvXs1_NtCshLLWmVuQQJZ_11deacon_core5mountNtB5_16MountConsistencyNtNtCs66KPHxksi63_4core3fmt7Display3fmt
FN:132,_RNvXs2_NtCshLLWmVuQQJZ_11deacon_core5mountNtB5_9MountModeNtNtNtCs66KPHxksi63_4core3str6traits7FromStr8from_str
FN:144,_RNvXs3_NtCshLLWmVuQQJZ_11deacon_core5mountNtB5_9MountModeNtNtCs66KPHxksi63_4core3fmt7Display3fmt
FN:71,_RNvXs_NtCshLLWmVuQQJZ_11deacon_core5mountNtB4_9MountTypeNtNtCs66KPHxksi63_4core3fmt7Display3fmt
FN:144,_RNvXs3_NtCs1G9XuckPzNo_11deacon_core5mountNtB5_9MountModeNtNtCs66KPHxksi63_4core3fmt7Display3fmt
FN:366,_RNCNvMs5_NtCs1G9XuckPzNo_11deacon_core5mountNtB7_11MountParser25parse_docker_mount_syntax0B9_
FN:370,_RNCNvMs5_NtCs1G9XuckPzNo_11deacon_core5mountNtB7_11MountParser25parse_docker_mount_syntaxs_0B9_
FN:189,_RNvMs4_NtCs1G9XuckPzNo_11deacon_core5mountNtB5_5Mount14to_docker_args
FN:227,_RNvMs4_NtCs1G9XuckPzNo_11deacon_core5mountNtB5_5Mount8validate
FN:299,_RNvMs5_NtCs1G9XuckPzNo_11deacon_core5mountNtB5_11MountParser11parse_mount
FN:466,_RNvMs5_NtCs1G9XuckPzNo_11deacon_core5mountNtB5_11MountParser12parse_mounts
FN:387,_RNvMs5_NtCs1G9XuckPzNo_11deacon_core5mountNtB5_11MountParser19parse_volume_syntax
FN:494,_RNvMs5_NtCs1G9XuckPzNo_11deacon_core5mountNtB5_11MountParser22parse_mounts_from_json
FN:312,_RNvMs5_NtCs1G9XuckPzNo_11deacon_core5mountNtB5_11MountParser25parse_docker_mount_syntax
FN:55,_RNvXNtCs1G9XuckPzNo_11deacon_core5mountNtB2_9MountTypeNtNtNtCs66KPHxksi63_4core3str6traits7FromStr8from_str
FN:95,_RNvXs0_NtCs1G9XuckPzNo_11deacon_core5mountNtB5_16MountConsistencyNtNtNtCs66KPHxksi63_4core3str6traits7FromStr8from_str
FN:111,_RNvXs1_NtCs1G9XuckPzNo_11deacon_core5mountNtB5_16MountConsistencyNtNtCs66KPHxksi63_4core3fmt7Display3fmt
FN:132,_RNvXs2_NtCs1G9XuckPzNo_11deacon_core5mountNtB5_9MountModeNtNtNtCs66KPHxksi63_4core3str6traits7FromStr8from_str
FN:71,_RNvXs_NtCs1G9XuckPzNo_11deacon_core5mountNtB4_9MountTypeNtNtCs66KPHxksi63_4core3fmt7Display3fmt
FN:546,_RNvNtNtCs1G9XuckPzNo_11deacon_core5mount5testss_23test_mount_mode_parsing
FN:521,_RNvNtNtCs1G9XuckPzNo_11deacon_core5mount5testss_23test_mount_type_parsing
FN:595,_RNvNtNtCs1G9XuckPzNo_11deacon_core5mount5testss_23test_parse_named_volume
FN:575,_RNvNtNtCs1G9XuckPzNo_11deacon_core5mount5testss_24test_parse_volume_syntax
FN:604,_RNvNtNtCs1G9XuckPzNo_11deacon_core5mount5testss_25test_mount_to_docker_args
FN:653,_RNvNtNtCs1G9XuckPzNo_11deacon_core5mount5testss_27test_parse_mounts_from_json
FN:529,_RNvNtNtCs1G9XuckPzNo_11deacon_core5mount5testss_30test_mount_consistency_parsing
FN:561,_RNvNtNtCs1G9XuckPzNo_11deacon_core5mount5testss_30test_parse_docker_mount_syntax
FN:585,_RNvNtNtCs1G9XuckPzNo_11deacon_core5mount5testss_31test_parse_volume_syntax_simple
FN:639,_RNvNtNtCs1G9XuckPzNo_11deacon_core5mount5testss_37test_mount_validation_relative_target
FN:625,_RNvNtNtCs1G9XuckPzNo_11deacon_core5mount5testss_41test_mount_validation_bind_without_source
FNDA:1,_RNCNvMs5_NtCshLLWmVuQQJZ_11deacon_core5mountNtB7_11MountParser25parse_docker_mount_syntax0B9_
FNDA:1,_RNCNvMs5_NtCshLLWmVuQQJZ_11deacon_core5mountNtB7_11MountParser25parse_docker_mount_syntaxs_0B9_
FNDA:1,_RNvMs4_NtCshLLWmVuQQJZ_11deacon_core5mountNtB5_5Mount14to_docker_args
FNDA:23,_RNvMs4_NtCshLLWmVuQQJZ_11deacon_core5mountNtB5_5Mount8validate
FNDA:26,_RNvMs5_NtCshLLWmVuQQJZ_11deacon_core5mountNtB5_11MountParser11parse_mount
FNDA:6,_RNvMs5_NtCshLLWmVuQQJZ_11deacon_core5mountNtB5_11MountParser12parse_mounts
FNDA:8,_RNvMs5_NtCshLLWmVuQQJZ_11deacon_core5mountNtB5_11MountParser19parse_volume_syntax
FNDA:6,_RNvMs5_NtCshLLWmVuQQJZ_11deacon_core5mountNtB5_11MountParser22parse_mounts_from_json
FNDA:18,_RNvMs5_NtCshLLWmVuQQJZ_11deacon_core5mountNtB5_11MountParser25parse_docker_mount_syntax
FNDA:17,_RNvXNtCshLLWmVuQQJZ_11deacon_core5mountNtB2_9MountTypeNtNtNtCs66KPHxksi63_4core3str6traits7FromStr8from_str
FNDA:7,_RNvXs0_NtCshLLWmVuQQJZ_11deacon_core5mountNtB5_16MountConsistencyNtNtNtCs66KPHxksi63_4core3str6traits7FromStr8from_str
FNDA:1,_RNvXs1_NtCshLLWmVuQQJZ_11deacon_core5mountNtB5_16MountConsistencyNtNtCs66KPHxksi63_4core3fmt7Display3fmt
FNDA:0,_RNvXs2_NtCshLLWmVuQQJZ_11deacon_core5mountNtB5_9MountModeNtNtNtCs66KPHxksi63_4core3str6traits7FromStr8from_str
FNDA:0,_RNvXs3_NtCshLLWmVuQQJZ_11deacon_core5mountNtB5_9MountModeNtNtCs66KPHxksi63_4core3fmt7Display3fmt
FNDA:2,_RNvXs_NtCshLLWmVuQQJZ_11deacon_core5mountNtB4_9MountTypeNtNtCs66KPHxksi63_4core3fmt7Display3fmt
FNDA:0,_RNvXs3_NtCs1G9XuckPzNo_11deacon_core5mountNtB5_9MountModeNtNtCs66KPHxksi63_4core3fmt7Display3fmt
FNDA:0,_RNCNvMs5_NtCs1G9XuckPzNo_11deacon_core5mountNtB7_11MountParser25parse_docker_mount_syntax0B9_
FNDA:0,_RNCNvMs5_NtCs1G9XuckPzNo_11deacon_core5mountNtB7_11MountParser25parse_docker_mount_syntaxs_0B9_
FNDA:1,_RNvMs4_NtCs1G9XuckPzNo_11deacon_core5mountNtB5_5Mount14to_docker_args
FNDA:8,_RNvMs4_NtCs1G9XuckPzNo_11deacon_core5mountNtB5_5Mount8validate
FNDA:6,_RNvMs5_NtCs1G9XuckPzNo_11deacon_core5mountNtB5_11MountParser11parse_mount
FNDA:1,_RNvMs5_NtCs1G9XuckPzNo_11deacon_core5mountNtB5_11MountParser12parse_mounts
FNDA:4,_RNvMs5_NtCs1G9XuckPzNo_11deacon_core5mountNtB5_11MountParser19parse_volume_syntax
FNDA:1,_RNvMs5_NtCs1G9XuckPzNo_11deacon_core5mountNtB5_11MountParser22parse_mounts_from_json
FNDA:2,_RNvMs5_NtCs1G9XuckPzNo_11deacon_core5mountNtB5_11MountParser25parse_docker_mount_syntax
FNDA:6,_RNvXNtCs1G9XuckPzNo_11deacon_core5mountNtB2_9MountTypeNtNtNtCs66KPHxksi63_4core3str6traits7FromStr8from_str
FNDA:5,_RNvXs0_NtCs1G9XuckPzNo_11deacon_core5mountNtB5_16MountConsistencyNtNtNtCs66KPHxksi63_4core3str6traits7FromStr8from_str
FNDA:1,_RNvXs1_NtCs1G9XuckPzNo_11deacon_core5mountNtB5_16MountConsistencyNtNtCs66KPHxksi63_4core3fmt7Display3fmt
FNDA:5,_RNvXs2_NtCs1G9XuckPzNo_11deacon_core5mountNtB5_9MountModeNtNtNtCs66KPHxksi63_4core3str6traits7FromStr8from_str
FNDA:2,_RNvXs_NtCs1G9XuckPzNo_11deacon_core5mountNtB4_9MountTypeNtNtCs66KPHxksi63_4core3fmt7Display3fmt
FNDA:1,_RNvNtNtCs1G9XuckPzNo_11deacon_core5mount5testss_23test_mount_mode_parsing
FNDA:1,_RNvNtNtCs1G9XuckPzNo_11deacon_core5mount5testss_23test_mount_type_parsing
FNDA:1,_RNvNtNtCs1G9XuckPzNo_11deacon_core5mount5testss_23test_parse_named_volume
FNDA:1,_RNvNtNtCs1G9XuckPzNo_11deacon_core5mount5testss_24test_parse_volume_syntax
FNDA:1,_RNvNtNtCs1G9XuckPzNo_11deacon_core5mount5testss_25test_mount_to_docker_args
FNDA:1,_RNvNtNtCs1G9XuckPzNo_11deacon_core5mount5testss_27test_parse_mounts_from_json
FNDA:1,_RNvNtNtCs1G9XuckPzNo_11deacon_core5mount5testss_30test_mount_consistency_parsing
FNDA:1,_RNvNtNtCs1G9XuckPzNo_11deacon_core5mount5testss_30test_parse_docker_mount_syntax
FNDA:1,_RNvNtNtCs1G9XuckPzNo_11deacon_core5mount5testss_31test_parse_volume_syntax_simple
FNDA:1,_RNvNtNtCs1G9XuckPzNo_11deacon_core5mount5testss_37test_mount_validation_relative_target
FNDA:1,_RNvNtNtCs1G9XuckPzNo_11deacon_core5mount5testss_41test_mount_validation_bind_without_source
FNF:26
FNH:25
DA:55,23
DA:56,23
DA:57,23
DA:58,6
DA:59,4
DA:60,1
DA:61,1
DA:62,1
DA:63,1
DA:64,1
DA:65,1
DA:67,23
DA:71,4
DA:72,4
DA:73,4
DA:74,0
DA:75,0
DA:77,4
DA:95,12
DA:96,12
DA:97,12
DA:98,10
DA:99,4
DA:100,1
DA:101,1
DA:102,1
DA:103,1
DA:104,1
DA:105,1
DA:107,12
DA:111,2
DA:112,2
DA:113,0
DA:114,2
DA:115,0
DA:117,2
DA:132,5
DA:133,5
DA:134,5
DA:135,3
DA:136,1
DA:137,1
DA:138,1
DA:140,5
DA:144,0
DA:145,0
DA:146,0
DA:147,0
DA:149,0
DA:189,2
DA:190,2
DA:193,2
DA:194,2
DA:195,2
DA:198,2
DA:201,2
DA:202,2
DA:203,2
DA:206,2
DA:207,2
DA:208,2
DA:209,2
DA:210,0
DA:213,3
DA:214,1
DA:215,0
DA:216,1
DA:217,1
DA:218,1
DA:221,2
DA:222,2
DA:227,31
DA:229,31
DA:231,29
DA:232,2
DA:233,2
DA:234,2
DA:235,2
DA:236,27
DA:239,2
DA:240,0
DA:241,2
DA:246,29
DA:247,2
DA:248,2
DA:249,2
DA:250,2
DA:251,2
DA:252,2
DA:253,2
DA:254,27
DA:257,27
DA:258,0
DA:259,0
DA:262,27
DA:265,27
DA:266,1
DA:268,1
DA:269,1
DA:270,0
DA:273,1
DA:278,27
DA:279,31
DA:299,32
DA:300,32
DA:303,32
DA:304,20
DA:307,12
DA:309,32
DA:312,20
DA:313,20
DA:314,20
DA:315,20
DA:316,20
DA:317,20
DA:318,20
DA:320,65
DA:321,65
DA:323,65
DA:324,0
DA:325,65
DA:327,65
DA:328,63
DA:329,63
DA:331,63
DA:332,63
DA:333,19
DA:335,44
DA:336,17
DA:337,17
DA:338,27
DA:339,19
DA:340,19
DA:341,8
DA:342,8
DA:344,0
DA:345,0
DA:346,0
DA:350,2
DA:351,2
DA:352,2
DA:353,2
DA:354,0
DA:355,0
DA:356,0
DA:357,0
DA:358,0
DA:359,0
DA:365,20
DA:366,1
DA:367,1
DA:369,19
DA:370,1
DA:371,1
DA:373,18
DA:374,18
DA:375,18
DA:376,18
DA:377,18
DA:378,18
DA:379,18
DA:380,18
DA:382,18
DA:383,16
DA:384,20
DA:387,12
DA:388,12
DA:390,12
DA:391,1
DA:392,1
DA:393,1
DA:394,1
DA:395,1
DA:396,1
DA:397,1
DA:398,11
DA:400,11
DA:401,0
DA:403,11
DA:406,11
DA:408,11
DA:409,11
DA:412,11
DA:413,5
DA:414,5
DA:415,5
DA:416,2
DA:417,2
DA:418,3
DA:419,2
DA:420,2
DA:421,1
DA:422,1
DA:423,1
DA:424,1
DA:427,6
DA:430,11
DA:431,0
DA:432,11
DA:433,11
DA:434,8
DA:436,3
DA:439,0
DA:442,11
DA:443,11
DA:444,11
DA:445,11
DA:446,11
DA:447,11
DA:448,11
DA:449,11
DA:451,11
DA:452,11
DA:453,12
DA:466,7
DA:467,7
DA:469,19
DA:470,12
DA:471,12
DA:472,12
DA:473,12
DA:475,0
DA:476,0
DA:481,7
DA:482,7
DA:494,7
DA:495,7
DA:497,19
DA:498,12
DA:499,12
DA:500,12
DA:501,12
DA:504,0
DA:507,0
DA:512,7
DA:513,7
DA:521,1
DA:522,1
DA:523,1
DA:524,1
DA:525,1
DA:526,1
DA:529,1
DA:530,1
DA:531,1
DA:534,1
DA:535,1
DA:538,1
DA:539,1
DA:542,1
DA:543,1
DA:546,1
DA:547,1
DA:548,1
DA:549,1
DA:550,1
DA:553,1
DA:554,1
DA:557,1
DA:558,1
DA:561,1
DA:562,1
DA:563,1
DA:565,1
DA:567,1
DA:568,1
DA:569,1
DA:570,1
DA:571,1
DA:572,1
DA:575,1
DA:576,1
DA:578,1
DA:579,1
DA:580,1
DA:581,1
DA:582,1
DA:585,1
DA:586,1
DA:588,1
DA:589,1
DA:590,1
DA:591,1
DA:592,1
DA:595,1
DA:596,1
DA:598,1
DA:599,1
DA:600,1
DA:601,1
DA:604,1
DA:605,1
DA:606,1
DA:607,1
DA:608,1
DA:609,1
DA:610,1
DA:611,1
DA:612,1
DA:614,1
DA:615,1
DA:616,1
DA:617,1
DA:618,1
DA:619,1
DA:620,1
DA:621,1
DA:622,1
DA:625,1
DA:626,1
DA:627,1
DA:628,1
DA:629,1
DA:630,1
DA:631,1
DA:632,1
DA:633,1
DA:635,1
DA:636,1
DA:639,1
DA:640,1
DA:641,1
DA:642,1
DA:643,1
DA:644,1
DA:645,1
DA:646,1
DA:647,1
DA:649,1
DA:650,1
DA:653,1
DA:654,1
DA:655,1
DA:656,1
DA:659,1
DA:660,1
DA:661,1
BRF:0
BRH:0
LF:339
LH:307
end_of_record
SF:/home/runner/work/deacon/deacon/crates/core/src/oci.rs
FN:314,_RNCNCNCNCNvMs1_NtCshLLWmVuQQJZ_11deacon_core3ociINtBd_14FeatureFetcherpE12get_manifest0000Bf_
FN:352,_RNCNCNCNCNvMs1_NtCshLLWmVuQQJZ_11deacon_core3ociINtBd_14FeatureFetcherpE14download_layer0000Bf_
FN:313,_RNCNCNCNvMs1_NtCshLLWmVuQQJZ_11deacon_core3ociINtBb_14FeatureFetcherpE12get_manifest000Bd_
FN:350,_RNCNCNCNvMs1_NtCshLLWmVuQQJZ_11deacon_core3ociINtBb_14FeatureFetcherpE14download_layer000Bd_
FN:309,_RNCNCNvMs1_NtCshLLWmVuQQJZ_11deacon_core3ociINtB9_14FeatureFetcherpE12get_manifest00Bb_
FN:327,_RNCNCNvMs1_NtCshLLWmVuQQJZ_11deacon_core3ociINtB9_14FeatureFetcherpE12get_manifest0s_0Bb_
FN:369,_RNCNCNvMs1_NtCshLLWmVuQQJZ_11deacon_core3ociINtB9_14FeatureFetcherpE13extract_layer00Bb_
FN:381,_RNCNCNvMs1_NtCshLLWmVuQQJZ_11deacon_core3ociINtB9_14FeatureFetcherpE13extract_layer0s_0Bb_
FN:347,_RNCNCNvMs1_NtCshLLWmVuQQJZ_11deacon_core3ociINtB9_14FeatureFetcherpE14download_layer00Bb_
FN:431,_RNCNCNvMs1_NtCshLLWmVuQQJZ_11deacon_core3ociINtB9_14FeatureFetcherpE22execute_install_script00Bb_
FN:290,_RNCNvMs1_NtCshLLWmVuQQJZ_11deacon_core3ociINtB7_14FeatureFetcherpE12get_manifest0B9_
FN:364,_RNCNvMs1_NtCshLLWmVuQQJZ_11deacon_core3ociINtB7_14FeatureFetcherpE13extract_layer0B9_
FN:218,_RNCNvMs1_NtCshLLWmVuQQJZ_11deacon_core3ociINtB7_14FeatureFetcherpE13fetch_feature0B9_
FN:334,_RNCNvMs1_NtCshLLWmVuQQJZ_11deacon_core3ociINtB7_14FeatureFetcherpE14download_layer0B9_
FN:265,_RNCNvMs1_NtCshLLWmVuQQJZ_11deacon_core3ociINtB7_14FeatureFetcherpE15install_feature0B9_
FN:392,_RNCNvMs1_NtCshLLWmVuQQJZ_11deacon_core3ociINtB7_14FeatureFetcherpE19load_cached_feature0B9_
FN:417,_RNCNvMs1_NtCshLLWmVuQQJZ_11deacon_core3ociINtB7_14FeatureFetcherpE22execute_install_script0B9_
FN:483,_RNCNvMs2_NtCshLLWmVuQQJZ_11deacon_core3ociNtB7_14MockHttpClient12add_response0B9_
FN:290,_RNvMs1_NtCshLLWmVuQQJZ_11deacon_core3ociINtB5_14FeatureFetcherpE12get_manifestB7_
FN:364,_RNvMs1_NtCshLLWmVuQQJZ_11deacon_core3ociINtB5_14FeatureFetcherpE13extract_layerB7_
FN:218,_RNvMs1_NtCshLLWmVuQQJZ_11deacon_core3ociINtB5_14FeatureFetcherpE13fetch_featureB7_
FN:404,_RNvMs1_NtCshLLWmVuQQJZ_11deacon_core3ociINtB5_14FeatureFetcherpE13get_cache_keyB7_
FN:334,_RNvMs1_NtCshLLWmVuQQJZ_11deacon_core3ociINtB5_14FeatureFetcherpE14download_layerB7_
FN:194,_RNvMs1_NtCshLLWmVuQQJZ_11deacon_core3ociINtB5_14FeatureFetcherpE14with_cache_dirB7_
FN:265,_RNvMs1_NtCshLLWmVuQQJZ_11deacon_core3ociINtB5_14FeatureFetcherpE15install_featureB7_
FN:203,_RNvMs1_NtCshLLWmVuQQJZ_11deacon_core3ociINtB5_14FeatureFetcherpE17with_retry_configB7_
FN:388,_RNvMs1_NtCshLLWmVuQQJZ_11deacon_core3ociINtB5_14FeatureFetcherpE19load_cached_featureB7_
FN:413,_RNvMs1_NtCshLLWmVuQQJZ_11deacon_core3ociINtB5_14FeatureFetcherpE22execute_install_scriptB7_
FN:212,_RNvMs1_NtCshLLWmVuQQJZ_11deacon_core3ociINtB5_14FeatureFetcherpE6clientB7_
FN:505,_RNCNCNvXsg_NtCshLLWmVuQQJZ_11deacon_core3ociNtB9_14MockHttpClientNtB9_10HttpClient3get00Bb_
FN:184,_RNvMs1_NtCshLLWmVuQQJZ_11deacon_core3ociINtB5_14FeatureFetcherNtB5_13ReqwestClientE3newB7_
FN:50,_RNvMNtCshLLWmVuQQJZ_11deacon_core3ociNtB2_10FeatureRef10repository
FN:35,_RNvMNtCshLLWmVuQQJZ_11deacon_core3ociNtB2_10FeatureRef3new
FN:45,_RNvMNtCshLLWmVuQQJZ_11deacon_core3ociNtB2_10FeatureRef3tag
FN:55,_RNvMNtCshLLWmVuQQJZ_11deacon_core3ociNtB2_10FeatureRef9reference
FN:483,_RNvMs2_NtCshLLWmVuQQJZ_11deacon_core3ociNtB5_14MockHttpClient12add_response
FN:477,_RNvMs2_NtCshLLWmVuQQJZ_11deacon_core3ociNtB5_14MockHttpClient3new
FN:117,_RNvMs_NtCshLLWmVuQQJZ_11deacon_core3ociNtB4_13ReqwestClient3new
FN:466,_RNvNtCshLLWmVuQQJZ_11deacon_core3oci15default_fetcher
FN:165,_RNvNtCshLLWmVuQQJZ_11deacon_core3oci22classify_network_error
FN:125,_RNvXs0_NtCshLLWmVuQQJZ_11deacon_core3ociNtB5_13ReqwestClientNtNtCs66KPHxksi63_4core7default7Default7default
FN:490,_RNvXs3_NtCshLLWmVuQQJZ_11deacon_core3ociNtB5_14MockHttpClientNtNtCs66KPHxksi63_4core7default7Default7default
FN:145,_RNvXsd_NtCshLLWmVuQQJZ_11deacon_core3ociNtB5_13ReqwestClientNtB5_10HttpClient16get_with_headers
FN:135,_RNvXsd_NtCshLLWmVuQQJZ_11deacon_core3ociNtB5_13ReqwestClientNtB5_10HttpClient3get
FN:512,_RNvXsg_NtCshLLWmVuQQJZ_11deacon_core3ociNtB5_14MockHttpClientNtB5_10HttpClient16get_with_headers
FN:500,_RNvXsg_NtCshLLWmVuQQJZ_11deacon_core3ociNtB5_14MockHttpClientNtB5_10HttpClient3get
FN:352,_RNCNCNCNCNvMs1_NtCs1G9XuckPzNo_11deacon_core3ociINtBd_14FeatureFetcherpE14download_layer0000Bf_
FN:350,_RNCNCNCNvMs1_NtCs1G9XuckPzNo_11deacon_core3ociINtBb_14FeatureFetcherpE14download_layer000Bd_
FN:369,_RNCNCNvMs1_NtCs1G9XuckPzNo_11deacon_core3ociINtB9_14FeatureFetcherpE13extract_layer00Bb_
FN:381,_RNCNCNvMs1_NtCs1G9XuckPzNo_11deacon_core3ociINtB9_14FeatureFetcherpE13extract_layer0s_0Bb_
FN:347,_RNCNCNvMs1_NtCs1G9XuckPzNo_11deacon_core3ociINtB9_14FeatureFetcherpE14download_layer00Bb_
FN:431,_RNCNCNvMs1_NtCs1G9XuckPzNo_11deacon_core3ociINtB9_14FeatureFetcherpE22execute_install_script00Bb_
FN:364,_RNCNvMs1_NtCs1G9XuckPzNo_11deacon_core3ociINtB7_14FeatureFetcherpE13extract_layer0B9_
FN:218,_RNCNvMs1_NtCs1G9XuckPzNo_11deacon_core3ociINtB7_14FeatureFetcherpE13fetch_feature0B9_
FN:334,_RNCNvMs1_NtCs1G9XuckPzNo_11deacon_core3ociINtB7_14FeatureFetcherpE14download_layer0B9_
FN:265,_RNCNvMs1_NtCs1G9XuckPzNo_11deacon_core3ociINtB7_14FeatureFetcherpE15install_feature0B9_
FN:392,_RNCNvMs1_NtCs1G9XuckPzNo_11deacon_core3ociINtB7_14FeatureFetcherpE19load_cached_feature0B9_
FN:417,_RNCNvMs1_NtCs1G9XuckPzNo_11deacon_core3ociINtB7_14FeatureFetcherpE22execute_install_script0B9_
FN:364,_RNvMs1_NtCs1G9XuckPzNo_11deacon_core3ociINtB5_14FeatureFetcherpE13extract_layerB7_
FN:218,_RNvMs1_NtCs1G9XuckPzNo_11deacon_core3ociINtB5_14FeatureFetcherpE13fetch_featureB7_
FN:404,_RNvMs1_NtCs1G9XuckPzNo_11deacon_core3ociINtB5_14FeatureFetcherpE13get_cache_keyB7_
FN:334,_RNvMs1_NtCs1G9XuckPzNo_11deacon_core3ociINtB5_14FeatureFetcherpE14download_layerB7_
FN:194,_RNvMs1_NtCs1G9XuckPzNo_11deacon_core3ociINtB5_14FeatureFetcherpE14with_cache_dirB7_
FN:265,_RNvMs1_NtCs1G9XuckPzNo_11deacon_core3ociINtB5_14FeatureFetcherpE15install_featureB7_
FN:388,_RNvMs1_NtCs1G9XuckPzNo_11deacon_core3ociINtB5_14FeatureFetcherpE19load_cached_featureB7_
FN:413,_RNvMs1_NtCs1G9XuckPzNo_11deacon_core3ociINtB5_14FeatureFetcherpE22execute_install_scriptB7_
FN:184,_RNvMs1_NtCs1G9XuckPzNo_11deacon_core3ociINtB5_14FeatureFetcherpE3newB7_
FN:212,_RNvMs1_NtCs1G9XuckPzNo_11deacon_core3ociINtB5_14FeatureFetcherpE6clientB7_
FN:117,_RNvMs_NtCs1G9XuckPzNo_11deacon_core3ociNtB4_13ReqwestClient3new
FN:466,_RNvNtCs1G9XuckPzNo_11deacon_core3oci15default_fetcher
FN:125,_RNvXs0_NtCs1G9XuckPzNo_11deacon_core3ociNtB5_13ReqwestClientNtNtCs66KPHxksi63_4core7default7Default7default
FN:490,_RNvXs3_NtCs1G9XuckPzNo_11deacon_core3ociNtB5_14MockHttpClientNtNtCs66KPHxksi63_4core7default7Default7default
FN:145,_RNvXsd_NtCs1G9XuckPzNo_11deacon_core3ociNtB5_13ReqwestClientNtB5_10HttpClient16get_with_headers
FN:135,_RNvXsd_NtCs1G9XuckPzNo_11deacon_core3ociNtB5_13ReqwestClientNtB5_10HttpClient3get
FN:512,_RNvXsg_NtCs1G9XuckPzNo_11deacon_core3ociNtB5_14MockHttpClientNtB5_10HttpClient16get_with_headers
FN:314,_RNCNCNCNCNvMs1_NtCs1G9XuckPzNo_11deacon_core3ociINtBd_14FeatureFetcherNtNCNvNtBd_5testss_38test_retry_gives_up_after_max_attempts019AlwaysFailingClientE12get_manifest0000Bf_
FN:314,_RNCNCNCNCNvMs1_NtCs1G9XuckPzNo_11deacon_core3ociINtBd_14FeatureFetcherNtNCNvNtBd_5testss_42test_retry_integration_with_manifest_fetch017FailingMockClientE12get_manifest0000Bf_
FN:313,_RNCNCNCNvMs1_NtCs1G9XuckPzNo_11deacon_core3ociINtBb_14FeatureFetcherNtNCNvNtBb_5testss_38test_retry_gives_up_after_max_attempts019AlwaysFailingClientE12get_manifest000Bd_
FN:313,_RNCNCNCNvMs1_NtCs1G9XuckPzNo_11deacon_core3ociINtBb_14FeatureFetcherNtNCNvNtBb_5testss_42test_retry_integration_with_manifest_fetch017FailingMockClientE12get_manifest000Bd_
FN:309,_RNCNCNvMs1_NtCs1G9XuckPzNo_11deacon_core3ociINtB9_14FeatureFetcherNtNCNvNtB9_5testss_38test_retry_gives_up_after_max_attempts019AlwaysFailingClientE12get_manifest00Bb_
FN:327,_RNCNCNvMs1_NtCs1G9XuckPzNo_11deacon_core3ociINtB9_14FeatureFetcherNtNCNvNtB9_5testss_38test_retry_gives_up_after_max_attempts019AlwaysFailingClientE12get_manifest0s_0Bb_
FN:309,_RNCNCNvMs1_NtCs1G9XuckPzNo_11deacon_core3ociINtB9_14FeatureFetcherNtNCNvNtB9_5testss_42test_retry_integration_with_manifest_fetch017FailingMockClientE12get_manifest00Bb_
FN:327,_RNCNCNvMs1_NtCs1G9XuckPzNo_11deacon_core3ociINtB9_14FeatureFetcherNtNCNvNtB9_5testss_42test_retry_integration_with_manifest_fetch017FailingMockClientE12get_manifest0s_0Bb_
FN:505,_RNCNCNvXsg_NtCs1G9XuckPzNo_11deacon_core3ociNtB9_14MockHttpClientNtB9_10HttpClient3get00Bb_
FN:290,_RNCNvMs1_NtCs1G9XuckPzNo_11deacon_core3ociINtB7_14FeatureFetcherNtNCNvNtB7_5testss_38test_retry_gives_up_after_max_attempts019AlwaysFailingClientE12get_manifest0B9_
FN:290,_RNCNvMs1_NtCs1G9XuckPzNo_11deacon_core3ociINtB7_14FeatureFetcherNtNCNvNtB7_5testss_42test_retry_integration_with_manifest_fetch017FailingMockClientE12get_manifest0B9_
FN:483,_RNCNvMs2_NtCs1G9XuckPzNo_11deacon_core3ociNtB7_14MockHttpClient12add_response0B9_
FN:290,_RNvMs1_NtCs1G9XuckPzNo_11deacon_core3ociINtB5_14FeatureFetcherNtNCNvNtB5_5testss_38test_retry_gives_up_after_max_attempts019AlwaysFailingClientE12get_manifestB7_
FN:203,_RNvMs1_NtCs1G9XuckPzNo_11deacon_core3ociINtB5_14FeatureFetcherNtNCNvNtB5_5testss_38test_retry_gives_up_after_max_attempts019AlwaysFailingClientE17with_retry_configB7_
FN:290,_RNvMs1_NtCs1G9XuckPzNo_11deacon_core3ociINtB5_14FeatureFetcherNtNCNvNtB5_5testss_42test_retry_integration_with_manifest_fetch017FailingMockClientE12get_manifestB7_
FN:203,_RNvMs1_NtCs1G9XuckPzNo_11deacon_core3ociINtB5_14FeatureFetcherNtNCNvNtB5_5testss_42test_retry_integration_with_manifest_fetch017FailingMockClientE17with_retry_configB7_
FN:668,_RNvMNCNvNtNtCs1G9XuckPzNo_11deacon_core3oci5testss_38test_retry_gives_up_after_max_attempts0NtB2_19AlwaysFailingClient3new
FN:582,_RNvMNCNvNtNtCs1G9XuckPzNo_11deacon_core3oci5testss_42test_retry_integration_with_manifest_fetch0NtB2_17FailingMockClient3new
FN:723,_RNvNtNtCs1G9XuckPzNo_11deacon_core3oci5testss_21test_error_classifier
FN:553,_RNvNtNtCs1G9XuckPzNo_11deacon_core3oci5testss_21test_mock_http_client
FN:522,_RNvNtNtCs1G9XuckPzNo_11deacon_core3oci5testss_25test_feature_ref_creation
FN:540,_RNvNtNtCs1G9XuckPzNo_11deacon_core3oci5testss_32test_feature_ref_default_version
FN:657,_RNvNtNtCs1G9XuckPzNo_11deacon_core3oci5testss_38test_retry_gives_up_after_max_attempts
FN:570,_RNvNtNtCs1G9XuckPzNo_11deacon_core3oci5testss_42test_retry_integration_with_manifest_fetch
FN:689,_RNvXs1_NCNvNtNtCs1G9XuckPzNo_11deacon_core3oci5testss_38test_retry_gives_up_after_max_attempts0NtB5_19AlwaysFailingClientNtBb_10HttpClient16get_with_headers
FN:680,_RNvXs1_NCNvNtNtCs1G9XuckPzNo_11deacon_core3oci5testss_38test_retry_gives_up_after_max_attempts0NtB5_19AlwaysFailingClientNtBb_10HttpClient3get
FN:618,_RNvXs1_NCNvNtNtCs1G9XuckPzNo_11deacon_core3oci5testss_42test_retry_integration_with_manifest_fetch0NtB5_17FailingMockClientNtBb_10HttpClient16get_with_headers
FN:595,_RNvXs1_NCNvNtNtCs1G9XuckPzNo_11deacon_core3oci5testss_42test_retry_integration_with_manifest_fetch0NtB5_17FailingMockClientNtBb_10HttpClient3get
FN:553,_RNCNvNtNtCs1G9XuckPzNo_11deacon_core3oci5testss_21test_mock_http_client0B7_
FN:657,_RNCNvNtNtCs1G9XuckPzNo_11deacon_core3oci5testss_38test_retry_gives_up_after_max_attempts0B7_
FN:570,_RNCNvNtNtCs1G9XuckPzNo_11deacon_core3oci5testss_42test_retry_integration_with_manifest_fetch0B7_
FN:50,_RNvMNtCs1G9XuckPzNo_11deacon_core3ociNtB2_10FeatureRef10repository
FN:35,_RNvMNtCs1G9XuckPzNo_11deacon_core3ociNtB2_10FeatureRef3new
FN:45,_RNvMNtCs1G9XuckPzNo_11deacon_core3ociNtB2_10FeatureRef3tag
FN:55,_RNvMNtCs1G9XuckPzNo_11deacon_core3ociNtB2_10FeatureRef9reference
FN:483,_RNvMs2_NtCs1G9XuckPzNo_11deacon_core3ociNtB5_14MockHttpClient12add_response
FN:477,_RNvMs2_NtCs1G9XuckPzNo_11deacon_core3ociNtB5_14MockHttpClient3new
FN:165,_RNvNtCs1G9XuckPzNo_11deacon_core3oci22classify_network_error
FN:500,_RNvXsg_NtCs1G9XuckPzNo_11deacon_core3ociNtB5_14MockHttpClientNtB5_10HttpClient3get
FN:314,_RNCNCNCNCNvMs1_NtCshLLWmVuQQJZ_11deacon_core3ociINtBd_14FeatureFetcherNtBd_14MockHttpClientE12get_manifest0000CsfXC7pKQYjgD_15integration_oci
FN:352,_RNCNCNCNCNvMs1_NtCshLLWmVuQQJZ_11deacon_core3ociINtBd_14FeatureFetcherNtBd_14MockHttpClientE14download_layer0000CsfXC7pKQYjgD_15integration_oci
FN:313,_RNCNCNCNvMs1_NtCshLLWmVuQQJZ_11deacon_core3ociINtBb_14FeatureFetcherNtBb_14MockHttpClientE12get_manifest000CsfXC7pKQYjgD_15integration_oci
FN:350,_RNCNCNCNvMs1_NtCshLLWmVuQQJZ_11deacon_core3ociINtBb_14FeatureFetcherNtBb_14MockHttpClientE14download_layer000CsfXC7pKQYjgD_15integration_oci
FN:431,_RNCNCNvMs1_NtCshLLWmVuQQJZ_11deacon_core3ociINtB9_14FeatureFetcherNtB9_13ReqwestClientE22execute_install_script00CsfXC7pKQYjgD_15integration_oci
FN:309,_RNCNCNvMs1_NtCshLLWmVuQQJZ_11deacon_core3ociINtB9_14FeatureFetcherNtB9_14MockHttpClientE12get_manifest00CsfXC7pKQYjgD_15integration_oci
FN:327,_RNCNCNvMs1_NtCshLLWmVuQQJZ_11deacon_core3ociINtB9_14FeatureFetcherNtB9_14MockHttpClientE12get_manifest0s_0CsfXC7pKQYjgD_15integration_oci
FN:369,_RNCNCNvMs1_NtCshLLWmVuQQJZ_11deacon_core3ociINtB9_14FeatureFetcherNtB9_14MockHttpClientE13extract_layer00CsfXC7pKQYjgD_15integration_oci
FN:381,_RNCNCNvMs1_NtCshLLWmVuQQJZ_11deacon_core3ociINtB9_14FeatureFetcherNtB9_14MockHttpClientE13extract_layer0s_0CsfXC7pKQYjgD_15integration_oci
FN:347,_RNCNCNvMs1_NtCshLLWmVuQQJZ_11deacon_core3ociINtB9_14FeatureFetcherNtB9_14MockHttpClientE14download_layer00CsfXC7pKQYjgD_15integration_oci
FN:265,_RNCNvMs1_NtCshLLWmVuQQJZ_11deacon_core3ociINtB7_14FeatureFetcherNtB7_13ReqwestClientE15install_feature0CsfXC7pKQYjgD_15integration_oci
FN:417,_RNCNvMs1_NtCshLLWmVuQQJZ_11deacon_core3ociINtB7_14FeatureFetcherNtB7_13ReqwestClientE22execute_install_script0CsfXC7pKQYjgD_15integration_oci
FN:290,_RNCNvMs1_NtCshLLWmVuQQJZ_11deacon_core3ociINtB7_14FeatureFetcherNtB7_14MockHttpClientE12get_manifest0CsfXC7pKQYjgD_15integration_oci
FN:364,_RNCNvMs1_NtCshLLWmVuQQJZ_11deacon_core3ociINtB7_14FeatureFetcherNtB7_14MockHttpClientE13extract_layer0CsfXC7pKQYjgD_15integration_oci
FN:218,_RNCNvMs1_NtCshLLWmVuQQJZ_11deacon_core3ociINtB7_14FeatureFetcherNtB7_14MockHttpClientE13fetch_feature0CsfXC7pKQYjgD_15integration_oci
FN:334,_RNCNvMs1_NtCshLLWmVuQQJZ_11deacon_core3ociINtB7_14FeatureFetcherNtB7_14MockHttpClientE14download_layer0CsfXC7pKQYjgD_15integration_oci
FN:392,_RNCNvMs1_NtCshLLWmVuQQJZ_11deacon_core3ociINtB7_14FeatureFetcherNtB7_14MockHttpClientE19load_cached_feature0CsfXC7pKQYjgD_15integration_oci
FN:483,_RNCNvMs2_NtCshLLWmVuQQJZ_11deacon_core3ociNtB7_14MockHttpClient12add_response0CsfXC7pKQYjgD_15integration_oci
FN:265,_RNvMs1_NtCshLLWmVuQQJZ_11deacon_core3ociINtB5_14FeatureFetcherNtB5_13ReqwestClientE15install_featureCsfXC7pKQYjgD_15integration_oci
FN:413,_RNvMs1_NtCshLLWmVuQQJZ_11deacon_core3ociINtB5_14FeatureFetcherNtB5_13ReqwestClientE22execute_install_scriptCsfXC7pKQYjgD_15integration_oci
FN:290,_RNvMs1_NtCshLLWmVuQQJZ_11deacon_core3ociINtB5_14FeatureFetcherNtB5_14MockHttpClientE12get_manifestCsfXC7pKQYjgD_15integration_oci
FN:364,_RNvMs1_NtCshLLWmVuQQJZ_11deacon_core3ociINtB5_14FeatureFetcherNtB5_14MockHttpClientE13extract_layerCsfXC7pKQYjgD_15integration_oci
FN:218,_RNvMs1_NtCshLLWmVuQQJZ_11deacon_core3ociINtB5_14FeatureFetcherNtB5_14MockHttpClientE13fetch_featureCsfXC7pKQYjgD_15integration_oci
FN:404,_RNvMs1_NtCshLLWmVuQQJZ_11deacon_core3ociINtB5_14FeatureFetcherNtB5_14MockHttpClientE13get_cache_keyCsfXC7pKQYjgD_15integration_oci
FN:334,_RNvMs1_NtCshLLWmVuQQJZ_11deacon_core3ociINtB5_14FeatureFetcherNtB5_14MockHttpClientE14download_layerCsfXC7pKQYjgD_15integration_oci
FN:194,_RNvMs1_NtCshLLWmVuQQJZ_11deacon_core3ociINtB5_14FeatureFetcherNtB5_14MockHttpClientE14with_cache_dirCsfXC7pKQYjgD_15integration_oci
FN:388,_RNvMs1_NtCshLLWmVuQQJZ_11deacon_core3ociINtB5_14FeatureFetcherNtB5_14MockHttpClientE19load_cached_featureCsfXC7pKQYjgD_15integration_oci
FN:212,_RNvMs1_NtCshLLWmVuQQJZ_11deacon_core3ociINtB5_14FeatureFetcherNtB5_14MockHttpClientE6clientCsfXC7pKQYjgD_15integration_oci
FNDA:0,_RNCNCNCNCNvMs1_NtCshLLWmVuQQJZ_11deacon_core3ociINtBd_14FeatureFetcherpE12get_manifest0000Bf_
FNDA:0,_RNCNCNCNCNvMs1_NtCshLLWmVuQQJZ_11deacon_core3ociINtBd_14FeatureFetcherpE14download_layer0000Bf_
FNDA:0,_RNCNCNCNvMs1_NtCshLLWmVuQQJZ_11deacon_core3ociINtBb_14FeatureFetcherpE12get_manifest000Bd_
FNDA:0,_RNCNCNCNvMs1_NtCshLLWmVuQQJZ_11deacon_core3ociINtBb_14FeatureFetcherpE14download_layer000Bd_
FNDA:0,_RNCNCNvMs1_NtCshLLWmVuQQJZ_11deacon_core3ociINtB9_14FeatureFetcherpE12get_manifest00Bb_
FNDA:0,_RNCNCNvMs1_NtCshLLWmVuQQJZ_11deacon_core3ociINtB9_14FeatureFetcherpE12get_manifest0s_0Bb_
FNDA:0,_RNCNCNvMs1_NtCshLLWmVuQQJZ_11deacon_core3ociINtB9_14FeatureFetcherpE13extract_layer00Bb_
FNDA:0,_RNCNCNvMs1_NtCshLLWmVuQQJZ_11deacon_core3ociINtB9_14FeatureFetcherpE13extract_layer0s_0Bb_
FNDA:0,_RNCNCNvMs1_NtCshLLWmVuQQJZ_11deacon_core3ociINtB9_14FeatureFetcherpE14download_layer00Bb_
FNDA:0,_RNCNCNvMs1_NtCshLLWmVuQQJZ_11deacon_core3ociINtB9_14FeatureFetcherpE22execute_install_script00Bb_
FNDA:0,_RNCNvMs1_NtCshLLWmVuQQJZ_11deacon_core3ociINtB7_14FeatureFetcherpE12get_manifest0B9_
FNDA:0,_RNCNvMs1_NtCshLLWmVuQQJZ_11deacon_core3ociINtB7_14FeatureFetcherpE13extract_layer0B9_
FNDA:0,_RNCNvMs1_NtCshLLWmVuQQJZ_11deacon_core3ociINtB7_14FeatureFetcherpE13fetch_feature0B9_
FNDA:0,_RNCNvMs1_NtCshLLWmVuQQJZ_11deacon_core3ociINtB7_14FeatureFetcherpE14download_layer0B9_
FNDA:0,_RNCNvMs1_NtCshLLWmVuQQJZ_11deacon_core3ociINtB7_14FeatureFetcherpE15install_feature0B9_
FNDA:0,_RNCNvMs1_NtCshLLWmVuQQJZ_11deacon_core3ociINtB7_14FeatureFetcherpE19load_cached_feature0B9_
FNDA:0,_RNCNvMs1_NtCshLLWmVuQQJZ_11deacon_core3ociINtB7_14FeatureFetcherpE22execute_install_script0B9_
FNDA:0,_RNCNvMs2_NtCshLLWmVuQQJZ_11deacon_core3ociNtB7_14MockHttpClient12add_response0B9_
FNDA:0,_RNvMs1_NtCshLLWmVuQQJZ_11deacon_core3ociINtB5_14FeatureFetcherpE12get_manifestB7_
FNDA:0,_RNvMs1_NtCshLLWmVuQQJZ_11deacon_core3ociINtB5_14FeatureFetcherpE13extract_layerB7_
FNDA:0,_RNvMs1_NtCshLLWmVuQQJZ_11deacon_core3ociINtB5_14FeatureFetcherpE13fetch_featureB7_
FNDA:0,_RNvMs1_NtCshLLWmVuQQJZ_11deacon_core3ociINtB5_14FeatureFetcherpE13get_cache_keyB7_
FNDA:0,_RNvMs1_NtCshLLWmVuQQJZ_11deacon_core3ociINtB5_14FeatureFetcherpE14download_layerB7_
FNDA:0,_RNvMs1_NtCshLLWmVuQQJZ_11deacon_core3ociINtB5_14FeatureFetcherpE14with_cache_dirB7_
FNDA:0,_RNvMs1_NtCshLLWmVuQQJZ_11deacon_core3ociINtB5_14FeatureFetcherpE15install_featureB7_
FNDA:0,_RNvMs1_NtCshLLWmVuQQJZ_11deacon_core3ociINtB5_14FeatureFetcherpE17with_retry_configB7_
FNDA:0,_RNvMs1_NtCshLLWmVuQQJZ_11deacon_core3ociINtB5_14FeatureFetcherpE19load_cached_featureB7_
FNDA:0,_RNvMs1_NtCshLLWmVuQQJZ_11deacon_core3ociINtB5_14FeatureFetcherpE22execute_install_scriptB7_
FNDA:0,_RNvMs1_NtCshLLWmVuQQJZ_11deacon_core3ociINtB5_14FeatureFetcherpE6clientB7_
FNDA:0,_RNCNCNvXsg_NtCshLLWmVuQQJZ_11deacon_core3ociNtB9_14MockHttpClientNtB9_10HttpClient3get00Bb_
FNDA:2,_RNvMs1_NtCshLLWmVuQQJZ_11deacon_core3ociINtB5_14FeatureFetcherNtB5_13ReqwestClientE3newB7_
FNDA:6,_RNvMNtCshLLWmVuQQJZ_11deacon_core3ociNtB2_10FeatureRef10repository
FNDA:3,_RNvMNtCshLLWmVuQQJZ_11deacon_core3ociNtB2_10FeatureRef3new
FNDA:6,_RNvMNtCshLLWmVuQQJZ_11deacon_core3ociNtB2_10FeatureRef3tag
FNDA:2,_RNvMNtCshLLWmVuQQJZ_11deacon_core3ociNtB2_10FeatureRef9reference
FNDA:2,_RNvMs2_NtCshLLWmVuQQJZ_11deacon_core3ociNtB5_14MockHttpClient12add_response
FNDA:1,_RNvMs2_NtCshLLWmVuQQJZ_11deacon_core3ociNtB5_14MockHttpClient3new
FNDA:2,_RNvMs_NtCshLLWmVuQQJZ_11deacon_core3ociNtB4_13ReqwestClient3new
FNDA:0,_RNvNtCshLLWmVuQQJZ_11deacon_core3oci15default_fetcher
FNDA:0,_RNvNtCshLLWmVuQQJZ_11deacon_core3oci22classify_network_error
FNDA:0,_RNvXs0_NtCshLLWmVuQQJZ_11deacon_core3ociNtB5_13ReqwestClientNtNtCs66KPHxksi63_4core7default7Default7default
FNDA:0,_RNvXs3_NtCshLLWmVuQQJZ_11deacon_core3ociNtB5_14MockHttpClientNtNtCs66KPHxksi63_4core7default7Default7default
FNDA:0,_RNvXsd_NtCshLLWmVuQQJZ_11deacon_core3ociNtB5_13ReqwestClientNtB5_10HttpClient16get_with_headers
FNDA:0,_RNvXsd_NtCshLLWmVuQQJZ_11deacon_core3ociNtB5_13ReqwestClientNtB5_10HttpClient3get
FNDA:2,_RNvXsg_NtCshLLWmVuQQJZ_11deacon_core3ociNtB5_14MockHttpClientNtB5_10HttpClient16get_with_headers
FNDA:3,_RNvXsg_NtCshLLWmVuQQJZ_11deacon_core3ociNtB5_14MockHttpClientNtB5_10HttpClient3get
FNDA:0,_RNCNCNCNCNvMs1_NtCs1G9XuckPzNo_11deacon_core3ociINtBd_14FeatureFetcherpE14download_layer0000Bf_
FNDA:0,_RNCNCNCNvMs1_NtCs1G9XuckPzNo_11deacon_core3ociINtBb_14FeatureFetcherpE14download_layer000Bd_
FNDA:0,_RNCNCNvMs1_NtCs1G9XuckPzNo_11deacon_core3ociINtB9_14FeatureFetcherpE13extract_layer00Bb_
FNDA:0,_RNCNCNvMs1_NtCs1G9XuckPzNo_11deacon_core3ociINtB9_14FeatureFetcherpE13extract_layer0s_0Bb_
FNDA:0,_RNCNCNvMs1_NtCs1G9XuckPzNo_11deacon_core3ociINtB9_14FeatureFetcherpE14download_layer00Bb_
FNDA:0,_RNCNCNvMs1_NtCs1G9XuckPzNo_11deacon_core3ociINtB9_14FeatureFetcherpE22execute_install_script00Bb_
FNDA:0,_RNCNvMs1_NtCs1G9XuckPzNo_11deacon_core3ociINtB7_14FeatureFetcherpE13extract_layer0B9_
FNDA:0,_RNCNvMs1_NtCs1G9XuckPzNo_11deacon_core3ociINtB7_14FeatureFetcherpE13fetch_feature0B9_
FNDA:0,_RNCNvMs1_NtCs1G9XuckPzNo_11deacon_core3ociINtB7_14FeatureFetcherpE14download_layer0B9_
FNDA:0,_RNCNvMs1_NtCs1G9XuckPzNo_11deacon_core3ociINtB7_14FeatureFetcherpE15install_feature0B9_
FNDA:0,_RNCNvMs1_NtCs1G9XuckPzNo_11deacon_core3ociINtB7_14FeatureFetcherpE19load_cached_feature0B9_
FNDA:0,_RNCNvMs1_NtCs1G9XuckPzNo_11deacon_core3ociINtB7_14FeatureFetcherpE22execute_install_script0B9_
FNDA:0,_RNvMs1_NtCs1G9XuckPzNo_11deacon_core3ociINtB5_14FeatureFetcherpE13extract_layerB7_
FNDA:0,_RNvMs1_NtCs1G9XuckPzNo_11deacon_core3ociINtB5_14FeatureFetcherpE13fetch_featureB7_
FNDA:0,_RNvMs1_NtCs1G9XuckPzNo_11deacon_core3ociINtB5_14FeatureFetcherpE13get_cache_keyB7_
FNDA:0,_RNvMs1_NtCs1G9XuckPzNo_11deacon_core3ociINtB5_14FeatureFetcherpE14download_layerB7_
FNDA:0,_RNvMs1_NtCs1G9XuckPzNo_11deacon_core3ociINtB5_14FeatureFetcherpE14with_cache_dirB7_
FNDA:0,_RNvMs1_NtCs1G9XuckPzNo_11deacon_core3ociINtB5_14FeatureFetcherpE15install_featureB7_
FNDA:0,_RNvMs1_NtCs1G9XuckPzNo_11deacon_core3ociINtB5_14FeatureFetcherpE19load_cached_featureB7_
FNDA:0,_RNvMs1_NtCs1G9XuckPzNo_11deacon_core3ociINtB5_14FeatureFetcherpE22execute_install_scriptB7_
FNDA:0,_RNvMs1_NtCs1G9XuckPzNo_11deacon_core3ociINtB5_14FeatureFetcherpE3newB7_
FNDA:0,_RNvMs1_NtCs1G9XuckPzNo_11deacon_core3ociINtB5_14FeatureFetcherpE6clientB7_
FNDA:0,_RNvMs_NtCs1G9XuckPzNo_11deacon_core3ociNtB4_13ReqwestClient3new
FNDA:0,_RNvNtCs1G9XuckPzNo_11deacon_core3oci15default_fetcher
FNDA:0,_RNvXs0_NtCs1G9XuckPzNo_11deacon_core3ociNtB5_13ReqwestClientNtNtCs66KPHxksi63_4core7default7Default7default
FNDA:0,_RNvXs3_NtCs1G9XuckPzNo_11deacon_core3ociNtB5_14MockHttpClientNtNtCs66KPHxksi63_4core7default7Default7default
FNDA:0,_RNvXsd_NtCs1G9XuckPzNo_11deacon_core3ociNtB5_13ReqwestClientNtB5_10HttpClient16get_with_headers
FNDA:0,_RNvXsd_NtCs1G9XuckPzNo_11deacon_core3ociNtB5_13ReqwestClientNtB5_10HttpClient3get
FNDA:0,_RNvXsg_NtCs1G9XuckPzNo_11deacon_core3ociNtB5_14MockHttpClientNtB5_10HttpClient16get_with_headers
FNDA:3,_RNCNCNCNCNvMs1_NtCs1G9XuckPzNo_11deacon_core3ociINtBd_14FeatureFetcherNtNCNvNtBd_5testss_38test_retry_gives_up_after_max_attempts019AlwaysFailingClientE12get_manifest0000Bf_
FNDA:2,_RNCNCNCNCNvMs1_NtCs1G9XuckPzNo_11deacon_core3ociINtBd_14FeatureFetcherNtNCNvNtBd_5testss_42test_retry_integration_with_manifest_fetch017FailingMockClientE12get_manifest0000Bf_
FNDA:3,_RNCNCNCNvMs1_NtCs1G9XuckPzNo_11deacon_core3ociINtBb_14FeatureFetcherNtNCNvNtBb_5testss_38test_retry_gives_up_after_max_attempts019AlwaysFailingClientE12get_manifest000Bd_
FNDA:3,_RNCNCNCNvMs1_NtCs1G9XuckPzNo_11deacon_core3ociINtBb_14FeatureFetcherNtNCNvNtBb_5testss_42test_retry_integration_with_manifest_fetch017FailingMockClientE12get_manifest000Bd_
FNDA:3,_RNCNCNvMs1_NtCs1G9XuckPzNo_11deacon_core3ociINtB9_14FeatureFetcherNtNCNvNtB9_5testss_38test_retry_gives_up_after_max_attempts019AlwaysFailingClientE12get_manifest00Bb_
FNDA:0,_RNCNCNvMs1_NtCs1G9XuckPzNo_11deacon_core3ociINtB9_14FeatureFetcherNtNCNvNtB9_5testss_38test_retry_gives_up_after_max_attempts019AlwaysFailingClientE12get_manifest0s_0Bb_
FNDA:3,_RNCNCNvMs1_NtCs1G9XuckPzNo_11deacon_core3ociINtB9_14FeatureFetcherNtNCNvNtB9_5testss_42test_retry_integration_with_manifest_fetch017FailingMockClientE12get_manifest00Bb_
FNDA:0,_RNCNCNvMs1_NtCs1G9XuckPzNo_11deacon_core3ociINtB9_14FeatureFetcherNtNCNvNtB9_5testss_42test_retry_integration_with_manifest_fetch017FailingMockClientE12get_manifest0s_0Bb_
FNDA:1,_RNCNCNvXsg_NtCs1G9XuckPzNo_11deacon_core3ociNtB9_14MockHttpClientNtB9_10HttpClient3get00Bb_
FNDA:1,_RNCNvMs1_NtCs1G9XuckPzNo_11deacon_core3ociINtB7_14FeatureFetcherNtNCNvNtB7_5testss_38test_retry_gives_up_after_max_attempts019AlwaysFailingClientE12get_manifest0B9_
FNDA:1,_RNCNvMs1_NtCs1G9XuckPzNo_11deacon_core3ociINtB7_14FeatureFetcherNtNCNvNtB7_5testss_42test_retry_integration_with_manifest_fetch017FailingMockClientE12get_manifest0B9_
FNDA:1,_RNCNvMs2_NtCs1G9XuckPzNo_11deacon_core3ociNtB7_14MockHttpClient12add_response0B9_
FNDA:1,_RNvMs1_NtCs1G9XuckPzNo_11deacon_core3ociINtB5_14FeatureFetcherNtNCNvNtB5_5testss_38test_retry_gives_up_after_max_attempts019AlwaysFailingClientE12get_manifestB7_
FNDA:1,_RNvMs1_NtCs1G9XuckPzNo_11deacon_core3ociINtB5_14FeatureFetcherNtNCNvNtB5_5testss_38test_retry_gives_up_after_max_attempts019AlwaysFailingClientE17with_retry_configB7_
FNDA:1,_RNvMs1_NtCs1G9XuckPzNo_11deacon_core3ociINtB5_14FeatureFetcherNtNCNvNtB5_5testss_42test_retry_integration_with_manifest_fetch017FailingMockClientE12get_manifestB7_
FNDA:1,_RNvMs1_NtCs1G9XuckPzNo_11deacon_core3ociINtB5_14FeatureFetcherNtNCNvNtB5_5testss_42test_retry_integration_with_manifest_fetch017FailingMockClientE17with_retry_configB7_
FNDA:1,_RNvMNCNvNtNtCs1G9XuckPzNo_11deacon_core3oci5testss_38test_retry_gives_up_after_max_attempts0NtB2_19AlwaysFailingClient3new
FNDA:1,_RNvMNCNvNtNtCs1G9XuckPzNo_11deacon_core3oci5testss_42test_retry_integration_with_manifest_fetch0NtB2_17FailingMockClient3new
FNDA:1,_RNvNtNtCs1G9XuckPzNo_11deacon_core3oci5testss_21test_error_classifier
FNDA:1,_RNvNtNtCs1G9XuckPzNo_11deacon_core3oci5testss_21test_mock_http_client
FNDA:1,_RNvNtNtCs1G9XuckPzNo_11deacon_core3oci5testss_25test_feature_ref_creation
FNDA:1,_RNvNtNtCs1G9XuckPzNo_11deacon_core3oci5testss_32test_feature_ref_default_version
FNDA:1,_RNvNtNtCs1G9XuckPzNo_11deacon_core3oci5testss_38test_retry_gives_up_after_max_attempts
FNDA:1,_RNvNtNtCs1G9XuckPzNo_11deacon_core3oci5testss_42test_retry_integration_with_manifest_fetch
FNDA:3,_RNvXs1_NCNvNtNtCs1G9XuckPzNo_11deacon_core3oci5testss_38test_retry_gives_up_after_max_attempts0NtB5_19AlwaysFailingClientNtBb_10HttpClient16get_with_headers
FNDA:3,_RNvXs1_NCNvNtNtCs1G9XuckPzNo_11deacon_core3oci5testss_38test_retry_gives_up_after_max_attempts0NtB5_19AlwaysFailingClientNtBb_10HttpClient3get
FNDA:3,_RNvXs1_NCNvNtNtCs1G9XuckPzNo_11deacon_core3oci5testss_42test_retry_integration_with_manifest_fetch0NtB5_17FailingMockClientNtBb_10HttpClient16get_with_headers
FNDA:3,_RNvXs1_NCNvNtNtCs1G9XuckPzNo_11deacon_core3oci5testss_42test_retry_integration_with_manifest_fetch0NtB5_17FailingMockClientNtBb_10HttpClient3get
FNDA:1,_RNCNvNtNtCs1G9XuckPzNo_11deacon_core3oci5testss_21test_mock_http_client0B7_
FNDA:1,_RNCNvNtNtCs1G9XuckPzNo_11deacon_core3oci5testss_38test_retry_gives_up_after_max_attempts0B7_
FNDA:1,_RNCNvNtNtCs1G9XuckPzNo_11deacon_core3oci5testss_42test_retry_integration_with_manifest_fetch0B7_
FNDA:5,_RNvMNtCs1G9XuckPzNo_11deacon_core3ociNtB2_10FeatureRef10repository
FNDA:4,_RNvMNtCs1G9XuckPzNo_11deacon_core3ociNtB2_10FeatureRef3new
FNDA:6,_RNvMNtCs1G9XuckPzNo_11deacon_core3ociNtB2_10FeatureRef3tag
FNDA:2,_RNvMNtCs1G9XuckPzNo_11deacon_core3ociNtB2_10FeatureRef9reference
FNDA:1,_RNvMs2_NtCs1G9XuckPzNo_11deacon_core3ociNtB5_14MockHttpClient12add_response
FNDA:1,_RNvMs2_NtCs1G9XuckPzNo_11deacon_core3ociNtB5_14MockHttpClient3new
FNDA:9,_RNvNtCs1G9XuckPzNo_11deacon_core3oci22classify_network_error
FNDA:2,_RNvXsg_NtCs1G9XuckPzNo_11deacon_core3ociNtB5_14MockHttpClientNtB5_10HttpClient3get
FNDA:0,_RNCNCNCNCNvMs1_NtCshLLWmVuQQJZ_11deacon_core3ociINtBd_14FeatureFetcherNtBd_14MockHttpClientE12get_manifest0000CsfXC7pKQYjgD_15integration_oci
FNDA:0,_RNCNCNCNCNvMs1_NtCshLLWmVuQQJZ_11deacon_core3ociINtBd_14FeatureFetcherNtBd_14MockHttpClientE14download_layer0000CsfXC7pKQYjgD_15integration_oci
FNDA:2,_RNCNCNCNvMs1_NtCshLLWmVuQQJZ_11deacon_core3ociINtBb_14FeatureFetcherNtBb_14MockHttpClientE12get_manifest000CsfXC7pKQYjgD_15integration_oci
FNDA:1,_RNCNCNCNvMs1_NtCshLLWmVuQQJZ_11deacon_core3ociINtBb_14FeatureFetcherNtBb_14MockHttpClientE14download_layer000CsfXC7pKQYjgD_15integration_oci
FNDA:0,_RNCNCNvMs1_NtCshLLWmVuQQJZ_11deacon_core3ociINtB9_14FeatureFetcherNtB9_13ReqwestClientE22execute_install_script00CsfXC7pKQYjgD_15integration_oci
FNDA:2,_RNCNCNvMs1_NtCshLLWmVuQQJZ_11deacon_core3ociINtB9_14FeatureFetcherNtB9_14MockHttpClientE12get_manifest00CsfXC7pKQYjgD_15integration_oci
FNDA:0,_RNCNCNvMs1_NtCshLLWmVuQQJZ_11deacon_core3ociINtB9_14FeatureFetcherNtB9_14MockHttpClientE12get_manifest0s_0CsfXC7pKQYjgD_15integration_oci
FNDA:0,_RNCNCNvMs1_NtCshLLWmVuQQJZ_11deacon_core3ociINtB9_14FeatureFetcherNtB9_14MockHttpClientE13extract_layer00CsfXC7pKQYjgD_15integration_oci
FNDA:0,_RNCNCNvMs1_NtCshLLWmVuQQJZ_11deacon_core3ociINtB9_14FeatureFetcherNtB9_14MockHttpClientE13extract_layer0s_0CsfXC7pKQYjgD_15integration_oci
FNDA:1,_RNCNCNvMs1_NtCshLLWmVuQQJZ_11deacon_core3ociINtB9_14FeatureFetcherNtB9_14MockHttpClientE14download_layer00CsfXC7pKQYjgD_15integration_oci
FNDA:2,_RNCNvMs1_NtCshLLWmVuQQJZ_11deacon_core3ociINtB7_14FeatureFetcherNtB7_13ReqwestClientE15install_feature0CsfXC7pKQYjgD_15integration_oci
FNDA:1,_RNCNvMs1_NtCshLLWmVuQQJZ_11deacon_core3ociINtB7_14FeatureFetcherNtB7_13ReqwestClientE22execute_install_script0CsfXC7pKQYjgD_15integration_oci
FNDA:2,_RNCNvMs1_NtCshLLWmVuQQJZ_11deacon_core3ociINtB7_14FeatureFetcherNtB7_14MockHttpClientE12get_manifest0CsfXC7pKQYjgD_15integration_oci
FNDA:1,_RNCNvMs1_NtCshLLWmVuQQJZ_11deacon_core3ociINtB7_14FeatureFetcherNtB7_14MockHttpClientE13extract_layer0CsfXC7pKQYjgD_15integration_oci
FNDA:2,_RNCNvMs1_NtCshLLWmVuQQJZ_11deacon_core3ociINtB7_14FeatureFetcherNtB7_14MockHttpClientE13fetch_feature0CsfXC7pKQYjgD_15integration_oci
FNDA:1,_RNCNvMs1_NtCshLLWmVuQQJZ_11deacon_core3ociINtB7_14FeatureFetcherNtB7_14MockHttpClientE14download_layer0CsfXC7pKQYjgD_15integration_oci
FNDA:1,_RNCNvMs1_NtCshLLWmVuQQJZ_11deacon_core3ociINtB7_14FeatureFetcherNtB7_14MockHttpClientE19load_cached_feature0CsfXC7pKQYjgD_15integration_oci
FNDA:2,_RNCNvMs2_NtCshLLWmVuQQJZ_11deacon_core3ociNtB7_14MockHttpClient12add_response0CsfXC7pKQYjgD_15integration_oci
FNDA:2,_RNvMs1_NtCshLLWmVuQQJZ_11deacon_core3ociINtB5_14FeatureFetcherNtB5_13ReqwestClientE15install_featureCsfXC7pKQYjgD_15integration_oci
FNDA:1,_RNvMs1_NtCshLLWmVuQQJZ_11deacon_core3ociINtB5_14FeatureFetcherNtB5_13ReqwestClientE22execute_install_scriptCsfXC7pKQYjgD_15integration_oci
FNDA:2,_RNvMs1_NtCshLLWmVuQQJZ_11deacon_core3ociINtB5_14FeatureFetcherNtB5_14MockHttpClientE12get_manifestCsfXC7pKQYjgD_15integration_oci
FNDA:1,_RNvMs1_NtCshLLWmVuQQJZ_11deacon_core3ociINtB5_14FeatureFetcherNtB5_14MockHttpClientE13extract_layerCsfXC7pKQYjgD_15integration_oci
FNDA:2,_RNvMs1_NtCshLLWmVuQQJZ_11deacon_core3ociINtB5_14FeatureFetcherNtB5_14MockHttpClientE13fetch_featureCsfXC7pKQYjgD_15integration_oci
FNDA:2,_RNvMs1_NtCshLLWmVuQQJZ_11deacon_core3ociINtB5_14FeatureFetcherNtB5_14MockHttpClientE13get_cache_keyCsfXC7pKQYjgD_15integration_oci
FNDA:1,_RNvMs1_NtCshLLWmVuQQJZ_11deacon_core3ociINtB5_14FeatureFetcherNtB5_14MockHttpClientE14download_layerCsfXC7pKQYjgD_15integration_oci
FNDA:1,_RNvMs1_NtCshLLWmVuQQJZ_11deacon_core3ociINtB5_14FeatureFetcherNtB5_14MockHttpClientE14with_cache_dirCsfXC7pKQYjgD_15integration_oci
FNDA:1,_RNvMs1_NtCshLLWmVuQQJZ_11deacon_core3ociINtB5_14FeatureFetcherNtB5_14MockHttpClientE19load_cached_featureCsfXC7pKQYjgD_15integration_oci
FNDA:2,_RNvMs1_NtCshLLWmVuQQJZ_11deacon_core3ociINtB5_14FeatureFetcherNtB5_14MockHttpClientE6clientCsfXC7pKQYjgD_15integration_oci
FNF:61
FNH:51
DA:35,7
DA:36,7
DA:37,7
DA:38,7
DA:39,7
DA:40,7
DA:41,7
DA:42,7
DA:45,12
DA:46,12
DA:47,12
DA:50,11
DA:51,11
DA:52,11
DA:55,4
DA:56,4
DA:57,4
DA:117,2
DA:118,2
DA:119,2
DA:120,2
DA:121,2
DA:125,0
DA:126,0
DA:127,0
DA:135,0
DA:139,0
DA:145,0
DA:153,0
DA:165,9
DA:166,9
DA:167,6
DA:168,1
DA:174,2
DA:176,0
DA:177,0
DA:178,0
DA:180,9
DA:184,2
DA:185,2
DA:186,2
DA:187,2
DA:188,2
DA:189,2
DA:190,2
DA:191,2
DA:194,1
DA:195,1
DA:196,1
DA:197,1
DA:198,1
DA:199,1
DA:200,1
DA:203,2
DA:204,2
DA:205,2
DA:206,2
DA:207,2
DA:208,2
DA:209,2
DA:212,2
DA:213,2
DA:214,2
DA:218,2
DA:261,2
DA:265,2
DA:287,2
DA:290,4
DA:291,4
DA:292,4
DA:294,4
DA:295,4
DA:298,4
DA:300,4
DA:301,4
DA:302,4
DA:303,4
DA:307,4
DA:308,4
DA:309,8
DA:310,8
DA:311,8
DA:312,8
DA:313,8
DA:314,8
DA:315,5
DA:316,5
DA:317,5
DA:318,5
DA:319,8
DA:320,8
DA:321,4
DA:323,4
DA:325,3
DA:326,3
DA:327,0
DA:328,0
DA:330,3
DA:331,4
DA:334,1
DA:335,1
DA:336,1
DA:338,1
DA:342,1
DA:345,1
DA:346,1
DA:347,1
DA:348,1
DA:349,1
DA:350,1
DA:351,1
DA:352,0
DA:353,0
DA:354,1
DA:355,1
DA:356,1
DA:358,1
DA:360,1
DA:361,1
DA:364,1
DA:365,1
DA:368,1
DA:369,0
DA:370,0
DA:372,1
DA:375,1
DA:376,1
DA:378,1
DA:379,1
DA:380,1
DA:381,0
DA:382,0
DA:384,1
DA:385,1
DA:388,1
DA:389,1
DA:390,1
DA:391,1
DA:392,1
DA:393,1
DA:394,1
DA:396,1
DA:397,1
DA:398,1
DA:399,1
DA:400,1
DA:401,1
DA:404,2
DA:406,2
DA:407,2
DA:408,2
DA:409,2
DA:410,2
DA:413,1
DA:414,1
DA:415,1
DA:416,1
DA:417,1
DA:418,1
DA:420,1
DA:421,1
DA:424,3
DA:425,2
DA:426,2
DA:430,1
DA:431,0
DA:432,0
DA:435,1
DA:436,1
DA:437,3
DA:438,3
DA:440,0
DA:442,1
DA:443,0
DA:444,0
DA:445,0
DA:447,1
DA:450,1
DA:451,0
DA:452,0
DA:453,0
DA:454,0
DA:455,0
DA:456,0
DA:457,0
DA:458,1
DA:460,1
DA:461,1
DA:462,1
DA:466,0
DA:467,0
DA:468,0
DA:477,2
DA:478,2
DA:479,2
DA:480,2
DA:481,2
DA:483,3
DA:484,3
DA:485,3
DA:486,3
DA:490,0
DA:491,0
DA:492,0
DA:500,5
DA:505,1
DA:506,5
DA:512,2
DA:514,2
DA:522,1
DA:523,1
DA:524,1
DA:525,1
DA:526,1
DA:527,1
DA:530,1
DA:531,1
DA:532,1
DA:533,1
DA:534,1
DA:535,1
DA:536,1
DA:537,1
DA:540,1
DA:541,1
DA:542,1
DA:543,1
DA:544,1
DA:545,1
DA:548,1
DA:549,1
DA:550,1
DA:553,1
DA:554,1
DA:555,1
DA:557,1
DA:558,1
DA:559,1
DA:561,1
DA:562,1
DA:565,1
DA:566,1
DA:567,1
DA:570,1
DA:582,1
DA:583,1
DA:584,1
DA:585,1
DA:586,1
DA:587,1
DA:595,3
DA:612,3
DA:618,3
DA:620,3
DA:624,1
DA:625,1
DA:626,1
DA:627,1
DA:628,1
DA:629,1
DA:630,1
DA:632,1
DA:633,1
DA:634,1
DA:635,1
DA:638,1
DA:639,1
DA:640,1
DA:641,1
DA:642,1
DA:645,1
DA:646,1
DA:648,1
DA:649,1
DA:650,1
DA:653,1
DA:654,1
DA:657,1
DA:668,1
DA:669,1
DA:670,1
DA:671,1
DA:672,1
DA:680,3
DA:683,3
DA:689,3
DA:691,3
DA:694,1
DA:695,1
DA:696,1
DA:697,1
DA:698,1
DA:699,1
DA:700,1
DA:702,1
DA:703,1
DA:704,1
DA:705,1
DA:708,1
DA:709,1
DA:710,1
DA:711,1
DA:712,1
DA:715,1
DA:716,1
DA:719,1
DA:720,1
DA:723,1
DA:727,1
DA:728,1
DA:729,1
DA:730,1
DA:731,1
DA:735,1
DA:736,1
DA:737,1
DA:738,1
DA:739,1
DA:744,1
DA:745,1
DA:746,1
DA:747,1
DA:748,1
DA:752,1
DA:753,1
DA:754,1
DA:755,1
DA:756,1
DA:759,1
BRF:0
BRH:0
LF:348
LH:307
end_of_record
SF:/home/runner/work/deacon/deacon/crates/core/src/ports.rs
FN:186,_RNCNvMNtCshLLWmVuQQJZ_11deacon_core5portsNtB4_21PortForwardingManager17create_port_events_0B6_
FN:59,_RNCNvMNtCshLLWmVuQQJZ_11deacon_core5portsNtB4_21PortForwardingManager23process_container_ports0B6_
FN:78,_RNCNvMNtCshLLWmVuQQJZ_11deacon_core5portsNtB4_21PortForwardingManager23process_container_portss_0B6_
FN:256,_RNvMNtCshLLWmVuQQJZ_11deacon_core5portsNtB2_21PortForwardingManager15emit_port_event
FN:170,_RNvMNtCshLLWmVuQQJZ_11deacon_core5portsNtB2_21PortForwardingManager17create_port_event
FN:194,_RNvMNtCshLLWmVuQQJZ_11deacon_core5portsNtB2_21PortForwardingManager19get_port_attributes
FN:43,_RNvMNtCshLLWmVuQQJZ_11deacon_core5portsNtB2_21PortForwardingManager23process_container_ports
FN:104,_RNvMNtCshLLWmVuQQJZ_11deacon_core5portsNtB2_21PortForwardingManager24collect_configured_ports
FN:125,_RNvMNtCshLLWmVuQQJZ_11deacon_core5portsNtB2_21PortForwardingManager24validate_port_attributes
FN:256,_RNvMNtCs1G9XuckPzNo_11deacon_core5portsNtB2_21PortForwardingManager15emit_port_event
FN:170,_RNvMNtCs1G9XuckPzNo_11deacon_core5portsNtB2_21PortForwardingManager17create_port_event
FN:194,_RNvMNtCs1G9XuckPzNo_11deacon_core5portsNtB2_21PortForwardingManager19get_port_attributes
FN:43,_RNvMNtCs1G9XuckPzNo_11deacon_core5portsNtB2_21PortForwardingManager23process_container_ports
FN:104,_RNvMNtCs1G9XuckPzNo_11deacon_core5portsNtB2_21PortForwardingManager24collect_configured_ports
FN:125,_RNvMNtCs1G9XuckPzNo_11deacon_core5portsNtB2_21PortForwardingManager24validate_port_attributes
FN:186,_RNCNvMNtCs1G9XuckPzNo_11deacon_core5portsNtB4_21PortForwardingManager17create_port_events_0B6_
FN:59,_RNCNvMNtCs1G9XuckPzNo_11deacon_core5portsNtB4_21PortForwardingManager23process_container_ports0B6_
FN:78,_RNCNvMNtCs1G9XuckPzNo_11deacon_core5portsNtB4_21PortForwardingManager23process_container_portss_0B6_
FN:428,_RNvNtNtCs1G9XuckPzNo_11deacon_core5ports5testss_22test_create_port_event
FN:312,_RNvNtNtCs1G9XuckPzNo_11deacon_core5ports5testss_29test_collect_configured_ports
FN:508,_RNvNtNtCs1G9XuckPzNo_11deacon_core5ports5testss_36test_unknown_port_attributes_warning
FN:359,_RNvNtNtCs1G9XuckPzNo_11deacon_core5ports5testss_38test_get_port_attributes_with_defaults
FNDA:4,_RNCNvMNtCshLLWmVuQQJZ_11deacon_core5portsNtB4_21PortForwardingManager17create_port_events_0B6_
FNDA:7,_RNCNvMNtCshLLWmVuQQJZ_11deacon_core5portsNtB4_21PortForwardingManager23process_container_ports0B6_
FNDA:7,_RNCNvMNtCshLLWmVuQQJZ_11deacon_core5portsNtB4_21PortForwardingManager23process_container_portss_0B6_
FNDA:0,_RNvMNtCshLLWmVuQQJZ_11deacon_core5portsNtB2_21PortForwardingManager15emit_port_event
FNDA:5,_RNvMNtCshLLWmVuQQJZ_11deacon_core5portsNtB2_21PortForwardingManager17create_port_event
FNDA:5,_RNvMNtCshLLWmVuQQJZ_11deacon_core5portsNtB2_21PortForwardingManager19get_port_attributes
FNDA:4,_RNvMNtCshLLWmVuQQJZ_11deacon_core5portsNtB2_21PortForwardingManager23process_container_ports
FNDA:4,_RNvMNtCshLLWmVuQQJZ_11deacon_core5portsNtB2_21PortForwardingManager24collect_configured_ports
FNDA:4,_RNvMNtCshLLWmVuQQJZ_11deacon_core5portsNtB2_21PortForwardingManager24validate_port_attributes
FNDA:0,_RNvMNtCs1G9XuckPzNo_11deacon_core5portsNtB2_21PortForwardingManager15emit_port_event
FNDA:2,_RNvMNtCs1G9XuckPzNo_11deacon_core5portsNtB2_21PortForwardingManager17create_port_event
FNDA:4,_RNvMNtCs1G9XuckPzNo_11deacon_core5portsNtB2_21PortForwardingManager19get_port_attributes
FNDA:1,_RNvMNtCs1G9XuckPzNo_11deacon_core5portsNtB2_21PortForwardingManager23process_container_ports
FNDA:2,_RNvMNtCs1G9XuckPzNo_11deacon_core5portsNtB2_21PortForwardingManager24collect_configured_ports
FNDA:1,_RNvMNtCs1G9XuckPzNo_11deacon_core5portsNtB2_21PortForwardingManager24validate_port_attributes
FNDA:2,_RNCNvMNtCs1G9XuckPzNo_11deacon_core5portsNtB4_21PortForwardingManager17create_port_events_0B6_
FNDA:1,_RNCNvMNtCs1G9XuckPzNo_11deacon_core5portsNtB4_21PortForwardingManager23process_container_ports0B6_
FNDA:1,_RNCNvMNtCs1G9XuckPzNo_11deacon_core5portsNtB4_21PortForwardingManager23process_container_portss_0B6_
FNDA:1,_RNvNtNtCs1G9XuckPzNo_11deacon_core5ports5testss_22test_create_port_event
FNDA:1,_RNvNtNtCs1G9XuckPzNo_11deacon_core5ports5testss_29test_collect_configured_ports
FNDA:1,_RNvNtNtCs1G9XuckPzNo_11deacon_core5ports5testss_36test_unknown_port_attributes_warning
FNDA:1,_RNvNtNtCs1G9XuckPzNo_11deacon_core5ports5testss_38test_get_port_attributes_with_defaults
FNF:13
FNH:12
DA:43,5
DA:44,5
DA:45,5
DA:46,5
DA:47,5
DA:48,5
DA:51,5
DA:54,5
DA:57,12
DA:58,7
DA:59,8
DA:60,8
DA:61,8
DA:63,6
DA:64,6
DA:66,6
DA:67,0
DA:68,6
DA:70,6
DA:71,1
DA:75,10
DA:76,5
DA:78,8
DA:79,8
DA:80,8
DA:81,5
DA:82,0
DA:84,0
DA:85,0
DA:86,0
DA:87,0
DA:89,0
DA:90,0
DA:92,0
DA:93,0
DA:94,0
DA:96,0
DA:97,0
DA:100,5
DA:101,5
DA:104,6
DA:105,6
DA:108,13
DA:109,7
DA:110,7
DA:111,7
DA:115,6
DA:116,2
DA:117,2
DA:118,2
DA:119,4
DA:121,6
DA:122,6
DA:125,5
DA:126,5
DA:127,5
DA:128,5
DA:130,5
DA:131,4
DA:134,4
DA:135,4
DA:136,3
DA:137,3
DA:138,0
DA:141,4
DA:142,0
DA:143,0
DA:144,0
DA:145,0
DA:146,0
DA:147,0
DA:148,4
DA:151,4
DA:152,1
DA:153,1
DA:154,0
DA:155,0
DA:156,1
DA:158,3
DA:160,4
DA:161,1
DA:162,1
DA:165,3
DA:167,5
DA:170,7
DA:171,7
DA:172,7
DA:173,7
DA:174,7
DA:175,7
DA:177,7
DA:180,7
DA:181,7
DA:182,7
DA:183,7
DA:184,7
DA:185,7
DA:186,7
DA:187,7
DA:188,7
DA:189,7
DA:191,7
DA:194,9
DA:195,9
DA:196,9
DA:197,9
DA:198,9
DA:199,9
DA:200,9
DA:201,9
DA:204,9
DA:205,6
DA:206,6
DA:207,6
DA:208,6
DA:209,6
DA:210,6
DA:213,9
DA:214,9
DA:215,5
DA:216,5
DA:217,5
DA:218,5
DA:219,5
DA:220,5
DA:221,5
DA:222,2
DA:223,3
DA:224,5
DA:225,1
DA:226,4
DA:227,5
DA:228,2
DA:229,3
DA:230,4
DA:233,9
DA:234,9
DA:235,0
DA:236,0
DA:237,0
DA:238,0
DA:239,0
DA:240,0
DA:241,0
DA:242,0
DA:243,0
DA:244,0
DA:245,0
DA:246,0
DA:247,0
DA:248,0
DA:249,0
DA:250,9
DA:252,9
DA:253,9
DA:256,0
DA:257,0
DA:258,0
DA:259,0
DA:260,0
DA:261,0
DA:262,0
DA:267,0
DA:268,0
DA:270,0
DA:271,0
DA:273,0
DA:277,0
DA:278,0
DA:280,0
DA:285,0
DA:286,0
DA:291,0
DA:292,0
DA:293,0
DA:296,0
DA:297,0
DA:302,0
DA:303,0
DA:312,1
DA:313,1
DA:314,1
DA:315,1
DA:316,1
DA:317,1
DA:318,1
DA:319,1
DA:320,1
DA:321,1
DA:322,1
DA:323,1
DA:324,1
DA:325,1
DA:326,1
DA:327,1
DA:328,1
DA:329,1
DA:330,1
DA:331,1
DA:332,1
DA:333,1
DA:334,1
DA:335,1
DA:336,1
DA:337,1
DA:338,1
DA:339,1
DA:340,1
DA:341,1
DA:342,1
DA:343,1
DA:344,1
DA:345,1
DA:346,1
DA:347,1
DA:348,1
DA:350,1
DA:352,1
DA:353,1
DA:354,1
DA:355,1
DA:356,1
DA:359,1
DA:360,1
DA:361,1
DA:362,1
DA:363,1
DA:364,1
DA:365,1
DA:366,1
DA:367,1
DA:368,1
DA:369,1
DA:372,1
DA:373,1
DA:374,1
DA:375,1
DA:376,1
DA:377,1
DA:378,1
DA:379,1
DA:380,1
DA:381,1
DA:382,1
DA:383,1
DA:384,1
DA:385,1
DA:386,1
DA:387,1
DA:388,1
DA:389,1
DA:390,1
DA:391,1
DA:392,1
DA:393,1
DA:394,1
DA:395,1
DA:396,1
DA:397,1
DA:398,1
DA:399,1
DA:400,1
DA:401,1
DA:402,1
DA:403,1
DA:404,1
DA:405,1
DA:406,1
DA:407,1
DA:408,1
DA:409,1
DA:410,1
DA:413,1
DA:414,1
DA:415,1
DA:416,1
DA:417,1
DA:420,1
DA:421,1
DA:422,1
DA:423,1
DA:424,1
DA:425,1
DA:428,1
DA:429,1
DA:430,1
DA:431,1
DA:432,1
DA:434,1
DA:435,1
DA:436,1
DA:437,1
DA:438,1
DA:439,1
DA:441,1
DA:443,1
DA:444,1
DA:445,1
DA:446,1
DA:447,1
DA:448,1
DA:449,1
DA:450,1
DA:451,1
DA:452,1
DA:455,1
DA:456,1
DA:457,1
DA:458,1
DA:459,1
DA:460,1
DA:461,1
DA:462,1
DA:463,1
DA:464,1
DA:465,1
DA:466,1
DA:467,1
DA:468,1
DA:469,1
DA:470,1
DA:471,1
DA:472,1
DA:473,1
DA:474,1
DA:475,1
DA:476,1
DA:477,1
DA:478,1
DA:479,1
DA:480,1
DA:481,1
DA:482,1
DA:483,1
DA:484,1
DA:485,1
DA:486,1
DA:487,1
DA:489,1
DA:490,1
DA:491,1
DA:492,1
DA:493,1
DA:496,1
DA:497,1
DA:498,1
DA:499,1
DA:500,1
DA:501,1
DA:502,1
DA:503,1
DA:504,1
DA:505,1
DA:508,1
DA:510,1
DA:511,1
DA:512,1
DA:513,1
DA:514,1
DA:515,1
DA:516,1
DA:517,1
DA:518,1
DA:519,1
DA:521,1
DA:522,1
DA:523,1
DA:524,1
DA:525,1
DA:526,1
DA:527,1
DA:528,1
DA:529,1
DA:532,1
DA:533,1
DA:534,1
DA:535,1
DA:536,1
DA:537,1
DA:538,1
DA:539,1
DA:540,1
DA:541,1
DA:542,1
DA:543,1
DA:544,1
DA:545,1
DA:546,1
DA:547,1
DA:548,1
DA:549,1
DA:550,1
DA:551,1
DA:552,1
DA:553,1
DA:554,1
DA:555,1
DA:556,1
DA:557,1
DA:558,1
DA:559,1
DA:560,1
DA:561,1
DA:562,1
DA:563,1
DA:564,1
DA:566,1
DA:567,1
DA:568,1
DA:569,1
DA:570,1
DA:571,1
DA:572,1
DA:573,1
DA:574,1
DA:575,1
DA:576,1
DA:577,1
DA:578,1
DA:579,1
DA:580,1
DA:581,1
DA:582,1
DA:585,1
DA:586,1
DA:589,1
DA:590,1
DA:595,1
BRF:0
BRH:0
LF:431
LH:370
end_of_record
SF:/home/runner/work/deacon/deacon/crates/core/src/redaction.rs
FN:196,_RNCNvNtCshLLWmVuQQJZ_11deacon_core9redaction17redact_if_enabled0B5_
FN:46,_RNvMNtCshLLWmVuQQJZ_11deacon_core9redactionNtB2_14SecretRegistry10add_secret
FN:74,_RNvMNtCshLLWmVuQQJZ_11deacon_core9redactionNtB2_14SecretRegistry11redact_text
FN:100,_RNvMNtCshLLWmVuQQJZ_11deacon_core9redactionNtB2_14SecretRegistry12secret_count
FN:35,_RNvMNtCshLLWmVuQQJZ_11deacon_core9redactionNtB2_14SecretRegistry3new
FN:109,_RNvMNtCshLLWmVuQQJZ_11deacon_core9redactionNtB2_14SecretRegistry5clear
FN:164,_RNvMs1_NtCshLLWmVuQQJZ_11deacon_core9redactionNtB5_15RedactionConfig16with_placeholder
FN:173,_RNvMs1_NtCshLLWmVuQQJZ_11deacon_core9redactionNtB5_15RedactionConfig20with_custom_registry
FN:182,_RNvMs1_NtCshLLWmVuQQJZ_11deacon_core9redactionNtB5_15RedactionConfig29with_placeholder_and_registry
FN:155,_RNvMs1_NtCshLLWmVuQQJZ_11deacon_core9redactionNtB5_15RedactionConfig8disabled
FN:234,_RNvNtCshLLWmVuQQJZ_11deacon_core9redaction11sha256_hash
FN:128,_RNvNtCshLLWmVuQQJZ_11deacon_core9redaction15global_registry
FN:221,_RNvNtCshLLWmVuQQJZ_11deacon_core9redaction17add_global_secret
FN:192,_RNvNtCshLLWmVuQQJZ_11deacon_core9redaction17redact_if_enabled
FN:201,_RNvNtCshLLWmVuQQJZ_11deacon_core9redaction20redact_with_registry
FN:144,_RNvXs0_NtCshLLWmVuQQJZ_11deacon_core9redactionNtB5_15RedactionConfigNtNtCs66KPHxksi63_4core7default7Default7default
FN:118,_RNvXs_NtCshLLWmVuQQJZ_11deacon_core9redactionNtB4_14SecretRegistryNtNtCs66KPHxksi63_4core7default7Default7default
FN:61,_RINvMNtCshLLWmVuQQJZ_11deacon_core9redactionNtB3_14SecretRegistry11add_secretspEB5_
FN:226,_RINvNtCshLLWmVuQQJZ_11deacon_core9redaction18add_global_secretspEB4_
FN:226,_RINvNtCs1G9XuckPzNo_11deacon_core9redaction18add_global_secretspEB4_
FN:118,_RNvXs_NtCs1G9XuckPzNo_11deacon_core9redactionNtB4_14SecretRegistryNtNtCs66KPHxksi63_4core7default7Default7default
FN:46,_RNvMNtCs1G9XuckPzNo_11deacon_core9redactionNtB2_14SecretRegistry10add_secret
FN:74,_RNvMNtCs1G9XuckPzNo_11deacon_core9redactionNtB2_14SecretRegistry11redact_text
FN:100,_RNvMNtCs1G9XuckPzNo_11deacon_core9redactionNtB2_14SecretRegistry12secret_count
FN:35,_RNvMNtCs1G9XuckPzNo_11deacon_core9redactionNtB2_14SecretRegistry3new
FN:109,_RNvMNtCs1G9XuckPzNo_11deacon_core9redactionNtB2_14SecretRegistry5clear
FN:164,_RNvMs1_NtCs1G9XuckPzNo_11deacon_core9redactionNtB5_15RedactionConfig16with_placeholder
FN:173,_RNvMs1_NtCs1G9XuckPzNo_11deacon_core9redactionNtB5_15RedactionConfig20with_custom_registry
FN:182,_RNvMs1_NtCs1G9XuckPzNo_11deacon_core9redactionNtB5_15RedactionConfig29with_placeholder_and_registry
FN:155,_RNvMs1_NtCs1G9XuckPzNo_11deacon_core9redactionNtB5_15RedactionConfig8disabled
FN:234,_RNvNtCs1G9XuckPzNo_11deacon_core9redaction11sha256_hash
FN:128,_RNvNtCs1G9XuckPzNo_11deacon_core9redaction15global_registry
FN:221,_RNvNtCs1G9XuckPzNo_11deacon_core9redaction17add_global_secret
FN:192,_RNvNtCs1G9XuckPzNo_11deacon_core9redaction17redact_if_enabled
FN:201,_RNvNtCs1G9XuckPzNo_11deacon_core9redaction20redact_with_registry
FN:144,_RNvXs0_NtCs1G9XuckPzNo_11deacon_core9redactionNtB5_15RedactionConfigNtNtCs66KPHxksi63_4core7default7Default7default
FN:256,_RNvNtNtCs1G9XuckPzNo_11deacon_core9redaction5testss_15test_add_secret
FN:324,_RNvNtNtCs1G9XuckPzNo_11deacon_core9redaction5testss_18test_clear_secrets
FN:334,_RNvNtNtCs1G9XuckPzNo_11deacon_core9redaction5testss_20test_global_registry
FN:292,_RNvNtNtCs1G9XuckPzNo_11deacon_core9redaction5testss_20test_redact_no_match
FN:270,_RNvNtNtCs1G9XuckPzNo_11deacon_core9redaction5testss_23test_redact_exact_match
FN:312,_RNvNtNtCs1G9XuckPzNo_11deacon_core9redaction5testss_25test_add_multiple_secrets
FN:263,_RNvNtNtCs1G9XuckPzNo_11deacon_core9redaction5testss_25test_add_secret_too_short
FN:446,_RNvNtNtCs1G9XuckPzNo_11deacon_core9redaction5testss_25test_sha256_hash_function
FN:346,_RNvNtNtCs1G9XuckPzNo_11deacon_core9redaction5testss_29test_redaction_config_default
FN:250,_RNvNtNtCs1G9XuckPzNo_11deacon_core9redaction5testss_29test_secret_registry_creation
FN:401,_RNvNtNtCs1G9XuckPzNo_11deacon_core9redaction5testss_30test_redact_if_enabled_enabled
FN:353,_RNvNtNtCs1G9XuckPzNo_11deacon_core9redaction5testss_30test_redaction_config_disabled
FN:386,_RNvNtNtCs1G9XuckPzNo_11deacon_core9redaction5testss_31test_redact_if_enabled_disabled
FN:281,_RNvNtNtCs1G9XuckPzNo_11deacon_core9redaction5testss_32test_redact_multiple_occurrences
FN:367,_RNvNtNtCs1G9XuckPzNo_11deacon_core9redaction5testss_37test_redaction_config_custom_registry
FN:302,_RNvNtNtCs1G9XuckPzNo_11deacon_core9redaction5testss_38test_redact_partial_match_not_redacted
FN:359,_RNvNtNtCs1G9XuckPzNo_11deacon_core9redaction5testss_40test_redaction_config_custom_placeholder
FN:415,_RNvNtNtCs1G9XuckPzNo_11deacon_core9redaction5testss_41test_redact_if_enabled_custom_placeholder
FN:429,_RNvNtNtCs1G9XuckPzNo_11deacon_core9redaction5testss_43test_redact_if_enabled_with_custom_registry
FN:376,_RNvNtNtCs1G9XuckPzNo_11deacon_core9redaction5testss_53test_redaction_config_custom_placeholder_and_registry
FN:61,_RINvMNtCs1G9XuckPzNo_11deacon_core9redactionNtB3_14SecretRegistry11add_secretsINtNtCs8Ty2CzGA6U3_5alloc3vec3VecNtNtB1j_6string6StringEEB5_
FN:196,_RNCNvNtCs1G9XuckPzNo_11deacon_core9redaction17redact_if_enabled0B5_
FNDA:10061,_RNCNvNtCshLLWmVuQQJZ_11deacon_core9redaction17redact_if_enabled0B5_
FNDA:124,_RNvMNtCshLLWmVuQQJZ_11deacon_core9redactionNtB2_14SecretRegistry10add_secret
FNDA:10077,_RNvMNtCshLLWmVuQQJZ_11deacon_core9redactionNtB2_14SecretRegistry11redact_text
FNDA:2,_RNvMNtCshLLWmVuQQJZ_11deacon_core9redactionNtB2_14SecretRegistry12secret_count
FNDA:9,_RNvMNtCshLLWmVuQQJZ_11deacon_core9redactionNtB2_14SecretRegistry3new
FNDA:6,_RNvMNtCshLLWmVuQQJZ_11deacon_core9redactionNtB2_14SecretRegistry5clear
FNDA:0,_RNvMs1_NtCshLLWmVuQQJZ_11deacon_core9redactionNtB5_15RedactionConfig16with_placeholder
FNDA:5,_RNvMs1_NtCshLLWmVuQQJZ_11deacon_core9redactionNtB5_15RedactionConfig20with_custom_registry
FNDA:1,_RNvMs1_NtCshLLWmVuQQJZ_11deacon_core9redactionNtB5_15RedactionConfig29with_placeholder_and_registry
FNDA:1,_RNvMs1_NtCshLLWmVuQQJZ_11deacon_core9redactionNtB5_15RedactionConfig8disabled
FNDA:122,_RNvNtCshLLWmVuQQJZ_11deacon_core9redaction11sha256_hash
FNDA:10181,_RNvNtCshLLWmVuQQJZ_11deacon_core9redaction15global_registry
FNDA:113,_RNvNtCshLLWmVuQQJZ_11deacon_core9redaction17add_global_secret
FNDA:10080,_RNvNtCshLLWmVuQQJZ_11deacon_core9redaction17redact_if_enabled
FNDA:10080,_RNvNtCshLLWmVuQQJZ_11deacon_core9redaction20redact_with_registry
FNDA:85,_RNvXs0_NtCshLLWmVuQQJZ_11deacon_core9redactionNtB5_15RedactionConfigNtNtCs66KPHxksi63_4core7default7Default7default
FNDA:0,_RNvXs_NtCshLLWmVuQQJZ_11deacon_core9redactionNtB4_14SecretRegistryNtNtCs66KPHxksi63_4core7default7Default7default
FNDA:0,_RINvMNtCshLLWmVuQQJZ_11deacon_core9redactionNtB3_14SecretRegistry11add_secretspEB5_
FNDA:0,_RINvNtCshLLWmVuQQJZ_11deacon_core9redaction18add_global_secretspEB4_
FNDA:0,_RINvNtCs1G9XuckPzNo_11deacon_core9redaction18add_global_secretspEB4_
FNDA:0,_RNvXs_NtCs1G9XuckPzNo_11deacon_core9redactionNtB4_14SecretRegistryNtNtCs66KPHxksi63_4core7default7Default7default
FNDA:15,_RNvMNtCs1G9XuckPzNo_11deacon_core9redactionNtB2_14SecretRegistry10add_secret
FNDA:8,_RNvMNtCs1G9XuckPzNo_11deacon_core9redactionNtB2_14SecretRegistry11redact_text
FNDA:8,_RNvMNtCs1G9XuckPzNo_11deacon_core9redactionNtB2_14SecretRegistry12secret_count
FNDA:13,_RNvMNtCs1G9XuckPzNo_11deacon_core9redactionNtB2_14SecretRegistry3new
FNDA:5,_RNvMNtCs1G9XuckPzNo_11deacon_core9redactionNtB2_14SecretRegistry5clear
FNDA:2,_RNvMs1_NtCs1G9XuckPzNo_11deacon_core9redactionNtB5_15RedactionConfig16with_placeholder
FNDA:2,_RNvMs1_NtCs1G9XuckPzNo_11deacon_core9redactionNtB5_15RedactionConfig20with_custom_registry
FNDA:1,_RNvMs1_NtCs1G9XuckPzNo_11deacon_core9redactionNtB5_15RedactionConfig29with_placeholder_and_registry
FNDA:2,_RNvMs1_NtCs1G9XuckPzNo_11deacon_core9redactionNtB5_15RedactionConfig8disabled
FNDA:17,_RNvNtCs1G9XuckPzNo_11deacon_core9redaction11sha256_hash
FNDA:12,_RNvNtCs1G9XuckPzNo_11deacon_core9redaction15global_registry
FNDA:4,_RNvNtCs1G9XuckPzNo_11deacon_core9redaction17add_global_secret
FNDA:4,_RNvNtCs1G9XuckPzNo_11deacon_core9redaction17redact_if_enabled
FNDA:4,_RNvNtCs1G9XuckPzNo_11deacon_core9redaction20redact_with_registry
FNDA:12,_RNvXs0_NtCs1G9XuckPzNo_11deacon_core9redactionNtB5_15RedactionConfigNtNtCs66KPHxksi63_4core7default7Default7default
FNDA:1,_RNvNtNtCs1G9XuckPzNo_11deacon_core9redaction5testss_15test_add_secret
FNDA:1,_RNvNtNtCs1G9XuckPzNo_11deacon_core9redaction5testss_18test_clear_secrets
FNDA:1,_RNvNtNtCs1G9XuckPzNo_11deacon_core9redaction5testss_20test_global_registry
FNDA:1,_RNvNtNtCs1G9XuckPzNo_11deacon_core9redaction5testss_20test_redact_no_match
FNDA:1,_RNvNtNtCs1G9XuckPzNo_11deacon_core9redaction5testss_23test_redact_exact_match
FNDA:1,_RNvNtNtCs1G9XuckPzNo_11deacon_core9redaction5testss_25test_add_multiple_secrets
FNDA:1,_RNvNtNtCs1G9XuckPzNo_11deacon_core9redaction5testss_25test_add_secret_too_short
FNDA:1,_RNvNtNtCs1G9XuckPzNo_11deacon_core9redaction5testss_25test_sha256_hash_function
FNDA:1,_RNvNtNtCs1G9XuckPzNo_11deacon_core9redaction5testss_29test_redaction_config_default
FNDA:1,_RNvNtNtCs1G9XuckPzNo_11deacon_core9redaction5testss_29test_secret_registry_creation
FNDA:1,_RNvNtNtCs1G9XuckPzNo_11deacon_core9redaction5testss_30test_redact_if_enabled_enabled
FNDA:1,_RNvNtNtCs1G9XuckPzNo_11deacon_core9redaction5testss_30test_redaction_config_disabled
FNDA:1,_RNvNtNtCs1G9XuckPzNo_11deacon_core9redaction5testss_31test_redact_if_enabled_disabled
FNDA:1,_RNvNtNtCs1G9XuckPzNo_11deacon_core9redaction5testss_32test_redact_multiple_occurrences
FNDA:1,_RNvNtNtCs1G9XuckPzNo_11deacon_core9redaction5testss_37test_redaction_config_custom_registry
FNDA:1,_RNvNtNtCs1G9XuckPzNo_11deacon_core9redaction5testss_38test_redact_partial_match_not_redacted
FNDA:1,_RNvNtNtCs1G9XuckPzNo_11deacon_core9redaction5testss_40test_redaction_config_custom_placeholder
FNDA:1,_RNvNtNtCs1G9XuckPzNo_11deacon_core9redaction5testss_41test_redact_if_enabled_custom_placeholder
FNDA:1,_RNvNtNtCs1G9XuckPzNo_11deacon_core9redaction5testss_43test_redact_if_enabled_with_custom_registry
FNDA:1,_RNvNtNtCs1G9XuckPzNo_11deacon_core9redaction5testss_53test_redaction_config_custom_placeholder_and_registry
FNDA:1,_RINvMNtCs1G9XuckPzNo_11deacon_core9redactionNtB3_14SecretRegistry11add_secretsINtNtCs8Ty2CzGA6U3_5alloc3vec3VecNtNtB1j_6string6StringEEB5_
FNDA:3,_RNCNvNtCs1G9XuckPzNo_11deacon_core9redaction17redact_if_enabled0B5_
FNF:39
FNH:37
DA:35,22
DA:36,22
DA:37,22
DA:38,22
DA:39,22
DA:46,139
DA:47,139
DA:48,3
DA:49,136
DA:51,136
DA:52,136
DA:53,136
DA:54,136
DA:55,136
DA:56,136
DA:57,136
DA:58,139
DA:61,1
DA:62,1
DA:63,1
DA:65,4
DA:66,3
DA:67,3
DA:68,1
DA:74,10085
DA:75,10085
DA:76,10085
DA:79,515087
DA:80,515087
DA:81,3027
DA:82,512060
DA:86,515087
DA:87,515087
DA:88,0
DA:89,515087
DA:92,10085
DA:95,0
DA:97,10085
DA:100,10
DA:101,10
DA:102,10
DA:104,0
DA:106,10
DA:109,11
DA:110,11
DA:111,11
DA:112,11
DA:113,11
DA:114,11
DA:118,0
DA:119,0
DA:120,0
DA:128,10193
DA:129,10193
DA:130,10193
DA:144,97
DA:145,97
DA:146,97
DA:147,97
DA:148,97
DA:149,97
DA:150,97
DA:155,3
DA:156,3
DA:157,3
DA:158,3
DA:159,3
DA:160,3
DA:161,3
DA:164,2
DA:165,2
DA:166,2
DA:167,2
DA:168,2
DA:169,2
DA:170,2
DA:173,7
DA:174,7
DA:175,7
DA:176,7
DA:177,7
DA:178,7
DA:179,7
DA:182,2
DA:183,2
DA:184,2
DA:185,2
DA:186,2
DA:187,2
DA:188,2
DA:192,10084
DA:193,10084
DA:194,10084
DA:195,10084
DA:196,10084
DA:197,10084
DA:198,10084
DA:201,10084
DA:202,10084
DA:203,10084
DA:204,10084
DA:205,10084
DA:206,10084
DA:207,4
DA:208,10080
DA:210,10080
DA:213,10080
DA:214,2
DA:216,10078
DA:218,10084
DA:221,117
DA:222,117
DA:223,117
DA:226,0
DA:227,0
DA:228,0
DA:230,0
DA:231,0
DA:234,139
DA:240,139
DA:241,139
DA:242,139
DA:243,139
DA:250,1
DA:251,1
DA:252,1
DA:253,1
DA:256,1
DA:257,1
DA:258,1
DA:259,1
DA:260,1
DA:263,1
DA:264,1
DA:265,1
DA:266,1
DA:267,1
DA:270,1
DA:271,1
DA:272,1
DA:273,1
DA:275,1
DA:276,1
DA:277,1
DA:278,1
DA:281,1
DA:282,1
DA:283,1
DA:284,1
DA:286,1
DA:287,1
DA:288,1
DA:289,1
DA:292,1
DA:293,1
DA:294,1
DA:296,1
DA:297,1
DA:298,1
DA:299,1
DA:302,1
DA:303,1
DA:304,1
DA:306,1
DA:307,1
DA:308,1
DA:309,1
DA:312,1
DA:313,1
DA:314,1
DA:315,1
DA:316,1
DA:317,1
DA:319,1
DA:320,1
DA:321,1
DA:324,1
DA:325,1
DA:326,1
DA:327,1
DA:329,1
DA:330,1
DA:331,1
DA:334,1
DA:335,1
DA:336,1
DA:338,1
DA:339,1
DA:342,1
DA:343,1
DA:346,1
DA:347,1
DA:348,1
DA:349,1
DA:350,1
DA:353,1
DA:354,1
DA:355,1
DA:356,1
DA:359,1
DA:360,1
DA:361,1
DA:362,1
DA:363,1
DA:364,1
DA:367,1
DA:368,1
DA:369,1
DA:370,1
DA:371,1
DA:372,1
DA:373,1
DA:376,1
DA:377,1
DA:378,1
DA:379,1
DA:380,1
DA:381,1
DA:382,1
DA:383,1
DA:386,1
DA:387,1
DA:388,1
DA:391,1
DA:393,1
DA:394,1
DA:397,1
DA:398,1
DA:401,1
DA:402,1
DA:403,1
DA:405,1
DA:407,1
DA:408,1
DA:411,1
DA:412,1
DA:415,1
DA:416,1
DA:417,1
DA:419,1
DA:421,1
DA:422,1
DA:425,1
DA:426,1
DA:429,1
DA:430,1
DA:431,1
DA:433,1
DA:434,1
DA:436,1
DA:437,1
DA:438,1
DA:441,1
DA:442,1
DA:443,1
DA:446,1
DA:447,1
DA:448,1
DA:449,1
DA:452,1
DA:455,1
DA:456,1
DA:457,1
BRF:0
BRH:0
LF:264
LH:253
end_of_record
SF:/home/runner/work/deacon/deacon/crates/core/src/retry.rs
FN:148,_RINvNtCshLLWmVuQQJZ_11deacon_core5retry11retry_asyncppppEB4_
FN:142,_RINvNtCshLLWmVuQQJZ_11deacon_core5retry18default_classifierpEB4_
FN:157,_RNCINvNtCshLLWmVuQQJZ_11deacon_core5retry11retry_asyncppppE0B6_
FN:82,_RNvMs0_NtCshLLWmVuQQJZ_11deacon_core5retryNtB5_11RetryConfig12apply_jitter
FN:67,_RNvMs0_NtCshLLWmVuQQJZ_11deacon_core5retryNtB5_11RetryConfig15calculate_delay
FN:52,_RNvMs0_NtCshLLWmVuQQJZ_11deacon_core5retryNtB5_11RetryConfig3new
FN:21,_RNvXNtCshLLWmVuQQJZ_11deacon_core5retryNtB2_14JitterStrategyNtNtCs66KPHxksi63_4core7default7Default7default
FN:40,_RNvXs_NtCshLLWmVuQQJZ_11deacon_core5retryNtB4_11RetryConfigNtNtCs66KPHxksi63_4core7default7Default7default
FN:381,_RNCNCNCNvNtNtCs1G9XuckPzNo_11deacon_core5retry5testss_34test_retry_async_all_attempts_fail000Bb_
FN:352,_RNCNCNCNvNtNtCs1G9XuckPzNo_11deacon_core5retry5testss_38test_retry_async_success_after_retries000Bb_
FN:327,_RNCNCNCNvNtNtCs1G9XuckPzNo_11deacon_core5retry5testss_41test_retry_async_success_on_first_attempt000Bb_
FN:406,_RNCNCNCNvNtNtCs1G9XuckPzNo_11deacon_core5retry5testss_43test_retry_async_stops_on_classify_decision000Bb_
FN:379,_RNCNCNvNtNtCs1G9XuckPzNo_11deacon_core5retry5testss_34test_retry_async_all_attempts_fail00B9_
FN:350,_RNCNCNvNtNtCs1G9XuckPzNo_11deacon_core5retry5testss_38test_retry_async_success_after_retries00B9_
FN:325,_RNCNCNvNtNtCs1G9XuckPzNo_11deacon_core5retry5testss_41test_retry_async_success_on_first_attempt00B9_
FN:404,_RNCNCNvNtNtCs1G9XuckPzNo_11deacon_core5retry5testss_43test_retry_async_stops_on_classify_decision00B9_
FN:413,_RNCNCNvNtNtCs1G9XuckPzNo_11deacon_core5retry5testss_43test_retry_async_stops_on_classify_decision0s_0B9_
FN:307,_RNCNvNtNtCs1G9XuckPzNo_11deacon_core5retry5testss_21test_error_classifier0B7_
FN:368,_RNCNvNtNtCs1G9XuckPzNo_11deacon_core5retry5testss_34test_retry_async_all_attempts_fail0B7_
FN:339,_RNCNvNtNtCs1G9XuckPzNo_11deacon_core5retry5testss_38test_retry_async_success_after_retries0B7_
FN:320,_RNCNvNtNtCs1G9XuckPzNo_11deacon_core5retry5testss_41test_retry_async_success_on_first_attempt0B7_
FN:393,_RNCNvNtNtCs1G9XuckPzNo_11deacon_core5retry5testss_43test_retry_async_stops_on_classify_decision0B7_
FN:82,_RNvMs0_NtCs1G9XuckPzNo_11deacon_core5retryNtB5_11RetryConfig12apply_jitter
FN:67,_RNvMs0_NtCs1G9XuckPzNo_11deacon_core5retryNtB5_11RetryConfig15calculate_delay
FN:100,_RNvMs0_NtCs1G9XuckPzNo_11deacon_core5retryNtB5_11RetryConfig19apply_jitter_seeded
FN:117,_RNvMs0_NtCs1G9XuckPzNo_11deacon_core5retryNtB5_11RetryConfig22calculate_delay_seeded
FN:52,_RNvMs0_NtCs1G9XuckPzNo_11deacon_core5retryNtB5_11RetryConfig3new
FN:21,_RNvXNtCs1G9XuckPzNo_11deacon_core5retryNtB2_14JitterStrategyNtNtCs66KPHxksi63_4core7default7Default7default
FN:40,_RNvXs_NtCs1G9XuckPzNo_11deacon_core5retryNtB4_11RetryConfigNtNtCs66KPHxksi63_4core7default7Default7default
FN:148,_RINvNtCs1G9XuckPzNo_11deacon_core5retry11retry_asyncNtNtCsdeDPnamZes_5bytes5bytes5BytesNtNtB4_6errors12FeatureErrorNCNCNCNvMs1_NtB4_3ociINtB21_14FeatureFetcherNtNCNvNtB21_5testss_38test_retry_gives_up_after_max_attempts019AlwaysFailingClientE12get_manifest000NCB1T_0EB4_
FN:148,_RINvNtCs1G9XuckPzNo_11deacon_core5retry11retry_asyncNtNtCsdeDPnamZes_5bytes5bytes5BytesNtNtB4_6errors12FeatureErrorNCNCNCNvMs1_NtB4_3ociINtB21_14FeatureFetcherNtNCNvNtB21_5testss_42test_retry_integration_with_manifest_fetch017FailingMockClientE12get_manifest000NCB1T_0EB4_
FN:148,_RINvNtCs1G9XuckPzNo_11deacon_core5retry11retry_asynclReNCNCNCNvNtB2_5testss_34test_retry_async_all_attempts_fail000NCBV_0EB4_
FN:148,_RINvNtCs1G9XuckPzNo_11deacon_core5retry11retry_asynclReNCNCNCNvNtB2_5testss_38test_retry_async_success_after_retries000NCBV_0EB4_
FN:148,_RINvNtCs1G9XuckPzNo_11deacon_core5retry11retry_asynclReNCNCNCNvNtB2_5testss_41test_retry_async_success_on_first_attempt000NCBV_0EB4_
FN:148,_RINvNtCs1G9XuckPzNo_11deacon_core5retry11retry_asyncllNCNCNCNvNtB2_5testss_43test_retry_async_stops_on_classify_decision000NCBU_0EB4_
FN:142,_RINvNtCs1G9XuckPzNo_11deacon_core5retry18default_classifierReEB4_
FN:157,_RNCINvNtCs1G9XuckPzNo_11deacon_core5retry11retry_asyncNtNtCsdeDPnamZes_5bytes5bytes5BytesNtNtB6_6errors12FeatureErrorNCNCNCNvMs1_NtB6_3ociINtB23_14FeatureFetcherNtNCNvNtB23_5testss_38test_retry_gives_up_after_max_attempts019AlwaysFailingClientE12get_manifest000NCB1V_0E0B6_
FN:157,_RNCINvNtCs1G9XuckPzNo_11deacon_core5retry11retry_asyncNtNtCsdeDPnamZes_5bytes5bytes5BytesNtNtB6_6errors12FeatureErrorNCNCNCNvMs1_NtB6_3ociINtB23_14FeatureFetcherNtNCNvNtB23_5testss_42test_retry_integration_with_manifest_fetch017FailingMockClientE12get_manifest000NCB1V_0E0B6_
FN:157,_RNCINvNtCs1G9XuckPzNo_11deacon_core5retry11retry_asynclReNCNCNCNvNtB4_5testss_34test_retry_async_all_attempts_fail000NCBX_0E0B6_
FN:157,_RNCINvNtCs1G9XuckPzNo_11deacon_core5retry11retry_asynclReNCNCNCNvNtB4_5testss_38test_retry_async_success_after_retries000NCBX_0E0B6_
FN:157,_RNCINvNtCs1G9XuckPzNo_11deacon_core5retry11retry_asynclReNCNCNCNvNtB4_5testss_41test_retry_async_success_on_first_attempt000NCBX_0E0B6_
FN:157,_RNCINvNtCs1G9XuckPzNo_11deacon_core5retry11retry_asyncllNCNCNCNvNtB4_5testss_43test_retry_async_stops_on_classify_decision000NCBW_0E0B6_
FN:256,_RNvNtNtCs1G9XuckPzNo_11deacon_core5retry5testss_18test_max_delay_cap
FN:301,_RNvNtNtCs1G9XuckPzNo_11deacon_core5retry5testss_21test_error_classifier
FN:217,_RNvNtNtCs1G9XuckPzNo_11deacon_core5retry5testss_21test_retry_config_new
FN:272,_RNvNtNtCs1G9XuckPzNo_11deacon_core5retry5testss_22test_jitter_strategies
FN:507,_RNvNtNtCs1G9XuckPzNo_11deacon_core5retry5testss_23test_full_jitter_bounds
FN:489,_RNvNtNtCs1G9XuckPzNo_11deacon_core5retry5testss_24test_equal_jitter_bounds
FN:208,_RNvNtNtCs1G9XuckPzNo_11deacon_core5retry5testss_25test_retry_config_default
FN:443,_RNvNtNtCs1G9XuckPzNo_11deacon_core5retry5testss_31test_retry_config_serialization
FN:427,_RNvNtNtCs1G9XuckPzNo_11deacon_core5retry5testss_34test_jitter_strategy_serialization
FN:368,_RNvNtNtCs1G9XuckPzNo_11deacon_core5retry5testss_34test_retry_async_all_attempts_fail
FN:231,_RNvNtNtCs1G9XuckPzNo_11deacon_core5retry5testss_36test_exponential_backoff_calculation
FN:339,_RNvNtNtCs1G9XuckPzNo_11deacon_core5retry5testss_38test_retry_async_success_after_retries
FN:320,_RNvNtNtCs1G9XuckPzNo_11deacon_core5retry5testss_41test_retry_async_success_on_first_attempt
FN:393,_RNvNtNtCs1G9XuckPzNo_11deacon_core5retry5testss_43test_retry_async_stops_on_classify_decision
FN:461,_RNvNtNtCs1G9XuckPzNo_11deacon_core5retry5testss_47test_deterministic_delay_growth_with_seeded_rng
FN:148,_RINvNtCshLLWmVuQQJZ_11deacon_core5retry11retry_asyncNtNtCsdeDPnamZes_5bytes5bytes5BytesNtNtB4_6errors12FeatureErrorNCNCNCNvMs1_NtB4_3ociINtB21_14FeatureFetcherNtB21_14MockHttpClientE12get_manifest000NCB1T_0ECsfXC7pKQYjgD_15integration_oci
FN:148,_RINvNtCshLLWmVuQQJZ_11deacon_core5retry11retry_asyncNtNtCsdeDPnamZes_5bytes5bytes5BytesNtNtB4_6errors12FeatureErrorNCNCNCNvMs1_NtB4_3ociINtB21_14FeatureFetcherNtB21_14MockHttpClientE14download_layer000NCB1T_0ECsfXC7pKQYjgD_15integration_oci
FN:157,_RNCINvNtCshLLWmVuQQJZ_11deacon_core5retry11retry_asyncNtNtCsdeDPnamZes_5bytes5bytes5BytesNtNtB6_6errors12FeatureErrorNCNCNCNvMs1_NtB6_3ociINtB23_14FeatureFetcherNtB23_14MockHttpClientE12get_manifest000NCB1V_0E0CsfXC7pKQYjgD_15integration_oci
FN:157,_RNCINvNtCshLLWmVuQQJZ_11deacon_core5retry11retry_asyncNtNtCsdeDPnamZes_5bytes5bytes5BytesNtNtB6_6errors12FeatureErrorNCNCNCNvMs1_NtB6_3ociINtB23_14FeatureFetcherNtB23_14MockHttpClientE14download_layer000NCB1V_0E0CsfXC7pKQYjgD_15integration_oci
FNDA:0,_RINvNtCshLLWmVuQQJZ_11deacon_core5retry11retry_asyncppppEB4_
FNDA:0,_RINvNtCshLLWmVuQQJZ_11deacon_core5retry18default_classifierpEB4_
FNDA:0,_RNCINvNtCshLLWmVuQQJZ_11deacon_core5retry11retry_asyncppppE0B6_
FNDA:0,_RNvMs0_NtCshLLWmVuQQJZ_11deacon_core5retryNtB5_11RetryConfig12apply_jitter
FNDA:0,_RNvMs0_NtCshLLWmVuQQJZ_11deacon_core5retryNtB5_11RetryConfig15calculate_delay
FNDA:0,_RNvMs0_NtCshLLWmVuQQJZ_11deacon_core5retryNtB5_11RetryConfig3new
FNDA:3,_RNvXNtCshLLWmVuQQJZ_11deacon_core5retryNtB2_14JitterStrategyNtNtCs66KPHxksi63_4core7default7Default7default
FNDA:3,_RNvXs_NtCshLLWmVuQQJZ_11deacon_core5retryNtB4_11RetryConfigNtNtCs66KPHxksi63_4core7default7Default7default
FNDA:3,_RNCNCNCNvNtNtCs1G9XuckPzNo_11deacon_core5retry5testss_34test_retry_async_all_attempts_fail000Bb_
FNDA:3,_RNCNCNCNvNtNtCs1G9XuckPzNo_11deacon_core5retry5testss_38test_retry_async_success_after_retries000Bb_
FNDA:1,_RNCNCNCNvNtNtCs1G9XuckPzNo_11deacon_core5retry5testss_41test_retry_async_success_on_first_attempt000Bb_
FNDA:1,_RNCNCNCNvNtNtCs1G9XuckPzNo_11deacon_core5retry5testss_43test_retry_async_stops_on_classify_decision000Bb_
FNDA:3,_RNCNCNvNtNtCs1G9XuckPzNo_11deacon_core5retry5testss_34test_retry_async_all_attempts_fail00B9_
FNDA:3,_RNCNCNvNtNtCs1G9XuckPzNo_11deacon_core5retry5testss_38test_retry_async_success_after_retries00B9_
FNDA:1,_RNCNCNvNtNtCs1G9XuckPzNo_11deacon_core5retry5testss_41test_retry_async_success_on_first_attempt00B9_
FNDA:1,_RNCNCNvNtNtCs1G9XuckPzNo_11deacon_core5retry5testss_43test_retry_async_stops_on_classify_decision00B9_
FNDA:1,_RNCNCNvNtNtCs1G9XuckPzNo_11deacon_core5retry5testss_43test_retry_async_stops_on_classify_decision0s_0B9_
FNDA:2,_RNCNvNtNtCs1G9XuckPzNo_11deacon_core5retry5testss_21test_error_classifier0B7_
FNDA:1,_RNCNvNtNtCs1G9XuckPzNo_11deacon_core5retry5testss_34test_retry_async_all_attempts_fail0B7_
FNDA:1,_RNCNvNtNtCs1G9XuckPzNo_11deacon_core5retry5testss_38test_retry_async_success_after_retries0B7_
FNDA:1,_RNCNvNtNtCs1G9XuckPzNo_11deacon_core5retry5testss_41test_retry_async_success_on_first_attempt0B7_
FNDA:1,_RNCNvNtNtCs1G9XuckPzNo_11deacon_core5retry5testss_43test_retry_async_stops_on_classify_decision0B7_
FNDA:8,_RNvMs0_NtCs1G9XuckPzNo_11deacon_core5retryNtB5_11RetryConfig12apply_jitter
FNDA:8,_RNvMs0_NtCs1G9XuckPzNo_11deacon_core5retryNtB5_11RetryConfig15calculate_delay
FNDA:14,_RNvMs0_NtCs1G9XuckPzNo_11deacon_core5retryNtB5_11RetryConfig19apply_jitter_seeded
FNDA:12,_RNvMs0_NtCs1G9XuckPzNo_11deacon_core5retryNtB5_11RetryConfig22calculate_delay_seeded
FNDA:2,_RNvMs0_NtCs1G9XuckPzNo_11deacon_core5retryNtB5_11RetryConfig3new
FNDA:2,_RNvXNtCs1G9XuckPzNo_11deacon_core5retryNtB2_14JitterStrategyNtNtCs66KPHxksi63_4core7default7Default7default
FNDA:2,_RNvXs_NtCs1G9XuckPzNo_11deacon_core5retryNtB4_11RetryConfigNtNtCs66KPHxksi63_4core7default7Default7default
FNDA:1,_RINvNtCs1G9XuckPzNo_11deacon_core5retry11retry_asyncNtNtCsdeDPnamZes_5bytes5bytes5BytesNtNtB4_6errors12FeatureErrorNCNCNCNvMs1_NtB4_3ociINtB21_14FeatureFetcherNtNCNvNtB21_5testss_38test_retry_gives_up_after_max_attempts019AlwaysFailingClientE12get_manifest000NCB1T_0EB4_
FNDA:1,_RINvNtCs1G9XuckPzNo_11deacon_core5retry11retry_asyncNtNtCsdeDPnamZes_5bytes5bytes5BytesNtNtB4_6errors12FeatureErrorNCNCNCNvMs1_NtB4_3ociINtB21_14FeatureFetcherNtNCNvNtB21_5testss_42test_retry_integration_with_manifest_fetch017FailingMockClientE12get_manifest000NCB1T_0EB4_
FNDA:1,_RINvNtCs1G9XuckPzNo_11deacon_core5retry11retry_asynclReNCNCNCNvNtB2_5testss_34test_retry_async_all_attempts_fail000NCBV_0EB4_
FNDA:1,_RINvNtCs1G9XuckPzNo_11deacon_core5retry11retry_asynclReNCNCNCNvNtB2_5testss_38test_retry_async_success_after_retries000NCBV_0EB4_
FNDA:1,_RINvNtCs1G9XuckPzNo_11deacon_core5retry11retry_asynclReNCNCNCNvNtB2_5testss_41test_retry_async_success_on_first_attempt000NCBV_0EB4_
FNDA:1,_RINvNtCs1G9XuckPzNo_11deacon_core5retry11retry_asyncllNCNCNCNvNtB2_5testss_43test_retry_async_stops_on_classify_decision000NCBU_0EB4_
FNDA:6,_RINvNtCs1G9XuckPzNo_11deacon_core5retry18default_classifierReEB4_
FNDA:1,_RNCINvNtCs1G9XuckPzNo_11deacon_core5retry11retry_asyncNtNtCsdeDPnamZes_5bytes5bytes5BytesNtNtB6_6errors12FeatureErrorNCNCNCNvMs1_NtB6_3ociINtB23_14FeatureFetcherNtNCNvNtB23_5testss_38test_retry_gives_up_after_max_attempts019AlwaysFailingClientE12get_manifest000NCB1V_0E0B6_
FNDA:1,_RNCINvNtCs1G9XuckPzNo_11deacon_core5retry11retry_asyncNtNtCsdeDPnamZes_5bytes5bytes5BytesNtNtB6_6errors12FeatureErrorNCNCNCNvMs1_NtB6_3ociINtB23_14FeatureFetcherNtNCNvNtB23_5testss_42test_retry_integration_with_manifest_fetch017FailingMockClientE12get_manifest000NCB1V_0E0B6_
FNDA:1,_RNCINvNtCs1G9XuckPzNo_11deacon_core5retry11retry_asynclReNCNCNCNvNtB4_5testss_34test_retry_async_all_attempts_fail000NCBX_0E0B6_
FNDA:1,_RNCINvNtCs1G9XuckPzNo_11deacon_core5retry11retry_asynclReNCNCNCNvNtB4_5testss_38test_retry_async_success_after_retries000NCBX_0E0B6_
FNDA:1,_RNCINvNtCs1G9XuckPzNo_11deacon_core5retry11retry_asynclReNCNCNCNvNtB4_5testss_41test_retry_async_success_on_first_attempt000NCBX_0E0B6_
FNDA:1,_RNCINvNtCs1G9XuckPzNo_11deacon_core5retry11retry_asyncllNCNCNCNvNtB4_5testss_43test_retry_async_stops_on_classify_decision000NCBW_0E0B6_
FNDA:1,_RNvNtNtCs1G9XuckPzNo_11deacon_core5retry5testss_18test_max_delay_cap
FNDA:1,_RNvNtNtCs1G9XuckPzNo_11deacon_core5retry5testss_21test_error_classifier
FNDA:1,_RNvNtNtCs1G9XuckPzNo_11deacon_core5retry5testss_21test_retry_config_new
FNDA:1,_RNvNtNtCs1G9XuckPzNo_11deacon_core5retry5testss_22test_jitter_strategies
FNDA:1,_RNvNtNtCs1G9XuckPzNo_11deacon_core5retry5testss_23test_full_jitter_bounds
FNDA:1,_RNvNtNtCs1G9XuckPzNo_11deacon_core5retry5testss_24test_equal_jitter_bounds
FNDA:1,_RNvNtNtCs1G9XuckPzNo_11deacon_core5retry5testss_25test_retry_config_default
FNDA:1,_RNvNtNtCs1G9XuckPzNo_11deacon_core5retry5testss_31test_retry_config_serialization
FNDA:1,_RNvNtNtCs1G9XuckPzNo_11deacon_core5retry5testss_34test_jitter_strategy_serialization
FNDA:1,_RNvNtNtCs1G9XuckPzNo_11deacon_core5retry5testss_34test_retry_async_all_attempts_fail
FNDA:1,_RNvNtNtCs1G9XuckPzNo_11deacon_core5retry5testss_36test_exponential_backoff_calculation
FNDA:1,_RNvNtNtCs1G9XuckPzNo_11deacon_core5retry5testss_38test_retry_async_success_after_retries
FNDA:1,_RNvNtNtCs1G9XuckPzNo_11deacon_core5retry5testss_41test_retry_async_success_on_first_attempt
FNDA:1,_RNvNtNtCs1G9XuckPzNo_11deacon_core5retry5testss_43test_retry_async_stops_on_classify_decision
FNDA:1,_RNvNtNtCs1G9XuckPzNo_11deacon_core5retry5testss_47test_deterministic_delay_growth_with_seeded_rng
FNDA:2,_RINvNtCshLLWmVuQQJZ_11deacon_core5retry11retry_asyncNtNtCsdeDPnamZes_5bytes5bytes5BytesNtNtB4_6errors12FeatureErrorNCNCNCNvMs1_NtB4_3ociINtB21_14FeatureFetcherNtB21_14MockHttpClientE12get_manifest000NCB1T_0ECsfXC7pKQYjgD_15integration_oci
FNDA:1,_RINvNtCshLLWmVuQQJZ_11deacon_core5retry11retry_asyncNtNtCsdeDPnamZes_5bytes5bytes5BytesNtNtB4_6errors12FeatureErrorNCNCNCNvMs1_NtB4_3ociINtB21_14FeatureFetcherNtB21_14MockHttpClientE14download_layer000NCB1T_0ECsfXC7pKQYjgD_15integration_oci
FNDA:2,_RNCINvNtCshLLWmVuQQJZ_11deacon_core5retry11retry_asyncNtNtCsdeDPnamZes_5bytes5bytes5BytesNtNtB6_6errors12FeatureErrorNCNCNCNvMs1_NtB6_3ociINtB23_14FeatureFetcherNtB23_14MockHttpClientE12get_manifest000NCB1V_0E0CsfXC7pKQYjgD_15integration_oci
FNDA:1,_RNCINvNtCshLLWmVuQQJZ_11deacon_core5retry11retry_asyncNtNtCsdeDPnamZes_5bytes5bytes5BytesNtNtB6_6errors12FeatureErrorNCNCNCNvMs1_NtB6_3ociINtB23_14FeatureFetcherNtB23_14MockHttpClientE14download_layer000NCB1V_0E0CsfXC7pKQYjgD_15integration_oci
FNF:39
FNH:39
DA:21,5
DA:22,5
DA:23,5
DA:40,5
DA:41,5
DA:42,5
DA:43,5
DA:44,5
DA:45,5
DA:46,5
DA:47,5
DA:52,2
DA:53,2
DA:54,2
DA:55,2
DA:56,2
DA:57,2
DA:58,2
DA:59,2
DA:60,2
DA:61,2
DA:62,2
DA:63,2
DA:64,2
DA:67,8
DA:69,8
DA:70,8
DA:71,8
DA:72,8
DA:75,8
DA:76,8
DA:78,8
DA:79,8
DA:82,8
DA:83,8
DA:86,8
DA:87,8
DA:91,0
DA:92,0
DA:93,0
DA:96,8
DA:100,14
DA:101,14
DA:102,14
DA:104,12
DA:105,12
DA:108,2
DA:109,2
DA:110,2
DA:113,14
DA:117,12
DA:118,12
DA:119,12
DA:120,12
DA:121,12
DA:122,12
DA:123,12
DA:125,12
DA:126,12
DA:142,6
DA:143,6
DA:144,6
DA:148,9
DA:149,9
DA:150,9
DA:151,9
DA:152,9
DA:153,9
DA:154,9
DA:155,9
DA:156,9
DA:157,9
DA:199,9
DA:208,1
DA:209,1
DA:210,1
DA:211,1
DA:212,1
DA:213,1
DA:214,1
DA:217,1
DA:218,1
DA:220,1
DA:221,1
DA:222,1
DA:224,1
DA:225,1
DA:226,1
DA:227,1
DA:228,1
DA:231,1
DA:232,1
DA:233,1
DA:234,1
DA:235,1
DA:236,1
DA:237,1
DA:240,1
DA:243,1
DA:244,1
DA:247,1
DA:248,1
DA:251,1
DA:252,1
DA:253,1
DA:256,1
DA:257,1
DA:258,1
DA:259,1
DA:260,1
DA:261,1
DA:262,1
DA:264,1
DA:267,1
DA:268,1
DA:269,1
DA:272,1
DA:273,1
DA:274,1
DA:275,1
DA:276,1
DA:277,1
DA:278,1
DA:279,1
DA:280,1
DA:281,1
DA:282,1
DA:283,1
DA:284,1
DA:285,1
DA:287,1
DA:290,1
DA:291,1
DA:294,1
DA:295,1
DA:296,1
DA:297,1
DA:298,1
DA:301,1
DA:303,1
DA:304,1
DA:307,2
DA:308,2
DA:309,1
DA:311,1
DA:313,2
DA:315,1
DA:316,1
DA:317,1
DA:320,1
DA:321,1
DA:322,1
DA:323,1
DA:325,1
DA:326,1
DA:327,1
DA:328,1
DA:329,1
DA:330,1
DA:331,1
DA:333,1
DA:334,1
DA:335,1
DA:336,1
DA:339,1
DA:340,1
DA:341,1
DA:342,1
DA:343,1
DA:344,1
DA:345,1
DA:347,1
DA:348,1
DA:350,3
DA:351,3
DA:352,3
DA:353,3
DA:354,3
DA:355,2
DA:357,1
DA:359,3
DA:360,3
DA:362,1
DA:363,1
DA:364,1
DA:365,1
DA:368,1
DA:369,1
DA:370,1
DA:371,1
DA:372,1
DA:373,1
DA:374,1
DA:376,1
DA:377,1
DA:379,3
DA:380,3
DA:381,3
DA:382,3
DA:383,3
DA:384,3
DA:385,3
DA:387,1
DA:388,1
DA:389,1
DA:390,1
DA:393,1
DA:394,1
DA:395,1
DA:396,1
DA:397,1
DA:398,1
DA:399,1
DA:401,1
DA:402,1
DA:404,1
DA:405,1
DA:406,1
DA:407,1
DA:408,1
DA:409,1
DA:410,1
DA:413,1
DA:414,1
DA:415,1
DA:417,0
DA:419,1
DA:421,1
DA:422,1
DA:423,1
DA:424,1
DA:427,1
DA:429,1
DA:430,1
DA:432,1
DA:433,1
DA:435,1
DA:436,1
DA:438,1
DA:439,1
DA:440,1
DA:443,1
DA:444,1
DA:446,1
DA:447,1
DA:448,1
DA:451,1
DA:452,1
DA:454,1
DA:455,1
DA:456,1
DA:457,1
DA:458,1
DA:461,1
DA:462,1
DA:463,1
DA:464,1
DA:465,1
DA:466,1
DA:467,1
DA:469,1
DA:472,1
DA:473,1
DA:474,1
DA:477,1
DA:478,1
DA:479,1
DA:483,1
DA:484,1
DA:485,1
DA:486,1
DA:489,1
DA:490,1
DA:491,1
DA:492,1
DA:493,1
DA:494,1
DA:495,1
DA:497,1
DA:498,1
DA:501,1
DA:502,1
DA:503,1
DA:504,1
DA:507,1
DA:508,1
DA:509,1
DA:510,1
DA:511,1
DA:512,1
DA:513,1
DA:515,1
DA:516,1
DA:519,1
DA:520,1
BRF:0
BRH:0
LF:309
LH:305
end_of_record
SF:/home/runner/work/deacon/deacon/crates/core/src/templates.rs
FN:161,_RNCNvNtCshLLWmVuQQJZ_11deacon_core9templates23parse_template_metadata0B5_
FN:265,_RNCNvNtCshLLWmVuQQJZ_11deacon_core9templates25plan_template_application0B5_
FN:397,_RNCNvNtCshLLWmVuQQJZ_11deacon_core9templates25should_apply_substitution0B5_
FN:418,_RNCNvNtCshLLWmVuQQJZ_11deacon_core9templates25should_apply_substitutions_0B5_
FN:375,_RNCNvNtCshLLWmVuQQJZ_11deacon_core9templates27copy_file_with_substitution0B5_
FN:73,_RNvMNtCshLLWmVuQQJZ_11deacon_core9templatesNtB2_16TemplateMetadata8validate
FN:182,_RNvNtCshLLWmVuQQJZ_11deacon_core9templates14apply_template
FN:327,_RNvNtCshLLWmVuQQJZ_11deacon_core9templates23execute_planned_actions
FN:144,_RNvNtCshLLWmVuQQJZ_11deacon_core9templates23parse_template_metadata
FN:245,_RNvNtCshLLWmVuQQJZ_11deacon_core9templates25plan_template_application
FN:396,_RNvNtCshLLWmVuQQJZ_11deacon_core9templates25should_apply_substitution
FN:368,_RNvNtCshLLWmVuQQJZ_11deacon_core9templates27copy_file_with_substitution
FN:161,_RNCNvNtCs1G9XuckPzNo_11deacon_core9templates23parse_template_metadata0B5_
FN:265,_RNCNvNtCs1G9XuckPzNo_11deacon_core9templates25plan_template_application0B5_
FN:397,_RNCNvNtCs1G9XuckPzNo_11deacon_core9templates25should_apply_substitution0B5_
FN:418,_RNCNvNtCs1G9XuckPzNo_11deacon_core9templates25should_apply_substitutions_0B5_
FN:375,_RNCNvNtCs1G9XuckPzNo_11deacon_core9templates27copy_file_with_substitution0B5_
FN:73,_RNvMNtCs1G9XuckPzNo_11deacon_core9templatesNtB2_16TemplateMetadata8validate
FN:182,_RNvNtCs1G9XuckPzNo_11deacon_core9templates14apply_template
FN:327,_RNvNtCs1G9XuckPzNo_11deacon_core9templates23execute_planned_actions
FN:144,_RNvNtCs1G9XuckPzNo_11deacon_core9templates23parse_template_metadata
FN:245,_RNvNtCs1G9XuckPzNo_11deacon_core9templates25plan_template_application
FN:396,_RNvNtCs1G9XuckPzNo_11deacon_core9templates25should_apply_substitution
FN:368,_RNvNtCs1G9XuckPzNo_11deacon_core9templates27copy_file_with_substitution
FN:550,_RNvNtNtCs1G9XuckPzNo_11deacon_core9templates5testss_26test_apply_options_default
FN:575,_RNvNtNtCs1G9XuckPzNo_11deacon_core9templates5testss_27test_apply_template_dry_run
FN:538,_RNvNtNtCs1G9XuckPzNo_11deacon_core9templates5testss_27test_parse_nonexistent_file
FN:558,_RNvNtNtCs1G9XuckPzNo_11deacon_core9templates5testss_30test_should_apply_substitution
FN:454,_RNvNtNtCs1G9XuckPzNo_11deacon_core9templates5testss_32test_parse_template_with_options
FN:743,_RNvNtNtCs1G9XuckPzNo_11deacon_core9templates5testss_34test_apply_template_subdirectories
FN:516,_RNvNtNtCs1G9XuckPzNo_11deacon_core9templates5testss_34test_parse_invalid_template_schema
FN:436,_RNvNtNtCs1G9XuckPzNo_11deacon_core9templates5testss_36test_parse_minimal_template_metadata
FN:642,_RNvNtNtCs1G9XuckPzNo_11deacon_core9templates5testss_37test_apply_template_with_substitution
FN:789,_RNvNtNtCs1G9XuckPzNo_11deacon_core9templates5testss_38test_apply_template_nonexistent_source
FN:699,_RNvNtNtCs1G9XuckPzNo_11deacon_core9templates5testss_40test_apply_template_overwrite_protection
FNDA:0,_RNCNvNtCshLLWmVuQQJZ_11deacon_core9templates23parse_template_metadata0B5_
FNDA:0,_RNCNvNtCshLLWmVuQQJZ_11deacon_core9templates25plan_template_application0B5_
FNDA:7,_RNCNvNtCshLLWmVuQQJZ_11deacon_core9templates25should_apply_substitution0B5_
FNDA:3,_RNCNvNtCshLLWmVuQQJZ_11deacon_core9templates25should_apply_substitutions_0B5_
FNDA:0,_RNCNvNtCshLLWmVuQQJZ_11deacon_core9templates27copy_file_with_substitution0B5_
FNDA:2,_RNvMNtCshLLWmVuQQJZ_11deacon_core9templatesNtB2_16TemplateMetadata8validate
FNDA:3,_RNvNtCshLLWmVuQQJZ_11deacon_core9templates14apply_template
FNDA:2,_RNvNtCshLLWmVuQQJZ_11deacon_core9templates23execute_planned_actions
FNDA:2,_RNvNtCshLLWmVuQQJZ_11deacon_core9templates23parse_template_metadata
FNDA:7,_RNvNtCshLLWmVuQQJZ_11deacon_core9templates25plan_template_application
FNDA:10,_RNvNtCshLLWmVuQQJZ_11deacon_core9templates25should_apply_substitution
FNDA:6,_RNvNtCshLLWmVuQQJZ_11deacon_core9templates27copy_file_with_substitution
FNDA:0,_RNCNvNtCs1G9XuckPzNo_11deacon_core9templates23parse_template_metadata0B5_
FNDA:0,_RNCNvNtCs1G9XuckPzNo_11deacon_core9templates25plan_template_application0B5_
FNDA:12,_RNCNvNtCs1G9XuckPzNo_11deacon_core9templates25should_apply_substitution0B5_
FNDA:6,_RNCNvNtCs1G9XuckPzNo_11deacon_core9templates25should_apply_substitutions_0B5_
FNDA:0,_RNCNvNtCs1G9XuckPzNo_11deacon_core9templates27copy_file_with_substitution0B5_
FNDA:3,_RNvMNtCs1G9XuckPzNo_11deacon_core9templatesNtB2_16TemplateMetadata8validate
FNDA:6,_RNvNtCs1G9XuckPzNo_11deacon_core9templates14apply_template
FNDA:4,_RNvNtCs1G9XuckPzNo_11deacon_core9templates23execute_planned_actions
FNDA:4,_RNvNtCs1G9XuckPzNo_11deacon_core9templates23parse_template_metadata
FNDA:7,_RNvNtCs1G9XuckPzNo_11deacon_core9templates25plan_template_application
FNDA:18,_RNvNtCs1G9XuckPzNo_11deacon_core9templates25should_apply_substitution
FNDA:5,_RNvNtCs1G9XuckPzNo_11deacon_core9templates27copy_file_with_substitution
FNDA:1,_RNvNtNtCs1G9XuckPzNo_11deacon_core9templates5testss_26test_apply_options_default
FNDA:1,_RNvNtNtCs1G9XuckPzNo_11deacon_core9templates5testss_27test_apply_template_dry_run
FNDA:1,_RNvNtNtCs1G9XuckPzNo_11deacon_core9templates5testss_27test_parse_nonexistent_file
FNDA:1,_RNvNtNtCs1G9XuckPzNo_11deacon_core9templates5testss_30test_should_apply_substitution
FNDA:1,_RNvNtNtCs1G9XuckPzNo_11deacon_core9templates5testss_32test_parse_template_with_options
FNDA:1,_RNvNtNtCs1G9XuckPzNo_11deacon_core9templates5testss_34test_apply_template_subdirectories
FNDA:1,_RNvNtNtCs1G9XuckPzNo_11deacon_core9templates5testss_34test_parse_invalid_template_schema
FNDA:1,_RNvNtNtCs1G9XuckPzNo_11deacon_core9templates5testss_36test_parse_minimal_template_metadata
FNDA:1,_RNvNtNtCs1G9XuckPzNo_11deacon_core9templates5testss_37test_apply_template_with_substitution
FNDA:1,_RNvNtNtCs1G9XuckPzNo_11deacon_core9templates5testss_38test_apply_template_nonexistent_source
FNDA:1,_RNvNtNtCs1G9XuckPzNo_11deacon_core9templates5testss_40test_apply_template_overwrite_protection
FNF:23
FNH:20
DA:73,5
DA:75,5
DA:76,1
DA:77,1
DA:78,1
DA:79,4
DA:82,10
DA:83,6
DA:84,6
DA:85,0
DA:86,0
DA:87,0
DA:88,0
DA:89,0
DA:90,0
DA:91,6
DA:92,0
DA:95,4
DA:96,5
DA:144,6
DA:145,6
DA:148,6
DA:149,1
DA:150,1
DA:151,1
DA:152,1
DA:153,5
DA:156,5
DA:159,5
DA:160,5
DA:161,0
DA:162,0
DA:164,5
DA:165,0
DA:170,12
DA:171,7
DA:175,5
DA:177,4
DA:178,6
DA:182,9
DA:183,9
DA:184,9
DA:185,9
DA:186,9
DA:187,9
DA:188,6
DA:189,6
DA:190,6
DA:194,9
DA:195,1
DA:196,1
DA:197,1
DA:198,1
DA:199,8
DA:202,8
DA:203,8
DA:206,8
DA:207,8
DA:208,8
DA:210,8
DA:211,8
DA:212,8
DA:213,8
DA:214,8
DA:215,8
DA:216,8
DA:217,8
DA:218,0
DA:220,8
DA:221,5
DA:222,5
DA:228,8
DA:229,6
DA:230,6
DA:232,2
DA:235,8
DA:236,8
DA:237,8
DA:238,8
DA:239,8
DA:240,8
DA:241,9
DA:245,14
DA:246,14
DA:247,14
DA:248,14
DA:249,14
DA:250,14
DA:251,14
DA:252,14
DA:253,14
DA:254,14
DA:256,44
DA:257,30
DA:258,30
DA:261,30
DA:262,30
DA:263,30
DA:264,30
DA:265,0
DA:266,0
DA:267,0
DA:269,0
DA:272,30
DA:273,5
DA:274,5
DA:275,25
DA:277,25
DA:279,25
DA:281,6
DA:282,4
DA:283,4
DA:284,2
DA:286,6
DA:287,6
DA:288,6
DA:289,6
DA:290,6
DA:291,6
DA:292,6
DA:293,6
DA:294,0
DA:297,19
DA:298,2
DA:299,1
DA:300,1
DA:301,1
DA:302,1
DA:303,1
DA:304,1
DA:306,1
DA:307,1
DA:310,17
DA:311,17
DA:312,17
DA:313,17
DA:314,17
DA:315,17
DA:318,19
DA:322,14
DA:323,14
DA:327,6
DA:328,6
DA:329,6
DA:330,6
DA:331,6
DA:332,19
DA:333,13
DA:335,11
DA:336,11
DA:337,11
DA:340,1
DA:341,1
DA:342,1
DA:345,12
DA:346,12
DA:347,0
DA:349,12
DA:350,11
DA:352,1
DA:355,12
DA:357,1
DA:358,1
DA:363,6
DA:364,6
DA:368,11
DA:369,11
DA:370,11
DA:371,11
DA:372,11
DA:373,11
DA:375,11
DA:376,0
DA:377,0
DA:378,0
DA:381,0
DA:382,0
DA:385,11
DA:386,11
DA:389,11
DA:391,11
DA:392,11
DA:396,28
DA:397,28
DA:398,15
DA:399,19
DA:400,19
DA:401,17
DA:402,17
DA:403,16
DA:404,15
DA:405,15
DA:406,15
DA:407,15
DA:408,10
DA:409,10
DA:410,7
DA:411,7
DA:412,6
DA:413,4
DA:414,4
DA:418,9
DA:419,8
DA:420,9
DA:421,9
DA:424,0
DA:427,28
DA:436,1
DA:437,1
DA:438,1
DA:439,1
DA:440,1
DA:441,1
DA:443,1
DA:444,1
DA:446,1
DA:447,1
DA:448,1
DA:449,1
DA:450,1
DA:451,1
DA:454,1
DA:455,1
DA:456,1
DA:457,1
DA:458,1
DA:459,1
DA:460,1
DA:461,1
DA:462,1
DA:463,1
DA:464,1
DA:465,1
DA:466,1
DA:467,1
DA:468,1
DA:469,1
DA:470,1
DA:471,1
DA:472,1
DA:473,1
DA:474,1
DA:475,1
DA:476,1
DA:477,1
DA:478,1
DA:479,1
DA:481,1
DA:482,1
DA:483,1
DA:484,1
DA:486,1
DA:487,1
DA:488,1
DA:489,1
DA:490,1
DA:491,1
DA:494,1
DA:495,1
DA:496,1
DA:497,1
DA:499,0
DA:503,1
DA:504,1
DA:506,1
DA:508,1
DA:509,1
DA:511,0
DA:513,1
DA:516,1
DA:517,1
DA:518,1
DA:519,1
DA:520,1
DA:521,1
DA:522,1
DA:523,1
DA:524,1
DA:525,1
DA:526,1
DA:527,1
DA:528,1
DA:530,1
DA:531,1
DA:533,1
DA:534,1
DA:535,1
DA:538,1
DA:539,1
DA:540,1
DA:542,1
DA:543,1
DA:544,1
DA:545,0
DA:547,1
DA:550,1
DA:551,1
DA:552,1
DA:553,1
DA:554,1
DA:555,1
DA:558,1
DA:560,1
DA:561,1
DA:562,1
DA:563,1
DA:564,1
DA:565,1
DA:568,1
DA:569,1
DA:570,1
DA:571,1
DA:572,1
DA:575,1
DA:576,1
DA:577,1
DA:578,1
DA:581,1
DA:582,1
DA:585,1
DA:586,1
DA:587,1
DA:588,1
DA:589,1
DA:590,1
DA:591,1
DA:594,1
DA:595,1
DA:597,1
DA:598,1
DA:601,1
DA:602,1
DA:603,1
DA:604,1
DA:606,1
DA:609,1
DA:610,1
DA:611,1
DA:614,1
DA:615,1
DA:618,3
DA:619,2
DA:621,2
DA:622,2
DA:623,2
DA:625,2
DA:626,2
DA:628,2
DA:629,1
DA:631,2
DA:632,0
DA:634,0
DA:638,1
DA:639,1
DA:642,1
DA:643,1
DA:644,1
DA:645,1
DA:648,1
DA:649,1
DA:652,1
DA:653,1
DA:654,1
DA:655,1
DA:656,1
DA:657,1
DA:658,1
DA:661,1
DA:662,1
DA:664,1
DA:665,1
DA:668,1
DA:671,1
DA:672,1
DA:675,1
DA:676,1
DA:677,1
DA:680,1
DA:681,1
DA:682,1
DA:684,1
DA:685,1
DA:686,1
DA:689,1
DA:690,1
DA:693,1
DA:695,1
DA:696,1
DA:699,1
DA:700,1
DA:701,1
DA:702,1
DA:705,1
DA:706,1
DA:709,1
DA:712,1
DA:715,1
DA:716,1
DA:719,1
DA:720,1
DA:722,1
DA:723,1
DA:726,1
DA:727,1
DA:728,1
DA:729,1
DA:730,1
DA:733,1
DA:734,1
DA:736,1
DA:737,1
DA:739,1
DA:740,1
DA:743,1
DA:744,1
DA:745,1
DA:746,1
DA:749,1
DA:750,1
DA:751,1
DA:752,1
DA:755,1
DA:756,1
DA:758,0
DA:759,1
DA:760,1
DA:762,0
DA:765,1
DA:766,1
DA:769,1
DA:770,1
DA:773,1
DA:774,1
DA:775,1
DA:776,1
DA:779,1
DA:780,1
DA:782,1
DA:783,1
DA:785,1
DA:786,1
DA:789,1
DA:790,1
DA:791,1
DA:792,1
DA:794,1
DA:795,1
DA:797,1
DA:798,1
DA:799,1
DA:800,1
DA:801,0
DA:803,1
BRF:0
BRH:0
LF:459
LH:423
end_of_record
SF:/home/runner/work/deacon/deacon/crates/core/src/user_mapping.rs
FN:460,_RNCNvNtCshLLWmVuQQJZ_11deacon_core12user_mapping18get_host_user_info0B5_
FN:484,_RNCNvNtCshLLWmVuQQJZ_11deacon_core12user_mapping18get_host_user_infos0_0B5_
FN:492,_RNCNvNtCshLLWmVuQQJZ_11deacon_core12user_mapping18get_host_user_infos1_0B5_
FN:499,_RNCNvNtCshLLWmVuQQJZ_11deacon_core12user_mapping18get_host_user_infos2_0B5_
FN:477,_RNCNvNtCshLLWmVuQQJZ_11deacon_core12user_mapping18get_host_user_infos_0B5_
FN:57,_RNvMNtCshLLWmVuQQJZ_11deacon_core12user_mappingNtB2_8UserInfo13default_shell
FN:62,_RNvMNtCshLLWmVuQQJZ_11deacon_core12user_mappingNtB2_8UserInfo16default_home_dir
FN:46,_RNvMNtCshLLWmVuQQJZ_11deacon_core12user_mappingNtB2_8UserInfo3new
FN:129,_RNvMs_NtCshLLWmVuQQJZ_11deacon_core12user_mappingNtB4_17UserMappingConfig14effective_user
FN:106,_RNvMs_NtCshLLWmVuQQJZ_11deacon_core12user_mappingNtB4_17UserMappingConfig14with_host_user
FN:124,_RNvMs_NtCshLLWmVuQQJZ_11deacon_core12user_mappingNtB4_17UserMappingConfig17needs_uid_mapping
FN:119,_RNvMs_NtCshLLWmVuQQJZ_11deacon_core12user_mappingNtB4_17UserMappingConfig18needs_user_mapping
FN:113,_RNvMs_NtCshLLWmVuQQJZ_11deacon_core12user_mappingNtB4_17UserMappingConfig19with_workspace_path
FN:90,_RNvMs_NtCshLLWmVuQQJZ_11deacon_core12user_mappingNtB4_17UserMappingConfig3new
FN:450,_RNvNtCshLLWmVuQQJZ_11deacon_core12user_mapping18get_host_user_info
FN:255,_RNCNvMs0_NtCshLLWmVuQQJZ_11deacon_core12user_mappingINtB7_18UserMappingServicepE18apply_user_mapping0B9_
FN:401,_RNCNvMs0_NtCshLLWmVuQQJZ_11deacon_core12user_mappingINtB7_18UserMappingServicepE21home_directory_exists0B9_
FN:431,_RNCNvMs0_NtCshLLWmVuQQJZ_11deacon_core12user_mappingINtB7_18UserMappingServicepE23execute_command_as_user0B9_
FN:251,_RNvMs0_NtCshLLWmVuQQJZ_11deacon_core12user_mappingINtB5_18UserMappingServicepE18apply_user_mappingB7_
FN:397,_RNvMs0_NtCshLLWmVuQQJZ_11deacon_core12user_mappingINtB5_18UserMappingServicepE21home_directory_existsB7_
FN:424,_RNvMs0_NtCshLLWmVuQQJZ_11deacon_core12user_mappingINtB5_18UserMappingServicepE23execute_command_as_userB7_
FN:239,_RNvMs0_NtCshLLWmVuQQJZ_11deacon_core12user_mappingINtB5_18UserMappingServicepE3newB7_
FN:460,_RNCNvNtCs1G9XuckPzNo_11deacon_core12user_mapping18get_host_user_info0B5_
FN:484,_RNCNvNtCs1G9XuckPzNo_11deacon_core12user_mapping18get_host_user_infos0_0B5_
FN:492,_RNCNvNtCs1G9XuckPzNo_11deacon_core12user_mapping18get_host_user_infos1_0B5_
FN:499,_RNCNvNtCs1G9XuckPzNo_11deacon_core12user_mapping18get_host_user_infos2_0B5_
FN:477,_RNCNvNtCs1G9XuckPzNo_11deacon_core12user_mapping18get_host_user_infos_0B5_
FN:450,_RNvNtCs1G9XuckPzNo_11deacon_core12user_mapping18get_host_user_info
FN:562,_RNvXs_NtNtCs1G9XuckPzNo_11deacon_core12user_mapping5testsNtB4_14MockUserMapperNtB6_10UserMapper11user_exists
FN:57,_RNvMNtCs1G9XuckPzNo_11deacon_core12user_mappingNtB2_8UserInfo13default_shell
FN:62,_RNvMNtCs1G9XuckPzNo_11deacon_core12user_mappingNtB2_8UserInfo16default_home_dir
FN:46,_RNvMNtCs1G9XuckPzNo_11deacon_core12user_mappingNtB2_8UserInfo3new
FN:129,_RNvMs_NtCs1G9XuckPzNo_11deacon_core12user_mappingNtB4_17UserMappingConfig14effective_user
FN:106,_RNvMs_NtCs1G9XuckPzNo_11deacon_core12user_mappingNtB4_17UserMappingConfig14with_host_user
FN:124,_RNvMs_NtCs1G9XuckPzNo_11deacon_core12user_mappingNtB4_17UserMappingConfig17needs_uid_mapping
FN:119,_RNvMs_NtCs1G9XuckPzNo_11deacon_core12user_mappingNtB4_17UserMappingConfig18needs_user_mapping
FN:113,_RNvMs_NtCs1G9XuckPzNo_11deacon_core12user_mappingNtB4_17UserMappingConfig19with_workspace_path
FN:90,_RNvMs_NtCs1G9XuckPzNo_11deacon_core12user_mappingNtB4_17UserMappingConfig3new
FN:255,_RNCNvMs0_NtCs1G9XuckPzNo_11deacon_core12user_mappingINtB7_18UserMappingServiceNtNtB7_5tests14MockUserMapperE18apply_user_mapping0B9_
FN:401,_RNCNvMs0_NtCs1G9XuckPzNo_11deacon_core12user_mappingINtB7_18UserMappingServiceNtNtB7_5tests14MockUserMapperE21home_directory_exists0B9_
FN:431,_RNCNvMs0_NtCs1G9XuckPzNo_11deacon_core12user_mappingINtB7_18UserMappingServiceNtNtB7_5tests14MockUserMapperE23execute_command_as_user0B9_
FN:251,_RNvMs0_NtCs1G9XuckPzNo_11deacon_core12user_mappingINtB5_18UserMappingServiceNtNtB5_5tests14MockUserMapperE18apply_user_mappingB7_
FN:397,_RNvMs0_NtCs1G9XuckPzNo_11deacon_core12user_mappingINtB5_18UserMappingServiceNtNtB5_5tests14MockUserMapperE21home_directory_existsB7_
FN:424,_RNvMs0_NtCs1G9XuckPzNo_11deacon_core12user_mappingINtB5_18UserMappingServiceNtNtB5_5tests14MockUserMapperE23execute_command_as_userB7_
FN:239,_RNvMs0_NtCs1G9XuckPzNo_11deacon_core12user_mappingINtB5_18UserMappingServiceNtNtB5_5tests14MockUserMapperE3newB7_
FN:529,_RNvMNtNtCs1G9XuckPzNo_11deacon_core12user_mapping5testsNtB2_14MockUserMapper3new
FN:542,_RNvMNtNtCs1G9XuckPzNo_11deacon_core12user_mapping5testsNtB2_14MockUserMapper9with_user
FN:679,_RNvNtNtCs1G9XuckPzNo_11deacon_core12user_mapping5testss_20test_create_new_user
FN:630,_RNvNtNtCs1G9XuckPzNo_11deacon_core12user_mapping5testss_23test_user_info_creation
FN:771,_RNvNtNtCs1G9XuckPzNo_11deacon_core12user_mapping5testss_23test_user_info_defaults
FN:647,_RNvNtNtCs1G9XuckPzNo_11deacon_core12user_mapping5testss_24test_user_mapping_config
FN:660,_RNvNtNtCs1G9XuckPzNo_11deacon_core12user_mapping5testss_27test_no_user_mapping_needed
FN:755,_RNvNtNtCs1G9XuckPzNo_11deacon_core12user_mapping5testss_28test_execute_command_as_user
FN:699,_RNvNtNtCs1G9XuckPzNo_11deacon_core12user_mapping5testss_29test_update_existing_user_uid
FN:727,_RNvNtNtCs1G9XuckPzNo_11deacon_core12user_mapping5testss_35test_existing_user_no_update_needed
FN:574,_RNvXs_NtNtCs1G9XuckPzNo_11deacon_core12user_mapping5testsNtB4_14MockUserMapperNtB6_10UserMapper11create_user
FN:558,_RNvXs_NtNtCs1G9XuckPzNo_11deacon_core12user_mapping5testsNtB4_14MockUserMapperNtB6_10UserMapper13get_user_info
FN:624,_RNvXs_NtNtCs1G9XuckPzNo_11deacon_core12user_mapping5testsNtB4_14MockUserMapperNtB6_10UserMapper15execute_as_user
FN:595,_RNvXs_NtNtCs1G9XuckPzNo_11deacon_core12user_mapping5testsNtB4_14MockUserMapperNtB6_10UserMapper15update_user_uid
FN:550,_RNvXs_NtNtCs1G9XuckPzNo_11deacon_core12user_mapping5testsNtB4_14MockUserMapperNtB6_10UserMapper16get_current_user
FN:603,_RNvXs_NtNtCs1G9XuckPzNo_11deacon_core12user_mapping5testsNtB4_14MockUserMapperNtB6_10UserMapper21create_home_directory
FN:613,_RNvXs_NtNtCs1G9XuckPzNo_11deacon_core12user_mapping5testsNtB4_14MockUserMapperNtB6_10UserMapper23set_workspace_ownership
FN:577,_RNCNCNvXs_NtNtCs1G9XuckPzNo_11deacon_core12user_mapping5testsNtB8_14MockUserMapperNtBa_10UserMapper11create_user00Bc_
FN:679,_RNCNvNtNtCs1G9XuckPzNo_11deacon_core12user_mapping5testss_20test_create_new_user0B7_
FN:630,_RNCNvNtNtCs1G9XuckPzNo_11deacon_core12user_mapping5testss_23test_user_info_creation0B7_
FN:647,_RNCNvNtNtCs1G9XuckPzNo_11deacon_core12user_mapping5testss_24test_user_mapping_config0B7_
FN:660,_RNCNvNtNtCs1G9XuckPzNo_11deacon_core12user_mapping5testss_27test_no_user_mapping_needed0B7_
FN:755,_RNCNvNtNtCs1G9XuckPzNo_11deacon_core12user_mapping5testss_28test_execute_command_as_user0B7_
FN:699,_RNCNvNtNtCs1G9XuckPzNo_11deacon_core12user_mapping5testss_29test_update_existing_user_uid0B7_
FN:727,_RNCNvNtNtCs1G9XuckPzNo_11deacon_core12user_mapping5testss_35test_existing_user_no_update_needed0B7_
FNDA:0,_RNCNvNtCshLLWmVuQQJZ_11deacon_core12user_mapping18get_host_user_info0B5_
FNDA:0,_RNCNvNtCshLLWmVuQQJZ_11deacon_core12user_mapping18get_host_user_infos0_0B5_
FNDA:0,_RNCNvNtCshLLWmVuQQJZ_11deacon_core12user_mapping18get_host_user_infos1_0B5_
FNDA:0,_RNCNvNtCshLLWmVuQQJZ_11deacon_core12user_mapping18get_host_user_infos2_0B5_
FNDA:0,_RNCNvNtCshLLWmVuQQJZ_11deacon_core12user_mapping18get_host_user_infos_0B5_
FNDA:1,_RNvMNtCshLLWmVuQQJZ_11deacon_core12user_mappingNtB2_8UserInfo13default_shell
FNDA:2,_RNvMNtCshLLWmVuQQJZ_11deacon_core12user_mappingNtB2_8UserInfo16default_home_dir
FNDA:1,_RNvMNtCshLLWmVuQQJZ_11deacon_core12user_mappingNtB2_8UserInfo3new
FNDA:1,_RNvMs_NtCshLLWmVuQQJZ_11deacon_core12user_mappingNtB4_17UserMappingConfig14effective_user
FNDA:2,_RNvMs_NtCshLLWmVuQQJZ_11deacon_core12user_mappingNtB4_17UserMappingConfig14with_host_user
FNDA:1,_RNvMs_NtCshLLWmVuQQJZ_11deacon_core12user_mappingNtB4_17UserMappingConfig17needs_uid_mapping
FNDA:2,_RNvMs_NtCshLLWmVuQQJZ_11deacon_core12user_mappingNtB4_17UserMappingConfig18needs_user_mapping
FNDA:2,_RNvMs_NtCshLLWmVuQQJZ_11deacon_core12user_mappingNtB4_17UserMappingConfig19with_workspace_path
FNDA:2,_RNvMs_NtCshLLWmVuQQJZ_11deacon_core12user_mappingNtB4_17UserMappingConfig3new
FNDA:2,_RNvNtCshLLWmVuQQJZ_11deacon_core12user_mapping18get_host_user_info
FNDA:0,_RNCNvMs0_NtCshLLWmVuQQJZ_11deacon_core12user_mappingINtB7_18UserMappingServicepE18apply_user_mapping0B9_
FNDA:0,_RNCNvMs0_NtCshLLWmVuQQJZ_11deacon_core12user_mappingINtB7_18UserMappingServicepE21home_directory_exists0B9_
FNDA:0,_RNCNvMs0_NtCshLLWmVuQQJZ_11deacon_core12user_mappingINtB7_18UserMappingServicepE23execute_command_as_user0B9_
FNDA:0,_RNvMs0_NtCshLLWmVuQQJZ_11deacon_core12user_mappingINtB5_18UserMappingServicepE18apply_user_mappingB7_
FNDA:0,_RNvMs0_NtCshLLWmVuQQJZ_11deacon_core12user_mappingINtB5_18UserMappingServicepE21home_directory_existsB7_
FNDA:0,_RNvMs0_NtCshLLWmVuQQJZ_11deacon_core12user_mappingINtB5_18UserMappingServicepE23execute_command_as_userB7_
FNDA:0,_RNvMs0_NtCshLLWmVuQQJZ_11deacon_core12user_mappingINtB5_18UserMappingServicepE3newB7_
FNDA:0,_RNCNvNtCs1G9XuckPzNo_11deacon_core12user_mapping18get_host_user_info0B5_
FNDA:0,_RNCNvNtCs1G9XuckPzNo_11deacon_core12user_mapping18get_host_user_infos0_0B5_
FNDA:0,_RNCNvNtCs1G9XuckPzNo_11deacon_core12user_mapping18get_host_user_infos1_0B5_
FNDA:0,_RNCNvNtCs1G9XuckPzNo_11deacon_core12user_mapping18get_host_user_infos2_0B5_
FNDA:0,_RNCNvNtCs1G9XuckPzNo_11deacon_core12user_mapping18get_host_user_infos_0B5_
FNDA:0,_RNvNtCs1G9XuckPzNo_11deacon_core12user_mapping18get_host_user_info
FNDA:0,_RNvXs_NtNtCs1G9XuckPzNo_11deacon_core12user_mapping5testsNtB4_14MockUserMapperNtB6_10UserMapper11user_exists
FNDA:5,_RNvMNtCs1G9XuckPzNo_11deacon_core12user_mappingNtB2_8UserInfo13default_shell
FNDA:6,_RNvMNtCs1G9XuckPzNo_11deacon_core12user_mappingNtB2_8UserInfo16default_home_dir
FNDA:12,_RNvMNtCs1G9XuckPzNo_11deacon_core12user_mappingNtB2_8UserInfo3new
FNDA:2,_RNvMs_NtCs1G9XuckPzNo_11deacon_core12user_mappingNtB4_17UserMappingConfig14effective_user
FNDA:4,_RNvMs_NtCs1G9XuckPzNo_11deacon_core12user_mappingNtB4_17UserMappingConfig14with_host_user
FNDA:4,_RNvMs_NtCs1G9XuckPzNo_11deacon_core12user_mappingNtB4_17UserMappingConfig17needs_uid_mapping
FNDA:5,_RNvMs_NtCs1G9XuckPzNo_11deacon_core12user_mappingNtB4_17UserMappingConfig18needs_user_mapping
FNDA:1,_RNvMs_NtCs1G9XuckPzNo_11deacon_core12user_mappingNtB4_17UserMappingConfig19with_workspace_path
FNDA:6,_RNvMs_NtCs1G9XuckPzNo_11deacon_core12user_mappingNtB4_17UserMappingConfig3new
FNDA:4,_RNCNvMs0_NtCs1G9XuckPzNo_11deacon_core12user_mappingINtB7_18UserMappingServiceNtNtB7_5tests14MockUserMapperE18apply_user_mapping0B9_
FNDA:3,_RNCNvMs0_NtCs1G9XuckPzNo_11deacon_core12user_mappingINtB7_18UserMappingServiceNtNtB7_5tests14MockUserMapperE21home_directory_exists0B9_
FNDA:1,_RNCNvMs0_NtCs1G9XuckPzNo_11deacon_core12user_mappingINtB7_18UserMappingServiceNtNtB7_5tests14MockUserMapperE23execute_command_as_user0B9_
FNDA:4,_RNvMs0_NtCs1G9XuckPzNo_11deacon_core12user_mappingINtB5_18UserMappingServiceNtNtB5_5tests14MockUserMapperE18apply_user_mappingB7_
FNDA:3,_RNvMs0_NtCs1G9XuckPzNo_11deacon_core12user_mappingINtB5_18UserMappingServiceNtNtB5_5tests14MockUserMapperE21home_directory_existsB7_
FNDA:1,_RNvMs0_NtCs1G9XuckPzNo_11deacon_core12user_mappingINtB5_18UserMappingServiceNtNtB5_5tests14MockUserMapperE23execute_command_as_userB7_
FNDA:5,_RNvMs0_NtCs1G9XuckPzNo_11deacon_core12user_mappingINtB5_18UserMappingServiceNtNtB5_5tests14MockUserMapperE3newB7_
FNDA:5,_RNvMNtNtCs1G9XuckPzNo_11deacon_core12user_mapping5testsNtB2_14MockUserMapper3new
FNDA:2,_RNvMNtNtCs1G9XuckPzNo_11deacon_core12user_mapping5testsNtB2_14MockUserMapper9with_user
FNDA:1,_RNvNtNtCs1G9XuckPzNo_11deacon_core12user_mapping5testss_20test_create_new_user
FNDA:1,_RNvNtNtCs1G9XuckPzNo_11deacon_core12user_mapping5testss_23test_user_info_creation
FNDA:1,_RNvNtNtCs1G9XuckPzNo_11deacon_core12user_mapping5testss_23test_user_info_defaults
FNDA:1,_RNvNtNtCs1G9XuckPzNo_11deacon_core12user_mapping5testss_24test_user_mapping_config
FNDA:1,_RNvNtNtCs1G9XuckPzNo_11deacon_core12user_mapping5testss_27test_no_user_mapping_needed
FNDA:1,_RNvNtNtCs1G9XuckPzNo_11deacon_core12user_mapping5testss_28test_execute_command_as_user
FNDA:1,_RNvNtNtCs1G9XuckPzNo_11deacon_core12user_mapping5testss_29test_update_existing_user_uid
FNDA:1,_RNvNtNtCs1G9XuckPzNo_11deacon_core12user_mapping5testss_35test_existing_user_no_update_needed
FNDA:1,_RNvXs_NtNtCs1G9XuckPzNo_11deacon_core12user_mapping5testsNtB4_14MockUserMapperNtB6_10UserMapper11create_user
FNDA:3,_RNvXs_NtNtCs1G9XuckPzNo_11deacon_core12user_mapping5testsNtB4_14MockUserMapperNtB6_10UserMapper13get_user_info
FNDA:4,_RNvXs_NtNtCs1G9XuckPzNo_11deacon_core12user_mapping5testsNtB4_14MockUserMapperNtB6_10UserMapper15execute_as_user
FNDA:1,_RNvXs_NtNtCs1G9XuckPzNo_11deacon_core12user_mapping5testsNtB4_14MockUserMapperNtB6_10UserMapper15update_user_uid
FNDA:1,_RNvXs_NtNtCs1G9XuckPzNo_11deacon_core12user_mapping5testsNtB4_14MockUserMapperNtB6_10UserMapper16get_current_user
FNDA:0,_RNvXs_NtNtCs1G9XuckPzNo_11deacon_core12user_mapping5testsNtB4_14MockUserMapperNtB6_10UserMapper21create_home_directory
FNDA:0,_RNvXs_NtNtCs1G9XuckPzNo_11deacon_core12user_mapping5testsNtB4_14MockUserMapperNtB6_10UserMapper23set_workspace_ownership
FNDA:0,_RNCNCNvXs_NtNtCs1G9XuckPzNo_11deacon_core12user_mapping5testsNtB8_14MockUserMapperNtBa_10UserMapper11create_user00Bc_
FNDA:1,_RNCNvNtNtCs1G9XuckPzNo_11deacon_core12user_mapping5testss_20test_create_new_user0B7_
FNDA:1,_RNCNvNtNtCs1G9XuckPzNo_11deacon_core12user_mapping5testss_23test_user_info_creation0B7_
FNDA:1,_RNCNvNtNtCs1G9XuckPzNo_11deacon_core12user_mapping5testss_24test_user_mapping_config0B7_
FNDA:1,_RNCNvNtNtCs1G9XuckPzNo_11deacon_core12user_mapping5testss_27test_no_user_mapping_needed0B7_
FNDA:1,_RNCNvNtNtCs1G9XuckPzNo_11deacon_core12user_mapping5testss_28test_execute_command_as_user0B7_
FNDA:1,_RNCNvNtNtCs1G9XuckPzNo_11deacon_core12user_mapping5testss_29test_update_existing_user_uid0B7_
FNDA:1,_RNCNvNtNtCs1G9XuckPzNo_11deacon_core12user_mapping5testss_35test_existing_user_no_update_needed0B7_
FNF:48
FNH:39
DA:46,13
DA:47,13
DA:48,13
DA:49,13
DA:50,13
DA:51,13
DA:52,13
DA:53,13
DA:54,13
DA:57,6
DA:58,6
DA:59,6
DA:62,8
DA:63,8
DA:64,2
DA:66,6
DA:68,8
DA:90,8
DA:91,8
DA:92,8
DA:93,8
DA:94,8
DA:95,8
DA:96,8
DA:97,8
DA:98,8
DA:99,8
DA:100,8
DA:101,8
DA:102,8
DA:103,8
DA:106,6
DA:107,6
DA:108,6
DA:109,6
DA:110,6
DA:113,3
DA:114,3
DA:115,3
DA:116,3
DA:119,7
DA:120,7
DA:121,7
DA:124,5
DA:125,5
DA:126,5
DA:129,3
DA:130,3
DA:131,3
DA:132,3
DA:133,3
DA:239,5
DA:240,5
DA:241,5
DA:251,4
DA:252,4
DA:253,4
DA:254,4
DA:255,4
DA:369,4
DA:394,4
DA:397,3
DA:398,3
DA:399,3
DA:400,3
DA:401,3
DA:403,3
DA:404,3
DA:405,3
DA:406,3
DA:409,3
DA:410,3
DA:411,3
DA:412,3
DA:414,3
DA:415,0
DA:417,3
DA:424,1
DA:425,1
DA:426,1
DA:427,1
DA:428,1
DA:429,1
DA:430,1
DA:431,1
DA:442,1
DA:450,2
DA:455,2
DA:456,0
DA:458,0
DA:459,0
DA:460,0
DA:461,0
DA:463,0
DA:464,0
DA:465,0
DA:466,2
DA:472,2
DA:473,2
DA:474,2
DA:475,2
DA:476,2
DA:477,0
DA:478,0
DA:480,2
DA:481,2
DA:482,2
DA:483,2
DA:484,0
DA:485,0
DA:487,2
DA:488,2
DA:489,2
DA:490,2
DA:491,2
DA:492,0
DA:493,0
DA:495,2
DA:496,2
DA:497,2
DA:498,2
DA:499,0
DA:500,0
DA:502,2
DA:503,2
DA:504,2
DA:529,5
DA:530,5
DA:531,5
DA:532,5
DA:533,5
DA:534,5
DA:535,5
DA:536,5
DA:537,5
DA:538,5
DA:539,5
DA:540,5
DA:542,2
DA:543,2
DA:544,2
DA:545,2
DA:550,1
DA:552,1
DA:558,3
DA:560,3
DA:562,0
DA:564,0
DA:574,1
DA:577,0
DA:587,1
DA:595,1
DA:597,1
DA:603,0
DA:605,0
DA:613,0
DA:615,0
DA:624,4
DA:626,4
DA:630,1
DA:631,1
DA:632,1
DA:635,1
DA:636,1
DA:639,1
DA:640,1
DA:641,1
DA:642,1
DA:643,1
DA:644,1
DA:647,1
DA:648,1
DA:649,1
DA:650,1
DA:652,1
DA:653,1
DA:654,1
DA:655,1
DA:656,1
DA:657,1
DA:660,1
DA:661,1
DA:662,1
DA:664,1
DA:666,1
DA:667,1
DA:668,1
DA:669,1
DA:671,1
DA:672,1
DA:673,1
DA:674,1
DA:675,1
DA:676,1
DA:679,1
DA:680,1
DA:681,1
DA:683,1
DA:684,1
DA:686,1
DA:687,1
DA:688,1
DA:689,1
DA:691,1
DA:692,1
DA:693,1
DA:694,1
DA:695,1
DA:696,1
DA:699,1
DA:700,1
DA:701,1
DA:704,1
DA:705,1
DA:708,1
DA:709,1
DA:711,1
DA:712,1
DA:714,1
DA:715,1
DA:716,1
DA:717,1
DA:719,1
DA:720,1
DA:721,1
DA:722,1
DA:723,1
DA:724,1
DA:727,1
DA:728,1
DA:729,1
DA:732,1
DA:733,1
DA:736,1
DA:737,1
DA:739,1
DA:740,1
DA:742,1
DA:743,1
DA:744,1
DA:745,1
DA:747,1
DA:748,1
DA:749,1
DA:750,1
DA:751,1
DA:752,1
DA:755,1
DA:756,1
DA:757,1
DA:759,1
DA:761,1
DA:762,1
DA:763,1
DA:764,1
DA:765,1
DA:767,1
DA:768,1
DA:771,1
DA:772,1
DA:773,1
DA:774,1
DA:775,1
BRF:0
BRH:0
LF:285
LH:256
end_of_record
SF:/home/runner/work/deacon/deacon/crates/core/src/variable.rs
FN:148,_RNvMNtCshLLWmVuQQJZ_11deacon_core8variableNtB2_19SubstitutionContext18with_container_env
FN:129,_RNvMNtCshLLWmVuQQJZ_11deacon_core8variableNtB2_19SubstitutionContext24generate_devcontainer_id
FN:142,_RNvMNtCshLLWmVuQQJZ_11deacon_core8variableNtB2_19SubstitutionContext31with_container_workspace_folder
FN:85,_RNvMNtCshLLWmVuQQJZ_11deacon_core8variableNtB2_19SubstitutionContext3new
FN:267,_RNvMs0_NtCshLLWmVuQQJZ_11deacon_core8variableNtB5_20VariableSubstitution16resolve_variable
FN:229,_RNvMs0_NtCshLLWmVuQQJZ_11deacon_core8variableNtB5_20VariableSubstitution17substitute_string
FN:303,_RNvMs0_NtCshLLWmVuQQJZ_11deacon_core8variableNtB5_20VariableSubstitution21substitute_json_value
FN:170,_RNvMs_NtCshLLWmVuQQJZ_11deacon_core8variableNtB4_18SubstitutionReport15add_replacement
FN:180,_RNvMs_NtCshLLWmVuQQJZ_11deacon_core8variableNtB4_18SubstitutionReport17has_substitutions
FN:175,_RNvMs_NtCshLLWmVuQQJZ_11deacon_core8variableNtB4_18SubstitutionReport20add_unknown_variable
FN:165,_RNvMs_NtCshLLWmVuQQJZ_11deacon_core8variableNtB4_18SubstitutionReport3new
FN:92,_RNCNvMNtCshLLWmVuQQJZ_11deacon_core8variableNtB4_19SubstitutionContext3new0B6_
FN:281,_RNCNvMs0_NtCshLLWmVuQQJZ_11deacon_core8variableNtB7_20VariableSubstitution16resolve_variable0B9_
FN:282,_RNCNvMs0_NtCshLLWmVuQQJZ_11deacon_core8variableNtB7_20VariableSubstitution16resolve_variables_0B9_
FN:237,_RNCNvMs0_NtCshLLWmVuQQJZ_11deacon_core8variableNtB7_20VariableSubstitution17substitute_string0B9_
FN:313,_RNCNvMs0_NtCshLLWmVuQQJZ_11deacon_core8variableNtB7_20VariableSubstitution21substitute_json_value0B9_
FN:320,_RNCNvMs0_NtCshLLWmVuQQJZ_11deacon_core8variableNtB7_20VariableSubstitution21substitute_json_values_0B9_
FN:92,_RNCNvMNtCs1G9XuckPzNo_11deacon_core8variableNtB4_19SubstitutionContext3new0B6_
FN:281,_RNCNvMs0_NtCs1G9XuckPzNo_11deacon_core8variableNtB7_20VariableSubstitution16resolve_variable0B9_
FN:282,_RNCNvMs0_NtCs1G9XuckPzNo_11deacon_core8variableNtB7_20VariableSubstitution16resolve_variables_0B9_
FN:237,_RNCNvMs0_NtCs1G9XuckPzNo_11deacon_core8variableNtB7_20VariableSubstitution17substitute_string0B9_
FN:313,_RNCNvMs0_NtCs1G9XuckPzNo_11deacon_core8variableNtB7_20VariableSubstitution21substitute_json_value0B9_
FN:320,_RNCNvMs0_NtCs1G9XuckPzNo_11deacon_core8variableNtB7_20VariableSubstitution21substitute_json_values_0B9_
FN:148,_RNvMNtCs1G9XuckPzNo_11deacon_core8variableNtB2_19SubstitutionContext18with_container_env
FN:129,_RNvMNtCs1G9XuckPzNo_11deacon_core8variableNtB2_19SubstitutionContext24generate_devcontainer_id
FN:142,_RNvMNtCs1G9XuckPzNo_11deacon_core8variableNtB2_19SubstitutionContext31with_container_workspace_folder
FN:85,_RNvMNtCs1G9XuckPzNo_11deacon_core8variableNtB2_19SubstitutionContext3new
FN:267,_RNvMs0_NtCs1G9XuckPzNo_11deacon_core8variableNtB5_20VariableSubstitution16resolve_variable
FN:229,_RNvMs0_NtCs1G9XuckPzNo_11deacon_core8variableNtB5_20VariableSubstitution17substitute_string
FN:303,_RNvMs0_NtCs1G9XuckPzNo_11deacon_core8variableNtB5_20VariableSubstitution21substitute_json_value
FN:170,_RNvMs_NtCs1G9XuckPzNo_11deacon_core8variableNtB4_18SubstitutionReport15add_replacement
FN:180,_RNvMs_NtCs1G9XuckPzNo_11deacon_core8variableNtB4_18SubstitutionReport17has_substitutions
FN:175,_RNvMs_NtCs1G9XuckPzNo_11deacon_core8variableNtB4_18SubstitutionReport20add_unknown_variable
FN:165,_RNvMs_NtCs1G9XuckPzNo_11deacon_core8variableNtB4_18SubstitutionReport3new
FN:559,_RNCNvNtNtCs1G9XuckPzNo_11deacon_core8variable5testss_34test_deterministic_devcontainer_id0B7_
FN:525,_RNvNtNtCs1G9XuckPzNo_11deacon_core8variable5testss_24test_substitution_report
FN:506,_RNvNtNtCs1G9XuckPzNo_11deacon_core8variable5testss_26test_nested_braces_ignored
FN:393,_RNvNtNtCs1G9XuckPzNo_11deacon_core8variable5testss_27test_local_env_substitution
FN:465,_RNvNtNtCs1G9XuckPzNo_11deacon_core8variable5testss_28test_json_value_substitution
FN:617,_RNvNtNtCs1G9XuckPzNo_11deacon_core8variable5testss_30test_container_env_missing_var
FN:599,_RNvNtNtCs1G9XuckPzNo_11deacon_core8variable5testss_31test_container_env_substitution
FN:360,_RNvNtNtCs1G9XuckPzNo_11deacon_core8variable5testss_32test_basic_variable_substitution
FN:634,_RNvNtNtCs1G9XuckPzNo_11deacon_core8variable5testss_32test_container_env_not_available
FN:377,_RNvNtNtCs1G9XuckPzNo_11deacon_core8variable5testss_33test_devcontainer_id_substitution
FN:445,_RNvNtNtCs1G9XuckPzNo_11deacon_core8variable5testss_33test_multiple_variables_in_string
FN:541,_RNvNtNtCs1G9XuckPzNo_11deacon_core8variable5testss_34test_deterministic_devcontainer_id
FN:413,_RNvNtNtCs1G9XuckPzNo_11deacon_core8variable5testss_34test_missing_env_var_becomes_empty
FN:337,_RNvNtNtCs1G9XuckPzNo_11deacon_core8variable5testss_34test_substitution_context_creation
FN:428,_RNvNtNtCs1G9XuckPzNo_11deacon_core8variable5testss_36test_unknown_variable_left_unchanged
FN:650,_RNvNtNtCs1G9XuckPzNo_11deacon_core8variable5testss_40test_mixed_container_and_local_variables
FN:565,_RNvNtNtCs1G9XuckPzNo_11deacon_core8variable5testss_44test_container_workspace_folder_substitution
FN:581,_RNvNtNtCs1G9XuckPzNo_11deacon_core8variable5testss_45test_container_workspace_folder_not_available
FNDA:4,_RNvMNtCshLLWmVuQQJZ_11deacon_core8variableNtB2_19SubstitutionContext18with_container_env
FNDA:27,_RNvMNtCshLLWmVuQQJZ_11deacon_core8variableNtB2_19SubstitutionContext24generate_devcontainer_id
FNDA:4,_RNvMNtCshLLWmVuQQJZ_11deacon_core8variableNtB2_19SubstitutionContext31with_container_workspace_folder
FNDA:27,_RNvMNtCshLLWmVuQQJZ_11deacon_core8variableNtB2_19SubstitutionContext3new
FNDA:80,_RNvMs0_NtCshLLWmVuQQJZ_11deacon_core8variableNtB5_20VariableSubstitution16resolve_variable
FNDA:90,_RNvMs0_NtCshLLWmVuQQJZ_11deacon_core8variableNtB5_20VariableSubstitution17substitute_string
FNDA:49,_RNvMs0_NtCshLLWmVuQQJZ_11deacon_core8variableNtB5_20VariableSubstitution21substitute_json_value
FNDA:80,_RNvMs_NtCshLLWmVuQQJZ_11deacon_core8variableNtB4_18SubstitutionReport15add_replacement
FNDA:6,_RNvMs_NtCshLLWmVuQQJZ_11deacon_core8variableNtB4_18SubstitutionReport17has_substitutions
FNDA:0,_RNvMs_NtCshLLWmVuQQJZ_11deacon_core8variableNtB4_18SubstitutionReport20add_unknown_variable
FNDA:24,_RNvMs_NtCshLLWmVuQQJZ_11deacon_core8variableNtB4_18SubstitutionReport3new
FNDA:0,_RNCNvMNtCshLLWmVuQQJZ_11deacon_core8variableNtB4_19SubstitutionContext3new0B6_
FNDA:0,_RNCNvMs0_NtCshLLWmVuQQJZ_11deacon_core8variableNtB7_20VariableSubstitution16resolve_variable0B9_
FNDA:0,_RNCNvMs0_NtCshLLWmVuQQJZ_11deacon_core8variableNtB7_20VariableSubstitution16resolve_variables_0B9_
FNDA:80,_RNCNvMs0_NtCshLLWmVuQQJZ_11deacon_core8variableNtB7_20VariableSubstitution17substitute_string0B9_
FNDA:8,_RNCNvMs0_NtCshLLWmVuQQJZ_11deacon_core8variableNtB7_20VariableSubstitution21substitute_json_value0B9_
FNDA:10,_RNCNvMs0_NtCshLLWmVuQQJZ_11deacon_core8variableNtB7_20VariableSubstitution21substitute_json_values_0B9_
FNDA:0,_RNCNvMNtCs1G9XuckPzNo_11deacon_core8variableNtB4_19SubstitutionContext3new0B6_
FNDA:3,_RNCNvMs0_NtCs1G9XuckPzNo_11deacon_core8variableNtB7_20VariableSubstitution16resolve_variable0B9_
FNDA:2,_RNCNvMs0_NtCs1G9XuckPzNo_11deacon_core8variableNtB7_20VariableSubstitution16resolve_variables_0B9_
FNDA:32,_RNCNvMs0_NtCs1G9XuckPzNo_11deacon_core8variableNtB7_20VariableSubstitution17substitute_string0B9_
FNDA:2,_RNCNvMs0_NtCs1G9XuckPzNo_11deacon_core8variableNtB7_20VariableSubstitution21substitute_json_value0B9_
FNDA:0,_RNCNvMs0_NtCs1G9XuckPzNo_11deacon_core8variableNtB7_20VariableSubstitution21substitute_json_values_0B9_
FNDA:3,_RNvMNtCs1G9XuckPzNo_11deacon_core8variableNtB2_19SubstitutionContext18with_container_env
FNDA:24,_RNvMNtCs1G9XuckPzNo_11deacon_core8variableNtB2_19SubstitutionContext24generate_devcontainer_id
FNDA:2,_RNvMNtCs1G9XuckPzNo_11deacon_core8variableNtB2_19SubstitutionContext31with_container_workspace_folder
FNDA:24,_RNvMNtCs1G9XuckPzNo_11deacon_core8variableNtB2_19SubstitutionContext3new
FNDA:32,_RNvMs0_NtCs1G9XuckPzNo_11deacon_core8variableNtB5_20VariableSubstitution16resolve_variable
FNDA:28,_RNvMs0_NtCs1G9XuckPzNo_11deacon_core8variableNtB5_20VariableSubstitution17substitute_string
FNDA:6,_RNvMs0_NtCs1G9XuckPzNo_11deacon_core8variableNtB5_20VariableSubstitution21substitute_json_value
FNDA:30,_RNvMs_NtCs1G9XuckPzNo_11deacon_core8variableNtB4_18SubstitutionReport15add_replacement
FNDA:4,_RNvMs_NtCs1G9XuckPzNo_11deacon_core8variableNtB4_18SubstitutionReport17has_substitutions
FNDA:4,_RNvMs_NtCs1G9XuckPzNo_11deacon_core8variableNtB4_18SubstitutionReport20add_unknown_variable
FNDA:21,_RNvMs_NtCs1G9XuckPzNo_11deacon_core8variableNtB4_18SubstitutionReport3new
FNDA:12,_RNCNvNtNtCs1G9XuckPzNo_11deacon_core8variable5testss_34test_deterministic_devcontainer_id0B7_
FNDA:1,_RNvNtNtCs1G9XuckPzNo_11deacon_core8variable5testss_24test_substitution_report
FNDA:1,_RNvNtNtCs1G9XuckPzNo_11deacon_core8variable5testss_26test_nested_braces_ignored
FNDA:1,_RNvNtNtCs1G9XuckPzNo_11deacon_core8variable5testss_27test_local_env_substitution
FNDA:1,_RNvNtNtCs1G9XuckPzNo_11deacon_core8variable5testss_28test_json_value_substitution
FNDA:1,_RNvNtNtCs1G9XuckPzNo_11deacon_core8variable5testss_30test_container_env_missing_var
FNDA:1,_RNvNtNtCs1G9XuckPzNo_11deacon_core8variable5testss_31test_container_env_substitution
FNDA:1,_RNvNtNtCs1G9XuckPzNo_11deacon_core8variable5testss_32test_basic_variable_substitution
FNDA:1,_RNvNtNtCs1G9XuckPzNo_11deacon_core8variable5testss_32test_container_env_not_available
FNDA:1,_RNvNtNtCs1G9XuckPzNo_11deacon_core8variable5testss_33test_devcontainer_id_substitution
FNDA:1,_RNvNtNtCs1G9XuckPzNo_11deacon_core8variable5testss_33test_multiple_variables_in_string
FNDA:1,_RNvNtNtCs1G9XuckPzNo_11deacon_core8variable5testss_34test_deterministic_devcontainer_id
FNDA:1,_RNvNtNtCs1G9XuckPzNo_11deacon_core8variable5testss_34test_missing_env_var_becomes_empty
FNDA:1,_RNvNtNtCs1G9XuckPzNo_11deacon_core8variable5testss_34test_substitution_context_creation
FNDA:1,_RNvNtNtCs1G9XuckPzNo_11deacon_core8variable5testss_36test_unknown_variable_left_unchanged
FNDA:1,_RNvNtNtCs1G9XuckPzNo_11deacon_core8variable5testss_40test_mixed_container_and_local_variables
FNDA:1,_RNvNtNtCs1G9XuckPzNo_11deacon_core8variable5testss_44test_container_workspace_folder_substitution
FNDA:1,_RNvNtNtCs1G9XuckPzNo_11deacon_core8variable5testss_45test_container_workspace_folder_not_available
FNF:35
FNH:34
DA:85,51
DA:86,51
DA:87,1
DA:88,1
DA:92,51
DA:93,0
DA:94,0
DA:95,0
DA:96,0
DA:97,0
DA:98,0
DA:99,0
DA:100,0
DA:101,0
DA:103,51
DA:106,51
DA:109,51
DA:111,51
DA:112,1
DA:116,51
DA:117,51
DA:118,51
DA:119,51
DA:120,51
DA:121,51
DA:122,51
DA:123,51
DA:129,51
DA:133,51
DA:134,51
DA:135,51
DA:138,51
DA:139,51
DA:142,6
DA:143,6
DA:144,6
DA:145,6
DA:148,7
DA:149,7
DA:150,7
DA:151,7
DA:165,45
DA:166,45
DA:167,45
DA:170,110
DA:171,110
DA:172,110
DA:175,4
DA:176,4
DA:177,4
DA:180,10
DA:181,10
DA:182,10
DA:229,118
DA:230,118
DA:231,118
DA:232,118
DA:233,118
DA:234,118
DA:235,118
DA:237,118
DA:238,112
DA:240,112
DA:242,112
DA:243,109
DA:244,109
DA:245,109
DA:246,109
DA:249,3
DA:250,3
DA:251,3
DA:254,112
DA:256,118
DA:257,118
DA:267,112
DA:268,6
DA:269,112
DA:270,39
DA:271,24
DA:272,20
DA:273,14
DA:274,14
DA:276,6
DA:277,4
DA:278,4
DA:279,4
DA:280,4
DA:281,4
DA:282,4
DA:284,2
DA:286,112
DA:303,55
DA:304,55
DA:305,55
DA:306,55
DA:307,55
DA:308,55
DA:309,45
DA:310,4
DA:311,4
DA:312,4
DA:313,10
DA:314,4
DA:315,4
DA:317,6
DA:318,6
DA:319,6
DA:320,10
DA:321,6
DA:322,6
DA:325,0
DA:327,55
DA:337,1
DA:338,1
DA:339,1
DA:342,1
DA:343,1
DA:344,1
DA:347,1
DA:350,1
DA:353,1
DA:354,1
DA:356,1
DA:357,1
DA:360,1
DA:361,1
DA:362,1
DA:363,1
DA:366,1
DA:367,1
DA:369,1
DA:370,1
DA:371,1
DA:373,1
DA:374,1
DA:377,1
DA:378,1
DA:379,1
DA:380,1
DA:382,1
DA:383,1
DA:385,1
DA:386,1
DA:387,1
DA:389,1
DA:390,1
DA:393,1
DA:396,1
DA:398,1
DA:399,1
DA:400,1
DA:402,1
DA:403,1
DA:405,1
DA:406,1
DA:408,1
DA:409,1
DA:410,1
DA:413,1
DA:414,1
DA:415,1
DA:416,1
DA:418,1
DA:419,1
DA:421,1
DA:422,1
DA:424,1
DA:425,1
DA:428,1
DA:429,1
DA:430,1
DA:431,1
DA:433,1
DA:434,1
DA:436,1
DA:437,1
DA:438,1
DA:439,1
DA:441,1
DA:442,1
DA:445,1
DA:446,1
DA:448,1
DA:449,1
DA:450,1
DA:452,1
DA:453,1
DA:455,1
DA:456,1
DA:457,1
DA:458,1
DA:460,1
DA:461,1
DA:462,1
DA:465,1
DA:466,1
DA:467,1
DA:468,1
DA:471,1
DA:472,1
DA:473,1
DA:475,1
DA:476,1
DA:477,1
DA:479,0
DA:483,1
DA:484,1
DA:485,1
DA:486,1
DA:487,1
DA:488,1
DA:490,1
DA:491,1
DA:492,1
DA:493,1
DA:494,0
DA:495,1
DA:496,1
DA:497,0
DA:499,0
DA:502,1
DA:503,1
DA:506,1
DA:507,1
DA:508,1
DA:509,1
DA:512,1
DA:513,1
DA:516,1
DA:517,1
DA:518,1
DA:519,1
DA:521,1
DA:522,1
DA:525,1
DA:526,1
DA:528,1
DA:530,1
DA:531,1
DA:533,1
DA:534,1
DA:535,1
DA:536,1
DA:537,1
DA:538,1
DA:541,1
DA:542,1
DA:543,1
DA:546,1
DA:547,1
DA:550,1
DA:553,1
DA:556,1
DA:557,1
DA:558,1
DA:559,12
DA:561,1
DA:562,1
DA:565,1
DA:566,1
DA:567,1
DA:568,1
DA:569,1
DA:571,1
DA:572,1
DA:574,1
DA:575,1
DA:577,1
DA:578,1
DA:581,1
DA:582,1
DA:583,1
DA:584,1
DA:586,1
DA:587,1
DA:590,1
DA:591,1
DA:592,1
DA:593,1
DA:595,1
DA:596,1
DA:599,1
DA:600,1
DA:601,1
DA:602,1
DA:604,1
DA:605,1
DA:607,1
DA:608,1
DA:610,1
DA:611,1
DA:613,1
DA:614,1
DA:617,1
DA:618,1
DA:619,1
DA:621,1
DA:622,1
DA:624,1
DA:625,1
DA:627,1
DA:628,1
DA:630,1
DA:631,1
DA:634,1
DA:635,1
DA:636,1
DA:637,1
DA:639,1
DA:640,1
DA:643,1
DA:644,1
DA:646,1
DA:647,1
DA:650,1
DA:651,1
DA:653,1
DA:654,1
DA:655,1
DA:657,1
DA:658,1
DA:659,1
DA:660,1
DA:662,1
DA:663,1
DA:665,1
DA:666,1
DA:667,1
DA:668,1
DA:669,1
DA:671,1
DA:672,1
DA:673,1
BRF:0
BRH:0
LF:341
LH:325
end_of_record
SF:/home/runner/work/deacon/deacon/crates/deacon/src/cli.rs
FN:216,_RNvMNtCsgueokGkgs2b_6deacon3cliNtB2_3Cli7context
FN:228,_RNvMNtCsgueokGkgs2b_6deacon3cliNtB2_3Cli8dispatch
FN:228,_RNCNvMNtCsgueokGkgs2b_6deacon3cliNtB4_3Cli8dispatch0B6_
FN:228,_RNCNvMNtCs3h5i2ndpMQu_6deacon3cliNtB4_3Cli8dispatch0B6_
FN:216,_RNvMNtCs3h5i2ndpMQu_6deacon3cliNtB2_3Cli7context
FN:228,_RNvMNtCs3h5i2ndpMQu_6deacon3cliNtB2_3Cli8dispatch
FN:228,_RNCNvMNtCsg3KGOJsATZq_6deacon3cliNtB4_3Cli8dispatch0B6_
FN:216,_RNvMNtCsg3KGOJsATZq_6deacon3cliNtB2_3Cli7context
FN:228,_RNvMNtCsg3KGOJsATZq_6deacon3cliNtB2_3Cli8dispatch
FNDA:0,_RNvMNtCsgueokGkgs2b_6deacon3cliNtB2_3Cli7context
FNDA:36,_RNvMNtCsgueokGkgs2b_6deacon3cliNtB2_3Cli8dispatch
FNDA:36,_RNCNvMNtCsgueokGkgs2b_6deacon3cliNtB4_3Cli8dispatch0B6_
FNDA:0,_RNCNvMNtCs3h5i2ndpMQu_6deacon3cliNtB4_3Cli8dispatch0B6_
FNDA:0,_RNvMNtCs3h5i2ndpMQu_6deacon3cliNtB2_3Cli7context
FNDA:0,_RNvMNtCs3h5i2ndpMQu_6deacon3cliNtB2_3Cli8dispatch
FNDA:0,_RNCNvMNtCsg3KGOJsATZq_6deacon3cliNtB4_3Cli8dispatch0B6_
FNDA:0,_RNvMNtCsg3KGOJsATZq_6deacon3cliNtB2_3Cli7context
FNDA:0,_RNvMNtCsg3KGOJsATZq_6deacon3cliNtB2_3Cli8dispatch
FNF:3
FNH:2
DA:216,0
DA:217,0
DA:218,0
DA:219,0
DA:220,0
DA:221,0
DA:222,0
DA:223,0
DA:224,0
DA:225,0
DA:226,0
DA:228,36
DA:232,36
DA:233,34
DA:234,2
DA:237,36
DA:238,0
DA:239,0
DA:240,33
DA:241,3
DA:242,0
DA:246,36
DA:248,36
DA:250,36
DA:253,36
DA:256,36
DA:257,0
DA:258,36
DA:260,30
DA:262,5
DA:263,5
DA:264,5
DA:265,5
DA:269,5
DA:270,5
DA:271,5
DA:272,5
DA:273,5
DA:274,5
DA:275,5
DA:276,5
DA:278,5
DA:279,1
DA:280,4
DA:282,4
DA:285,2
DA:287,2
DA:293,5
DA:294,5
DA:295,5
DA:296,5
DA:297,5
DA:301,5
DA:302,5
DA:303,5
DA:304,5
DA:305,5
DA:306,5
DA:307,5
DA:308,5
DA:309,5
DA:311,5
DA:312,2
DA:315,6
DA:316,6
DA:317,6
DA:318,6
DA:322,6
DA:323,6
DA:324,6
DA:325,6
DA:326,6
DA:327,6
DA:328,6
DA:329,6
DA:331,6
DA:334,10
DA:340,10
DA:341,10
DA:342,10
DA:343,10
DA:344,10
DA:346,10
DA:347,8
DA:350,0
DA:351,0
DA:352,0
DA:353,0
DA:356,0
DA:357,0
DA:358,0
DA:359,0
DA:362,0
DA:363,0
DA:364,0
DA:365,0
DA:367,4
DA:369,4
DA:370,4
DA:371,4
DA:372,4
DA:375,4
DA:376,4
DA:377,0
DA:382,6
DA:383,6
DA:384,6
DA:387,36
BRF:0
BRH:0
LF:109
LH:81
end_of_record
SF:/home/runner/work/deacon/deacon/crates/deacon/src/commands/build.rs
FN:297,_RNCNCNCNvNtNtCsgueokGkgs2b_6deacon8commands5build20execute_docker_build000Bb_
FN:366,_RNCNCNCNvNtNtCsgueokGkgs2b_6deacon8commands5build20execute_docker_build00s0_0Bb_
FN:308,_RNCNCNCNvNtNtCsgueokGkgs2b_6deacon8commands5build20execute_docker_build00s_0Bb_
FN:410,_RNCNCNvNtNtCsgueokGkgs2b_6deacon8commands5build22extract_image_metadata00B9_
FN:421,_RNCNCNvNtNtCsgueokGkgs2b_6deacon8commands5build22extract_image_metadata0s_0B9_
FN:58,_RNCNvNtNtCsgueokGkgs2b_6deacon8commands5build13execute_build0B7_
FN:440,_RNCNvNtNtCsgueokGkgs2b_6deacon8commands5build13output_result0B7_
FN:250,_RNCNvNtNtCsgueokGkgs2b_6deacon8commands5build17check_build_cache0B7_
FN:258,_RNCNvNtNtCsgueokGkgs2b_6deacon8commands5build18cache_build_result0B7_
FN:272,_RNCNvNtNtCsgueokGkgs2b_6deacon8commands5build20execute_docker_build0B7_
FN:159,_RNCNvNtNtCsgueokGkgs2b_6deacon8commands5build20extract_build_config0B7_
FN:169,_RNCNvNtNtCsgueokGkgs2b_6deacon8commands5build20extract_build_configs0_0B7_
FN:164,_RNCNvNtNtCsgueokGkgs2b_6deacon8commands5build20extract_build_configs_0B7_
FN:400,_RNCNvNtNtCsgueokGkgs2b_6deacon8commands5build22extract_image_metadata0B7_
FN:58,_RNvNtNtCsgueokGkgs2b_6deacon8commands5build13execute_build
FN:437,_RNvNtNtCsgueokGkgs2b_6deacon8commands5build13output_result
FN:247,_RNvNtNtCsgueokGkgs2b_6deacon8commands5build17check_build_cache
FN:258,_RNvNtNtCsgueokGkgs2b_6deacon8commands5build18cache_build_result
FN:267,_RNvNtNtCsgueokGkgs2b_6deacon8commands5build20execute_docker_build
FN:123,_RNvNtNtCsgueokGkgs2b_6deacon8commands5build20extract_build_config
FN:203,_RNvNtNtCsgueokGkgs2b_6deacon8commands5build21calculate_config_hash
FN:400,_RNvNtNtCsgueokGkgs2b_6deacon8commands5build22extract_image_metadata
FN:570,_RNvNtNtNtCs3h5i2ndpMQu_6deacon8commands5build5testss_24test_build_args_assembly
FN:538,_RNvNtNtNtCs3h5i2ndpMQu_6deacon8commands5build5testss_28test_config_hash_calculation
FN:590,_RNvNtNtNtCs3h5i2ndpMQu_6deacon8commands5build5testss_28test_docker_cli_arg_ordering
FN:471,_RNvNtNtNtCs3h5i2ndpMQu_6deacon8commands5build5testss_36test_build_config_dockerfile_parsing
FN:297,_RNCNCNCNvNtNtCs3h5i2ndpMQu_6deacon8commands5build20execute_docker_build000Bb_
FN:366,_RNCNCNCNvNtNtCs3h5i2ndpMQu_6deacon8commands5build20execute_docker_build00s0_0Bb_
FN:308,_RNCNCNCNvNtNtCs3h5i2ndpMQu_6deacon8commands5build20execute_docker_build00s_0Bb_
FN:410,_RNCNCNvNtNtCs3h5i2ndpMQu_6deacon8commands5build22extract_image_metadata00B9_
FN:421,_RNCNCNvNtNtCs3h5i2ndpMQu_6deacon8commands5build22extract_image_metadata0s_0B9_
FN:58,_RNCNvNtNtCs3h5i2ndpMQu_6deacon8commands5build13execute_build0B7_
FN:440,_RNCNvNtNtCs3h5i2ndpMQu_6deacon8commands5build13output_result0B7_
FN:250,_RNCNvNtNtCs3h5i2ndpMQu_6deacon8commands5build17check_build_cache0B7_
FN:258,_RNCNvNtNtCs3h5i2ndpMQu_6deacon8commands5build18cache_build_result0B7_
FN:272,_RNCNvNtNtCs3h5i2ndpMQu_6deacon8commands5build20execute_docker_build0B7_
FN:400,_RNCNvNtNtCs3h5i2ndpMQu_6deacon8commands5build22extract_image_metadata0B7_
FN:58,_RNvNtNtCs3h5i2ndpMQu_6deacon8commands5build13execute_build
FN:437,_RNvNtNtCs3h5i2ndpMQu_6deacon8commands5build13output_result
FN:247,_RNvNtNtCs3h5i2ndpMQu_6deacon8commands5build17check_build_cache
FN:258,_RNvNtNtCs3h5i2ndpMQu_6deacon8commands5build18cache_build_result
FN:267,_RNvNtNtCs3h5i2ndpMQu_6deacon8commands5build20execute_docker_build
FN:400,_RNvNtNtCs3h5i2ndpMQu_6deacon8commands5build22extract_image_metadata
FN:657,_RNCNvNtNtNtCs3h5i2ndpMQu_6deacon8commands5build5testss_28test_docker_cli_arg_ordering0B9_
FN:159,_RNCNvNtNtCs3h5i2ndpMQu_6deacon8commands5build20extract_build_config0B7_
FN:169,_RNCNvNtNtCs3h5i2ndpMQu_6deacon8commands5build20extract_build_configs0_0B7_
FN:164,_RNCNvNtNtCs3h5i2ndpMQu_6deacon8commands5build20extract_build_configs_0B7_
FN:123,_RNvNtNtCs3h5i2ndpMQu_6deacon8commands5build20extract_build_config
FN:203,_RNvNtNtCs3h5i2ndpMQu_6deacon8commands5build21calculate_config_hash
FN:297,_RNCNCNCNvNtNtCsg3KGOJsATZq_6deacon8commands5build20execute_docker_build000Bb_
FN:366,_RNCNCNCNvNtNtCsg3KGOJsATZq_6deacon8commands5build20execute_docker_build00s0_0Bb_
FN:308,_RNCNCNCNvNtNtCsg3KGOJsATZq_6deacon8commands5build20execute_docker_build00s_0Bb_
FN:410,_RNCNCNvNtNtCsg3KGOJsATZq_6deacon8commands5build22extract_image_metadata00B9_
FN:421,_RNCNCNvNtNtCsg3KGOJsATZq_6deacon8commands5build22extract_image_metadata0s_0B9_
FN:58,_RNCNvNtNtCsg3KGOJsATZq_6deacon8commands5build13execute_build0B7_
FN:440,_RNCNvNtNtCsg3KGOJsATZq_6deacon8commands5build13output_result0B7_
FN:250,_RNCNvNtNtCsg3KGOJsATZq_6deacon8commands5build17check_build_cache0B7_
FN:258,_RNCNvNtNtCsg3KGOJsATZq_6deacon8commands5build18cache_build_result0B7_
FN:272,_RNCNvNtNtCsg3KGOJsATZq_6deacon8commands5build20execute_docker_build0B7_
FN:400,_RNCNvNtNtCsg3KGOJsATZq_6deacon8commands5build22extract_image_metadata0B7_
FN:58,_RNvNtNtCsg3KGOJsATZq_6deacon8commands5build13execute_build
FN:437,_RNvNtNtCsg3KGOJsATZq_6deacon8commands5build13output_result
FN:247,_RNvNtNtCsg3KGOJsATZq_6deacon8commands5build17check_build_cache
FN:258,_RNvNtNtCsg3KGOJsATZq_6deacon8commands5build18cache_build_result
FN:267,_RNvNtNtCsg3KGOJsATZq_6deacon8commands5build20execute_docker_build
FN:400,_RNvNtNtCsg3KGOJsATZq_6deacon8commands5build22extract_image_metadata
FN:123,_RNvNtNtCsg3KGOJsATZq_6deacon8commands5build20extract_build_config
FN:203,_RNvNtNtCsg3KGOJsATZq_6deacon8commands5build21calculate_config_hash
FN:159,_RNCNvNtNtCsg3KGOJsATZq_6deacon8commands5build20extract_build_config0B7_
FN:169,_RNCNvNtNtCsg3KGOJsATZq_6deacon8commands5build20extract_build_configs0_0B7_
FN:164,_RNCNvNtNtCsg3KGOJsATZq_6deacon8commands5build20extract_build_configs_0B7_
FN:570,_RNvNtNtNtCsg3KGOJsATZq_6deacon8commands5build5testss_24test_build_args_assembly
FN:538,_RNvNtNtNtCsg3KGOJsATZq_6deacon8commands5build5testss_28test_config_hash_calculation
FN:590,_RNvNtNtNtCsg3KGOJsATZq_6deacon8commands5build5testss_28test_docker_cli_arg_ordering
FN:471,_RNvNtNtNtCsg3KGOJsATZq_6deacon8commands5build5testss_36test_build_config_dockerfile_parsing
FN:657,_RNCNvNtNtNtCsg3KGOJsATZq_6deacon8commands5build5testss_28test_docker_cli_arg_ordering0B9_
FNDA:0,_RNCNCNCNvNtNtCsgueokGkgs2b_6deacon8commands5build20execute_docker_build000Bb_
FNDA:0,_RNCNCNCNvNtNtCsgueokGkgs2b_6deacon8commands5build20execute_docker_build00s0_0Bb_
FNDA:0,_RNCNCNCNvNtNtCsgueokGkgs2b_6deacon8commands5build20execute_docker_build00s_0Bb_
FNDA:0,_RNCNCNvNtNtCsgueokGkgs2b_6deacon8commands5build22extract_image_metadata00B9_
FNDA:0,_RNCNCNvNtNtCsgueokGkgs2b_6deacon8commands5build22extract_image_metadata0s_0B9_
FNDA:5,_RNCNvNtNtCsgueokGkgs2b_6deacon8commands5build13execute_build0B7_
FNDA:0,_RNCNvNtNtCsgueokGkgs2b_6deacon8commands5build13output_result0B7_
FNDA:1,_RNCNvNtNtCsgueokGkgs2b_6deacon8commands5build17check_build_cache0B7_
FNDA:2,_RNCNvNtNtCsgueokGkgs2b_6deacon8commands5build18cache_build_result0B7_
FNDA:2,_RNCNvNtNtCsgueokGkgs2b_6deacon8commands5build20execute_docker_build0B7_
FNDA:1,_RNCNvNtNtCsgueokGkgs2b_6deacon8commands5build20extract_build_config0B7_
FNDA:1,_RNCNvNtNtCsgueokGkgs2b_6deacon8commands5build20extract_build_configs0_0B7_
FNDA:0,_RNCNvNtNtCsgueokGkgs2b_6deacon8commands5build20extract_build_configs_0B7_
FNDA:2,_RNCNvNtNtCsgueokGkgs2b_6deacon8commands5build22extract_image_metadata0B7_
FNDA:5,_RNvNtNtCsgueokGkgs2b_6deacon8commands5build13execute_build
FNDA:2,_RNvNtNtCsgueokGkgs2b_6deacon8commands5build13output_result
FNDA:1,_RNvNtNtCsgueokGkgs2b_6deacon8commands5build17check_build_cache
FNDA:2,_RNvNtNtCsgueokGkgs2b_6deacon8commands5build18cache_build_result
FNDA:2,_RNvNtNtCsgueokGkgs2b_6deacon8commands5build20execute_docker_build
FNDA:4,_RNvNtNtCsgueokGkgs2b_6deacon8commands5build20extract_build_config
FNDA:2,_RNvNtNtCsgueokGkgs2b_6deacon8commands5build21calculate_config_hash
FNDA:2,_RNvNtNtCsgueokGkgs2b_6deacon8commands5build22extract_image_metadata
FNDA:1,_RNvNtNtNtCs3h5i2ndpMQu_6deacon8commands5build5testss_24test_build_args_assembly
FNDA:1,_RNvNtNtNtCs3h5i2ndpMQu_6deacon8commands5build5testss_28test_config_hash_calculation
FNDA:1,_RNvNtNtNtCs3h5i2ndpMQu_6deacon8commands5build5testss_28test_docker_cli_arg_ordering
FNDA:1,_RNvNtNtNtCs3h5i2ndpMQu_6deacon8commands5build5testss_36test_build_config_dockerfile_parsing
FNDA:0,_RNCNCNCNvNtNtCs3h5i2ndpMQu_6deacon8commands5build20execute_docker_build000Bb_
FNDA:0,_RNCNCNCNvNtNtCs3h5i2ndpMQu_6deacon8commands5build20execute_docker_build00s0_0Bb_
FNDA:0,_RNCNCNCNvNtNtCs3h5i2ndpMQu_6deacon8commands5build20execute_docker_build00s_0Bb_
FNDA:0,_RNCNCNvNtNtCs3h5i2ndpMQu_6deacon8commands5build22extract_image_metadata00B9_
FNDA:0,_RNCNCNvNtNtCs3h5i2ndpMQu_6deacon8commands5build22extract_image_metadata0s_0B9_
FNDA:0,_RNCNvNtNtCs3h5i2ndpMQu_6deacon8commands5build13execute_build0B7_
FNDA:0,_RNCNvNtNtCs3h5i2ndpMQu_6deacon8commands5build13output_result0B7_
FNDA:0,_RNCNvNtNtCs3h5i2ndpMQu_6deacon8commands5build17check_build_cache0B7_
FNDA:0,_RNCNvNtNtCs3h5i2ndpMQu_6deacon8commands5build18cache_build_result0B7_
FNDA:0,_RNCNvNtNtCs3h5i2ndpMQu_6deacon8commands5build20execute_docker_build0B7_
FNDA:0,_RNCNvNtNtCs3h5i2ndpMQu_6deacon8commands5build22extract_image_metadata0B7_
FNDA:0,_RNvNtNtCs3h5i2ndpMQu_6deacon8commands5build13execute_build
FNDA:0,_RNvNtNtCs3h5i2ndpMQu_6deacon8commands5build13output_result
FNDA:0,_RNvNtNtCs3h5i2ndpMQu_6deacon8commands5build17check_build_cache
FNDA:0,_RNvNtNtCs3h5i2ndpMQu_6deacon8commands5build18cache_build_result
FNDA:0,_RNvNtNtCs3h5i2ndpMQu_6deacon8commands5build20execute_docker_build
FNDA:0,_RNvNtNtCs3h5i2ndpMQu_6deacon8commands5build22extract_image_metadata
FNDA:3,_RNCNvNtNtNtCs3h5i2ndpMQu_6deacon8commands5build5testss_28test_docker_cli_arg_ordering0B9_
FNDA:1,_RNCNvNtNtCs3h5i2ndpMQu_6deacon8commands5build20extract_build_config0B7_
FNDA:1,_RNCNvNtNtCs3h5i2ndpMQu_6deacon8commands5build20extract_build_configs0_0B7_
FNDA:1,_RNCNvNtNtCs3h5i2ndpMQu_6deacon8commands5build20extract_build_configs_0B7_
FNDA:2,_RNvNtNtCs3h5i2ndpMQu_6deacon8commands5build20extract_build_config
FNDA:3,_RNvNtNtCs3h5i2ndpMQu_6deacon8commands5build21calculate_config_hash
FNDA:0,_RNCNCNCNvNtNtCsg3KGOJsATZq_6deacon8commands5build20execute_docker_build000Bb_
FNDA:0,_RNCNCNCNvNtNtCsg3KGOJsATZq_6deacon8commands5build20execute_docker_build00s0_0Bb_
FNDA:0,_RNCNCNCNvNtNtCsg3KGOJsATZq_6deacon8commands5build20execute_docker_build00s_0Bb_
FNDA:0,_RNCNCNvNtNtCsg3KGOJsATZq_6deacon8commands5build22extract_image_metadata00B9_
FNDA:0,_RNCNCNvNtNtCsg3KGOJsATZq_6deacon8commands5build22extract_image_metadata0s_0B9_
FNDA:0,_RNCNvNtNtCsg3KGOJsATZq_6deacon8commands5build13execute_build0B7_
FNDA:0,_RNCNvNtNtCsg3KGOJsATZq_6deacon8commands5build13output_result0B7_
FNDA:0,_RNCNvNtNtCsg3KGOJsATZq_6deacon8commands5build17check_build_cache0B7_
FNDA:0,_RNCNvNtNtCsg3KGOJsATZq_6deacon8commands5build18cache_build_result0B7_
FNDA:0,_RNCNvNtNtCsg3KGOJsATZq_6deacon8commands5build20execute_docker_build0B7_
FNDA:0,_RNCNvNtNtCsg3KGOJsATZq_6deacon8commands5build22extract_image_metadata0B7_
FNDA:0,_RNvNtNtCsg3KGOJsATZq_6deacon8commands5build13execute_build
FNDA:0,_RNvNtNtCsg3KGOJsATZq_6deacon8commands5build13output_result
FNDA:0,_RNvNtNtCsg3KGOJsATZq_6deacon8commands5build17check_build_cache
FNDA:0,_RNvNtNtCsg3KGOJsATZq_6deacon8commands5build18cache_build_result
FNDA:0,_RNvNtNtCsg3KGOJsATZq_6deacon8commands5build20execute_docker_build
FNDA:0,_RNvNtNtCsg3KGOJsATZq_6deacon8commands5build22extract_image_metadata
FNDA:2,_RNvNtNtCsg3KGOJsATZq_6deacon8commands5build20extract_build_config
FNDA:3,_RNvNtNtCsg3KGOJsATZq_6deacon8commands5build21calculate_config_hash
FNDA:1,_RNCNvNtNtCsg3KGOJsATZq_6deacon8commands5build20extract_build_config0B7_
FNDA:1,_RNCNvNtNtCsg3KGOJsATZq_6deacon8commands5build20extract_build_configs0_0B7_
FNDA:1,_RNCNvNtNtCsg3KGOJsATZq_6deacon8commands5build20extract_build_configs_0B7_
FNDA:1,_RNvNtNtNtCsg3KGOJsATZq_6deacon8commands5build5testss_24test_build_args_assembly
FNDA:1,_RNvNtNtNtCsg3KGOJsATZq_6deacon8commands5build5testss_28test_config_hash_calculation
FNDA:1,_RNvNtNtNtCsg3KGOJsATZq_6deacon8commands5build5testss_28test_docker_cli_arg_ordering
FNDA:1,_RNvNtNtNtCsg3KGOJsATZq_6deacon8commands5build5testss_36test_build_config_dockerfile_parsing
FNDA:3,_RNCNvNtNtNtCsg3KGOJsATZq_6deacon8commands5build5testss_28test_docker_cli_arg_ordering0B9_
FNF:27
FNH:21
DA:58,5
DA:120,5
DA:123,8
DA:124,8
DA:125,8
DA:126,8
DA:128,8
DA:129,0
DA:130,0
DA:131,0
DA:132,0
DA:133,0
DA:134,0
DA:135,8
DA:137,8
DA:138,7
DA:139,7
DA:140,1
DA:141,1
DA:142,1
DA:143,1
DA:144,1
DA:145,1
DA:146,6
DA:148,6
DA:149,6
DA:150,6
DA:151,6
DA:152,6
DA:153,6
DA:156,6
DA:157,3
DA:159,3
DA:160,3
DA:161,3
DA:164,3
DA:165,2
DA:166,2
DA:169,3
DA:170,6
DA:171,3
DA:172,3
DA:173,3
DA:174,3
DA:175,3
DA:177,0
DA:178,0
DA:179,3
DA:181,6
DA:182,1
DA:184,1
DA:185,1
DA:186,1
DA:187,1
DA:188,1
DA:189,1
DA:190,1
DA:193,0
DA:194,0
DA:195,0
DA:196,0
DA:197,0
DA:198,0
DA:200,8
DA:203,8
DA:207,8
DA:210,8
DA:211,8
DA:212,8
DA:215,8
DA:216,8
DA:217,21
DA:218,13
DA:219,13
DA:220,13
DA:223,8
DA:224,8
DA:225,8
DA:226,8
DA:227,6
DA:228,6
DA:229,2
DA:232,8
DA:233,8
DA:234,8
DA:235,8
DA:236,8
DA:237,8
DA:238,8
DA:239,0
DA:240,0
DA:242,8
DA:243,8
DA:244,8
DA:247,1
DA:248,1
DA:249,1
DA:250,1
DA:253,1
DA:254,1
DA:255,1
DA:258,2
DA:261,2
DA:262,2
DA:263,2
DA:267,2
DA:268,2
DA:269,2
DA:270,2
DA:271,2
DA:272,2
DA:297,0
DA:298,0
DA:299,0
DA:308,0
DA:309,0
DA:310,0
DA:311,0
DA:312,0
DA:366,0
DA:397,2
DA:400,2
DA:405,2
DA:407,2
DA:408,2
DA:409,2
DA:410,2
DA:412,2
DA:413,0
DA:414,0
DA:415,2
DA:417,2
DA:418,2
DA:419,0
DA:421,2
DA:422,0
DA:423,0
DA:426,2
DA:427,2
DA:434,2
DA:437,2
DA:438,2
DA:440,1
DA:441,0
DA:442,0
DA:443,0
DA:444,0
DA:445,1
DA:448,1
DA:449,1
DA:450,1
DA:451,1
DA:452,1
DA:454,1
DA:455,1
DA:456,3
DA:457,2
DA:458,2
DA:459,0
DA:462,2
DA:463,2
DA:471,2
DA:472,2
DA:473,2
DA:474,2
DA:475,2
DA:476,2
DA:477,2
DA:478,2
DA:479,2
DA:480,2
DA:481,2
DA:482,2
DA:483,2
DA:484,2
DA:485,2
DA:486,2
DA:487,2
DA:488,2
DA:489,2
DA:490,2
DA:491,2
DA:492,2
DA:493,2
DA:494,2
DA:495,2
DA:496,2
DA:497,2
DA:498,2
DA:499,2
DA:500,2
DA:501,2
DA:502,2
DA:503,2
DA:504,2
DA:507,2
DA:508,2
DA:509,2
DA:511,2
DA:512,2
DA:513,2
DA:514,2
DA:515,2
DA:518,2
DA:519,2
DA:520,2
DA:521,2
DA:522,2
DA:523,2
DA:524,2
DA:526,2
DA:527,2
DA:528,2
DA:529,2
DA:530,2
DA:531,2
DA:532,2
DA:533,2
DA:535,2
DA:538,2
DA:539,2
DA:540,2
DA:541,2
DA:542,2
DA:543,2
DA:544,2
DA:545,2
DA:546,2
DA:547,2
DA:548,2
DA:549,2
DA:551,2
DA:552,2
DA:553,2
DA:555,2
DA:556,2
DA:559,2
DA:562,2
DA:563,2
DA:565,2
DA:566,2
DA:567,2
DA:570,2
DA:571,2
DA:572,2
DA:573,2
DA:574,2
DA:575,2
DA:576,2
DA:577,2
DA:578,2
DA:579,2
DA:582,2
DA:583,2
DA:584,2
DA:585,2
DA:586,2
DA:587,2
DA:590,2
DA:593,2
DA:594,2
DA:595,2
DA:597,2
DA:598,2
DA:601,2
DA:604,2
DA:607,2
DA:608,2
DA:611,2
DA:614,2
DA:615,2
DA:618,2
DA:619,2
DA:622,2
DA:623,2
DA:624,2
DA:627,2
DA:628,2
DA:629,2
DA:632,2
DA:635,2
DA:636,2
DA:637,2
DA:638,2
DA:639,2
DA:640,2
DA:641,2
DA:642,2
DA:643,2
DA:644,2
DA:645,2
DA:646,2
DA:647,2
DA:648,2
DA:652,2
DA:653,2
DA:654,0
DA:656,2
DA:657,6
DA:658,0
DA:660,2
BRF:0
BRH:0
LF:315
LH:272
end_of_record
SF:/home/runner/work/deacon/deacon/crates/deacon/src/commands/exec.rs
FN:109,_RNvNtNtCsgueokGkgs2b_6deacon8commands4exec12execute_exec
FN:34,_RNvNtNtCsgueokGkgs2b_6deacon8commands4exec24resolve_target_container
FN:81,_RNvNtNtCsgueokGkgs2b_6deacon8commands4exec31determine_container_working_dir
FN:109,_RNCNvNtNtCsgueokGkgs2b_6deacon8commands4exec12execute_exec0B7_
FN:38,_RNCNvNtNtCsgueokGkgs2b_6deacon8commands4exec24resolve_target_container0B7_
FN:96,_RNCNvNtNtCsgueokGkgs2b_6deacon8commands4exec31determine_container_working_dir0B7_
FN:96,_RNCNvNtNtCs3h5i2ndpMQu_6deacon8commands4exec31determine_container_working_dir0B7_
FN:81,_RNvNtNtCs3h5i2ndpMQu_6deacon8commands4exec31determine_container_working_dir
FN:222,_RNvNtNtNtCs3h5i2ndpMQu_6deacon8commands4exec5testss_44test_determine_container_working_dir_default
FN:237,_RNvNtNtNtCs3h5i2ndpMQu_6deacon8commands4exec5testss_45test_determine_container_working_dir_fallback
FN:208,_RNvNtNtNtCs3h5i2ndpMQu_6deacon8commands4exec5testss_48test_determine_container_working_dir_with_config
FN:109,_RNCNvNtNtCs3h5i2ndpMQu_6deacon8commands4exec12execute_exec0B7_
FN:38,_RNCNvNtNtCs3h5i2ndpMQu_6deacon8commands4exec24resolve_target_container0B7_
FN:109,_RNvNtNtCs3h5i2ndpMQu_6deacon8commands4exec12execute_exec
FN:34,_RNvNtNtCs3h5i2ndpMQu_6deacon8commands4exec24resolve_target_container
FN:96,_RNCNvNtNtCsg3KGOJsATZq_6deacon8commands4exec31determine_container_working_dir0B7_
FN:109,_RNCNvNtNtCsg3KGOJsATZq_6deacon8commands4exec12execute_exec0B7_
FN:38,_RNCNvNtNtCsg3KGOJsATZq_6deacon8commands4exec24resolve_target_container0B7_
FN:109,_RNvNtNtCsg3KGOJsATZq_6deacon8commands4exec12execute_exec
FN:34,_RNvNtNtCsg3KGOJsATZq_6deacon8commands4exec24resolve_target_container
FN:81,_RNvNtNtCsg3KGOJsATZq_6deacon8commands4exec31determine_container_working_dir
FN:222,_RNvNtNtNtCsg3KGOJsATZq_6deacon8commands4exec5testss_44test_determine_container_working_dir_default
FN:237,_RNvNtNtNtCsg3KGOJsATZq_6deacon8commands4exec5testss_45test_determine_container_working_dir_fallback
FN:208,_RNvNtNtNtCsg3KGOJsATZq_6deacon8commands4exec5testss_48test_determine_container_working_dir_with_config
FNDA:6,_RNvNtNtCsgueokGkgs2b_6deacon8commands4exec12execute_exec
FNDA:2,_RNvNtNtCsgueokGkgs2b_6deacon8commands4exec24resolve_target_container
FNDA:0,_RNvNtNtCsgueokGkgs2b_6deacon8commands4exec31determine_container_working_dir
FNDA:6,_RNCNvNtNtCsgueokGkgs2b_6deacon8commands4exec12execute_exec0B7_
FNDA:2,_RNCNvNtNtCsgueokGkgs2b_6deacon8commands4exec24resolve_target_container0B7_
FNDA:0,_RNCNvNtNtCsgueokGkgs2b_6deacon8commands4exec31determine_container_working_dir0B7_
FNDA:1,_RNCNvNtNtCs3h5i2ndpMQu_6deacon8commands4exec31determine_container_working_dir0B7_
FNDA:3,_RNvNtNtCs3h5i2ndpMQu_6deacon8commands4exec31determine_container_working_dir
FNDA:1,_RNvNtNtNtCs3h5i2ndpMQu_6deacon8commands4exec5testss_44test_determine_container_working_dir_default
FNDA:1,_RNvNtNtNtCs3h5i2ndpMQu_6deacon8commands4exec5testss_45test_determine_container_working_dir_fallback
FNDA:1,_RNvNtNtNtCs3h5i2ndpMQu_6deacon8commands4exec5testss_48test_determine_container_working_dir_with_config
FNDA:0,_RNCNvNtNtCs3h5i2ndpMQu_6deacon8commands4exec12execute_exec0B7_
FNDA:0,_RNCNvNtNtCs3h5i2ndpMQu_6deacon8commands4exec24resolve_target_container0B7_
FNDA:0,_RNvNtNtCs3h5i2ndpMQu_6deacon8commands4exec12execute_exec
FNDA:0,_RNvNtNtCs3h5i2ndpMQu_6deacon8commands4exec24resolve_target_container
FNDA:1,_RNCNvNtNtCsg3KGOJsATZq_6deacon8commands4exec31determine_container_working_dir0B7_
FNDA:0,_RNCNvNtNtCsg3KGOJsATZq_6deacon8commands4exec12execute_exec0B7_
FNDA:0,_RNCNvNtNtCsg3KGOJsATZq_6deacon8commands4exec24resolve_target_container0B7_
FNDA:0,_RNvNtNtCsg3KGOJsATZq_6deacon8commands4exec12execute_exec
FNDA:0,_RNvNtNtCsg3KGOJsATZq_6deacon8commands4exec24resolve_target_container
FNDA:3,_RNvNtNtCsg3KGOJsATZq_6deacon8commands4exec31determine_container_working_dir
FNDA:1,_RNvNtNtNtCsg3KGOJsATZq_6deacon8commands4exec5testss_44test_determine_container_working_dir_default
FNDA:1,_RNvNtNtNtCsg3KGOJsATZq_6deacon8commands4exec5testss_45test_determine_container_working_dir_fallback
FNDA:1,_RNvNtNtNtCsg3KGOJsATZq_6deacon8commands4exec5testss_48test_determine_container_working_dir_with_config
FNF:9
FNH:9
DA:34,2
DA:35,2
DA:36,2
DA:37,2
DA:38,2
DA:77,2
DA:81,6
DA:82,6
DA:83,6
DA:84,6
DA:86,6
DA:87,2
DA:88,0
DA:91,2
DA:94,4
DA:95,4
DA:96,4
DA:97,4
DA:98,4
DA:99,4
DA:100,0
DA:103,4
DA:105,6
DA:109,6
DA:199,6
DA:208,2
DA:209,2
DA:210,2
DA:211,2
DA:212,2
DA:214,2
DA:215,2
DA:217,2
DA:218,2
DA:219,2
DA:222,2
DA:223,2
DA:224,2
DA:225,2
DA:226,2
DA:228,2
DA:229,2
DA:230,2
DA:232,2
DA:233,2
DA:234,2
DA:237,2
DA:238,2
DA:239,2
DA:240,2
DA:241,2
DA:244,2
DA:245,2
DA:246,2
BRF:0
BRH:0
LF:57
LH:55
end_of_record
SF:/home/runner/work/deacon/deacon/crates/deacon/src/commands/read_configuration.rs
FN:24,_RNvNtNtCsgueokGkgs2b_6deacon8commands18read_configuration26execute_read_configuration
FN:24,_RNCNvNtNtCsgueokGkgs2b_6deacon8commands18read_configuration26execute_read_configuration0B7_
FN:24,_RNvNtNtCs3h5i2ndpMQu_6deacon8commands18read_configuration26execute_read_configuration
FN:81,_RNCNvNtNtNtCs3h5i2ndpMQu_6deacon8commands18read_configuration5testss_29test_read_configuration_basic0B9_
FN:126,_RNCNvNtNtNtCs3h5i2ndpMQu_6deacon8commands18read_configuration5testss_33test_read_configuration_not_found0B9_
FN:103,_RNCNvNtNtNtCs3h5i2ndpMQu_6deacon8commands18read_configuration5testss_38test_read_configuration_with_variables0B9_
FN:81,_RNvNtNtNtCs3h5i2ndpMQu_6deacon8commands18read_configuration5testss_29test_read_configuration_basic
FN:126,_RNvNtNtNtCs3h5i2ndpMQu_6deacon8commands18read_configuration5testss_33test_read_configuration_not_found
FN:103,_RNvNtNtNtCs3h5i2ndpMQu_6deacon8commands18read_configuration5testss_38test_read_configuration_with_variables
FN:24,_RNCNvNtNtCs3h5i2ndpMQu_6deacon8commands18read_configuration26execute_read_configuration0B7_
FN:81,_RNvNtNtNtCsg3KGOJsATZq_6deacon8commands18read_configuration5testss_29test_read_configuration_basic
FN:126,_RNvNtNtNtCsg3KGOJsATZq_6deacon8commands18read_configuration5testss_33test_read_configuration_not_found
FN:103,_RNvNtNtNtCsg3KGOJsATZq_6deacon8commands18read_configuration5testss_38test_read_configuration_with_variables
FN:24,_RNCNvNtNtCsg3KGOJsATZq_6deacon8commands18read_configuration26execute_read_configuration0B7_
FN:81,_RNCNvNtNtNtCsg3KGOJsATZq_6deacon8commands18read_configuration5testss_29test_read_configuration_basic0B9_
FN:126,_RNCNvNtNtNtCsg3KGOJsATZq_6deacon8commands18read_configuration5testss_33test_read_configuration_not_found0B9_
FN:103,_RNCNvNtNtNtCsg3KGOJsATZq_6deacon8commands18read_configuration5testss_38test_read_configuration_with_variables0B9_
FN:24,_RNvNtNtCsg3KGOJsATZq_6deacon8commands18read_configuration26execute_read_configuration
FNDA:10,_RNvNtNtCsgueokGkgs2b_6deacon8commands18read_configuration26execute_read_configuration
FNDA:10,_RNCNvNtNtCsgueokGkgs2b_6deacon8commands18read_configuration26execute_read_configuration0B7_
FNDA:3,_RNvNtNtCs3h5i2ndpMQu_6deacon8commands18read_configuration26execute_read_configuration
FNDA:1,_RNCNvNtNtNtCs3h5i2ndpMQu_6deacon8commands18read_configuration5testss_29test_read_configuration_basic0B9_
FNDA:1,_RNCNvNtNtNtCs3h5i2ndpMQu_6deacon8commands18read_configuration5testss_33test_read_configuration_not_found0B9_
FNDA:1,_RNCNvNtNtNtCs3h5i2ndpMQu_6deacon8commands18read_configuration5testss_38test_read_configuration_with_variables0B9_
FNDA:1,_RNvNtNtNtCs3h5i2ndpMQu_6deacon8commands18read_configuration5testss_29test_read_configuration_basic
FNDA:1,_RNvNtNtNtCs3h5i2ndpMQu_6deacon8commands18read_configuration5testss_33test_read_configuration_not_found
FNDA:1,_RNvNtNtNtCs3h5i2ndpMQu_6deacon8commands18read_configuration5testss_38test_read_configuration_with_variables
FNDA:3,_RNCNvNtNtCs3h5i2ndpMQu_6deacon8commands18read_configuration26execute_read_configuration0B7_
FNDA:1,_RNvNtNtNtCsg3KGOJsATZq_6deacon8commands18read_configuration5testss_29test_read_configuration_basic
FNDA:1,_RNvNtNtNtCsg3KGOJsATZq_6deacon8commands18read_configuration5testss_33test_read_configuration_not_found
FNDA:1,_RNvNtNtNtCsg3KGOJsATZq_6deacon8commands18read_configuration5testss_38test_read_configuration_with_variables
FNDA:3,_RNCNvNtNtCsg3KGOJsATZq_6deacon8commands18read_configuration26execute_read_configuration0B7_
FNDA:1,_RNCNvNtNtNtCsg3KGOJsATZq_6deacon8commands18read_configuration5testss_29test_read_configuration_basic0B9_
FNDA:1,_RNCNvNtNtNtCsg3KGOJsATZq_6deacon8commands18read_configuration5testss_33test_read_configuration_not_found0B9_
FNDA:1,_RNCNvNtNtNtCsg3KGOJsATZq_6deacon8commands18read_configuration5testss_38test_read_configuration_with_variables0B9_
FNDA:3,_RNvNtNtCsg3KGOJsATZq_6deacon8commands18read_configuration26execute_read_configuration
FNF:8
FNH:8
DA:24,16
DA:72,16
DA:81,2
DA:82,2
DA:83,2
DA:85,2
DA:86,2
DA:87,2
DA:88,2
DA:90,2
DA:92,2
DA:93,2
DA:94,2
DA:95,2
DA:96,2
DA:98,2
DA:99,2
DA:100,2
DA:103,2
DA:104,2
DA:105,2
DA:107,2
DA:108,2
DA:109,2
DA:110,2
DA:111,2
DA:113,2
DA:115,2
DA:116,2
DA:117,2
DA:118,2
DA:119,2
DA:121,2
DA:122,2
DA:123,2
DA:126,2
DA:127,2
DA:129,2
DA:130,2
DA:131,2
DA:132,2
DA:133,2
DA:135,2
DA:136,2
DA:137,2
BRF:0
BRH:0
LF:52
LH:52
end_of_record
SF:/home/runner/work/deacon/deacon/crates/deacon/src/commands/up.rs
FN:29,_RNvNtNtCsgueokGkgs2b_6deacon8commands2up10execute_up
FN:276,_RNvNtNtCsgueokGkgs2b_6deacon8commands2up18apply_user_mapping
FN:63,_RNvNtNtCsgueokGkgs2b_6deacon8commands2up18execute_compose_up
FN:233,_RNvNtNtCsgueokGkgs2b_6deacon8commands2up18handle_port_events
FN:115,_RNvNtNtCsgueokGkgs2b_6deacon8commands2up20execute_container_up
FN:406,_RNvNtNtCsgueokGkgs2b_6deacon8commands2up24commands_from_json_value
FN:334,_RNvNtNtCsgueokGkgs2b_6deacon8commands2up26execute_lifecycle_commands
FN:179,_RNvNtNtCsgueokGkgs2b_6deacon8commands2up27execute_compose_post_create
FN:442,_RNvNtNtCsgueokGkgs2b_6deacon8commands2up28handle_container_port_events
FN:312,_RNCNCNCNvNtNtCsgueokGkgs2b_6deacon8commands2up18apply_user_mapping000Bb_
FN:356,_RNCNCNCNvNtNtCsgueokGkgs2b_6deacon8commands2up26execute_lifecycle_commands000Bb_
FN:367,_RNCNCNCNvNtNtCsgueokGkgs2b_6deacon8commands2up26execute_lifecycle_commands00s_0Bb_
FN:29,_RNCNvNtNtCsgueokGkgs2b_6deacon8commands2up10execute_up0B7_
FN:280,_RNCNvNtNtCsgueokGkgs2b_6deacon8commands2up18apply_user_mapping0B7_
FN:67,_RNCNvNtNtCsgueokGkgs2b_6deacon8commands2up18execute_compose_up0B7_
FN:233,_RNCNvNtNtCsgueokGkgs2b_6deacon8commands2up18handle_port_events0B7_
FN:119,_RNCNvNtNtCsgueokGkgs2b_6deacon8commands2up20execute_container_up0B7_
FN:339,_RNCNvNtNtCsgueokGkgs2b_6deacon8commands2up26execute_lifecycle_commands0B7_
FN:182,_RNCNvNtNtCsgueokGkgs2b_6deacon8commands2up27execute_compose_post_create0B7_
FN:445,_RNCNvNtNtCsgueokGkgs2b_6deacon8commands2up28handle_container_port_events0B7_
FN:406,_RNvNtNtCs3h5i2ndpMQu_6deacon8commands2up24commands_from_json_value
FN:312,_RNCNCNCNvNtNtCs3h5i2ndpMQu_6deacon8commands2up18apply_user_mapping000Bb_
FN:356,_RNCNCNCNvNtNtCs3h5i2ndpMQu_6deacon8commands2up26execute_lifecycle_commands000Bb_
FN:367,_RNCNCNCNvNtNtCs3h5i2ndpMQu_6deacon8commands2up26execute_lifecycle_commands00s_0Bb_
FN:29,_RNCNvNtNtCs3h5i2ndpMQu_6deacon8commands2up10execute_up0B7_
FN:280,_RNCNvNtNtCs3h5i2ndpMQu_6deacon8commands2up18apply_user_mapping0B7_
FN:67,_RNCNvNtNtCs3h5i2ndpMQu_6deacon8commands2up18execute_compose_up0B7_
FN:233,_RNCNvNtNtCs3h5i2ndpMQu_6deacon8commands2up18handle_port_events0B7_
FN:119,_RNCNvNtNtCs3h5i2ndpMQu_6deacon8commands2up20execute_container_up0B7_
FN:339,_RNCNvNtNtCs3h5i2ndpMQu_6deacon8commands2up26execute_lifecycle_commands0B7_
FN:182,_RNCNvNtNtCs3h5i2ndpMQu_6deacon8commands2up27execute_compose_post_create0B7_
FN:445,_RNCNvNtNtCs3h5i2ndpMQu_6deacon8commands2up28handle_container_port_events0B7_
FN:29,_RNvNtNtCs3h5i2ndpMQu_6deacon8commands2up10execute_up
FN:276,_RNvNtNtCs3h5i2ndpMQu_6deacon8commands2up18apply_user_mapping
FN:63,_RNvNtNtCs3h5i2ndpMQu_6deacon8commands2up18execute_compose_up
FN:233,_RNvNtNtCs3h5i2ndpMQu_6deacon8commands2up18handle_port_events
FN:115,_RNvNtNtCs3h5i2ndpMQu_6deacon8commands2up20execute_container_up
FN:334,_RNvNtNtCs3h5i2ndpMQu_6deacon8commands2up26execute_lifecycle_commands
FN:179,_RNvNtNtCs3h5i2ndpMQu_6deacon8commands2up27execute_compose_post_create
FN:442,_RNvNtNtCs3h5i2ndpMQu_6deacon8commands2up28handle_container_port_events
FN:485,_RNvNtNtNtCs3h5i2ndpMQu_6deacon8commands2up5testss_21test_up_args_creation
FN:525,_RNvNtNtNtCs3h5i2ndpMQu_6deacon8commands2up5testss_27test_up_args_with_all_flags
FN:542,_RNvNtNtNtCs3h5i2ndpMQu_6deacon8commands2up5testss_29test_compose_config_detection
FN:582,_RNvNtNtNtCs3h5i2ndpMQu_6deacon8commands2up5testss_33test_traditional_config_detection
FN:511,_RNvNtNtNtCs3h5i2ndpMQu_6deacon8commands2up5testss_35test_commands_from_json_value_array
FN:504,_RNvNtNtNtCs3h5i2ndpMQu_6deacon8commands2up5testss_36test_commands_from_json_value_string
FN:518,_RNvNtNtNtCs3h5i2ndpMQu_6deacon8commands2up5testss_37test_commands_from_json_value_invalid
FN:312,_RNCNCNCNvNtNtCsg3KGOJsATZq_6deacon8commands2up18apply_user_mapping000Bb_
FN:356,_RNCNCNCNvNtNtCsg3KGOJsATZq_6deacon8commands2up26execute_lifecycle_commands000Bb_
FN:367,_RNCNCNCNvNtNtCsg3KGOJsATZq_6deacon8commands2up26execute_lifecycle_commands00s_0Bb_
FN:29,_RNCNvNtNtCsg3KGOJsATZq_6deacon8commands2up10execute_up0B7_
FN:280,_RNCNvNtNtCsg3KGOJsATZq_6deacon8commands2up18apply_user_mapping0B7_
FN:67,_RNCNvNtNtCsg3KGOJsATZq_6deacon8commands2up18execute_compose_up0B7_
FN:233,_RNCNvNtNtCsg3KGOJsATZq_6deacon8commands2up18handle_port_events0B7_
FN:119,_RNCNvNtNtCsg3KGOJsATZq_6deacon8commands2up20execute_container_up0B7_
FN:339,_RNCNvNtNtCsg3KGOJsATZq_6deacon8commands2up26execute_lifecycle_commands0B7_
FN:182,_RNCNvNtNtCsg3KGOJsATZq_6deacon8commands2up27execute_compose_post_create0B7_
FN:445,_RNCNvNtNtCsg3KGOJsATZq_6deacon8commands2up28handle_container_port_events0B7_
FN:29,_RNvNtNtCsg3KGOJsATZq_6deacon8commands2up10execute_up
FN:276,_RNvNtNtCsg3KGOJsATZq_6deacon8commands2up18apply_user_mapping
FN:63,_RNvNtNtCsg3KGOJsATZq_6deacon8commands2up18execute_compose_up
FN:233,_RNvNtNtCsg3KGOJsATZq_6deacon8commands2up18handle_port_events
FN:115,_RNvNtNtCsg3KGOJsATZq_6deacon8commands2up20execute_container_up
FN:334,_RNvNtNtCsg3KGOJsATZq_6deacon8commands2up26execute_lifecycle_commands
FN:179,_RNvNtNtCsg3KGOJsATZq_6deacon8commands2up27execute_compose_post_create
FN:442,_RNvNtNtCsg3KGOJsATZq_6deacon8commands2up28handle_container_port_events
FN:485,_RNvNtNtNtCsg3KGOJsATZq_6deacon8commands2up5testss_21test_up_args_creation
FN:525,_RNvNtNtNtCsg3KGOJsATZq_6deacon8commands2up5testss_27test_up_args_with_all_flags
FN:542,_RNvNtNtNtCsg3KGOJsATZq_6deacon8commands2up5testss_29test_compose_config_detection
FN:582,_RNvNtNtNtCsg3KGOJsATZq_6deacon8commands2up5testss_33test_traditional_config_detection
FN:511,_RNvNtNtNtCsg3KGOJsATZq_6deacon8commands2up5testss_35test_commands_from_json_value_array
FN:504,_RNvNtNtNtCsg3KGOJsATZq_6deacon8commands2up5testss_36test_commands_from_json_value_string
FN:518,_RNvNtNtNtCsg3KGOJsATZq_6deacon8commands2up5testss_37test_commands_from_json_value_invalid
FN:406,_RNvNtNtCsg3KGOJsATZq_6deacon8commands2up24commands_from_json_value
FNDA:5,_RNvNtNtCsgueokGkgs2b_6deacon8commands2up10execute_up
FNDA:1,_RNvNtNtCsgueokGkgs2b_6deacon8commands2up18apply_user_mapping
FNDA:1,_RNvNtNtCsgueokGkgs2b_6deacon8commands2up18execute_compose_up
FNDA:0,_RNvNtNtCsgueokGkgs2b_6deacon8commands2up18handle_port_events
FNDA:2,_RNvNtNtCsgueokGkgs2b_6deacon8commands2up20execute_container_up
FNDA:2,_RNvNtNtCsgueokGkgs2b_6deacon8commands2up24commands_from_json_value
FNDA:2,_RNvNtNtCsgueokGkgs2b_6deacon8commands2up26execute_lifecycle_commands
FNDA:0,_RNvNtNtCsgueokGkgs2b_6deacon8commands2up27execute_compose_post_create
FNDA:1,_RNvNtNtCsgueokGkgs2b_6deacon8commands2up28handle_container_port_events
FNDA:0,_RNCNCNCNvNtNtCsgueokGkgs2b_6deacon8commands2up18apply_user_mapping000Bb_
FNDA:1,_RNCNCNCNvNtNtCsgueokGkgs2b_6deacon8commands2up26execute_lifecycle_commands000Bb_
FNDA:1,_RNCNCNCNvNtNtCsgueokGkgs2b_6deacon8commands2up26execute_lifecycle_commands00s_0Bb_
FNDA:5,_RNCNvNtNtCsgueokGkgs2b_6deacon8commands2up10execute_up0B7_
FNDA:1,_RNCNvNtNtCsgueokGkgs2b_6deacon8commands2up18apply_user_mapping0B7_
FNDA:1,_RNCNvNtNtCsgueokGkgs2b_6deacon8commands2up18execute_compose_up0B7_
FNDA:0,_RNCNvNtNtCsgueokGkgs2b_6deacon8commands2up18handle_port_events0B7_
FNDA:2,_RNCNvNtNtCsgueokGkgs2b_6deacon8commands2up20execute_container_up0B7_
FNDA:2,_RNCNvNtNtCsgueokGkgs2b_6deacon8commands2up26execute_lifecycle_commands0B7_
FNDA:0,_RNCNvNtNtCsgueokGkgs2b_6deacon8commands2up27execute_compose_post_create0B7_
FNDA:1,_RNCNvNtNtCsgueokGkgs2b_6deacon8commands2up28handle_container_port_events0B7_
FNDA:3,_RNvNtNtCs3h5i2ndpMQu_6deacon8commands2up24commands_from_json_value
FNDA:0,_RNCNCNCNvNtNtCs3h5i2ndpMQu_6deacon8commands2up18apply_user_mapping000Bb_
FNDA:0,_RNCNCNCNvNtNtCs3h5i2ndpMQu_6deacon8commands2up26execute_lifecycle_commands000Bb_
FNDA:0,_RNCNCNCNvNtNtCs3h5i2ndpMQu_6deacon8commands2up26execute_lifecycle_commands00s_0Bb_
FNDA:0,_RNCNvNtNtCs3h5i2ndpMQu_6deacon8commands2up10execute_up0B7_
FNDA:0,_RNCNvNtNtCs3h5i2ndpMQu_6deacon8commands2up18apply_user_mapping0B7_
FNDA:0,_RNCNvNtNtCs3h5i2ndpMQu_6deacon8commands2up18execute_compose_up0B7_
FNDA:0,_RNCNvNtNtCs3h5i2ndpMQu_6deacon8commands2up18handle_port_events0B7_
FNDA:0,_RNCNvNtNtCs3h5i2ndpMQu_6deacon8commands2up20execute_container_up0B7_
FNDA:0,_RNCNvNtNtCs3h5i2ndpMQu_6deacon8commands2up26execute_lifecycle_commands0B7_
FNDA:0,_RNCNvNtNtCs3h5i2ndpMQu_6deacon8commands2up27execute_compose_post_create0B7_
FNDA:0,_RNCNvNtNtCs3h5i2ndpMQu_6deacon8commands2up28handle_container_port_events0B7_
FNDA:0,_RNvNtNtCs3h5i2ndpMQu_6deacon8commands2up10execute_up
FNDA:0,_RNvNtNtCs3h5i2ndpMQu_6deacon8commands2up18apply_user_mapping
FNDA:0,_RNvNtNtCs3h5i2ndpMQu_6deacon8commands2up18execute_compose_up
FNDA:0,_RNvNtNtCs3h5i2ndpMQu_6deacon8commands2up18handle_port_events
FNDA:0,_RNvNtNtCs3h5i2ndpMQu_6deacon8commands2up20execute_container_up
FNDA:0,_RNvNtNtCs3h5i2ndpMQu_6deacon8commands2up26execute_lifecycle_commands
FNDA:0,_RNvNtNtCs3h5i2ndpMQu_6deacon8commands2up27execute_compose_post_create
FNDA:0,_RNvNtNtCs3h5i2ndpMQu_6deacon8commands2up28handle_container_port_events
FNDA:1,_RNvNtNtNtCs3h5i2ndpMQu_6deacon8commands2up5testss_21test_up_args_creation
FNDA:1,_RNvNtNtNtCs3h5i2ndpMQu_6deacon8commands2up5testss_27test_up_args_with_all_flags
FNDA:1,_RNvNtNtNtCs3h5i2ndpMQu_6deacon8commands2up5testss_29test_compose_config_detection
FNDA:1,_RNvNtNtNtCs3h5i2ndpMQu_6deacon8commands2up5testss_33test_traditional_config_detection
FNDA:1,_RNvNtNtNtCs3h5i2ndpMQu_6deacon8commands2up5testss_35test_commands_from_json_value_array
FNDA:1,_RNvNtNtNtCs3h5i2ndpMQu_6deacon8commands2up5testss_36test_commands_from_json_value_string
FNDA:1,_RNvNtNtNtCs3h5i2ndpMQu_6deacon8commands2up5testss_37test_commands_from_json_value_invalid
FNDA:0,_RNCNCNCNvNtNtCsg3KGOJsATZq_6deacon8commands2up18apply_user_mapping000Bb_
FNDA:0,_RNCNCNCNvNtNtCsg3KGOJsATZq_6deacon8commands2up26execute_lifecycle_commands000Bb_
FNDA:0,_RNCNCNCNvNtNtCsg3KGOJsATZq_6deacon8commands2up26execute_lifecycle_commands00s_0Bb_
FNDA:0,_RNCNvNtNtCsg3KGOJsATZq_6deacon8commands2up10execute_up0B7_
FNDA:0,_RNCNvNtNtCsg3KGOJsATZq_6deacon8commands2up18apply_user_mapping0B7_
FNDA:0,_RNCNvNtNtCsg3KGOJsATZq_6deacon8commands2up18execute_compose_up0B7_
FNDA:0,_RNCNvNtNtCsg3KGOJsATZq_6deacon8commands2up18handle_port_events0B7_
FNDA:0,_RNCNvNtNtCsg3KGOJsATZq_6deacon8commands2up20execute_container_up0B7_
FNDA:0,_RNCNvNtNtCsg3KGOJsATZq_6deacon8commands2up26execute_lifecycle_commands0B7_
FNDA:0,_RNCNvNtNtCsg3KGOJsATZq_6deacon8commands2up27execute_compose_post_create0B7_
FNDA:0,_RNCNvNtNtCsg3KGOJsATZq_6deacon8commands2up28handle_container_port_events0B7_
FNDA:0,_RNvNtNtCsg3KGOJsATZq_6deacon8commands2up10execute_up
FNDA:0,_RNvNtNtCsg3KGOJsATZq_6deacon8commands2up18apply_user_mapping
FNDA:0,_RNvNtNtCsg3KGOJsATZq_6deacon8commands2up18execute_compose_up
FNDA:0,_RNvNtNtCsg3KGOJsATZq_6deacon8commands2up18handle_port_events
FNDA:0,_RNvNtNtCsg3KGOJsATZq_6deacon8commands2up20execute_container_up
FNDA:0,_RNvNtNtCsg3KGOJsATZq_6deacon8commands2up26execute_lifecycle_commands
FNDA:0,_RNvNtNtCsg3KGOJsATZq_6deacon8commands2up27execute_compose_post_create
FNDA:0,_RNvNtNtCsg3KGOJsATZq_6deacon8commands2up28handle_container_port_events
FNDA:1,_RNvNtNtNtCsg3KGOJsATZq_6deacon8commands2up5testss_21test_up_args_creation
FNDA:1,_RNvNtNtNtCsg3KGOJsATZq_6deacon8commands2up5testss_27test_up_args_with_all_flags
FNDA:1,_RNvNtNtNtCsg3KGOJsATZq_6deacon8commands2up5testss_29test_compose_config_detection
FNDA:1,_RNvNtNtNtCsg3KGOJsATZq_6deacon8commands2up5testss_33test_traditional_config_detection
FNDA:1,_RNvNtNtNtCsg3KGOJsATZq_6deacon8commands2up5testss_35test_commands_from_json_value_array
FNDA:1,_RNvNtNtNtCsg3KGOJsATZq_6deacon8commands2up5testss_36test_commands_from_json_value_string
FNDA:1,_RNvNtNtNtCsg3KGOJsATZq_6deacon8commands2up5testss_37test_commands_from_json_value_invalid
FNDA:3,_RNvNtNtCsg3KGOJsATZq_6deacon8commands2up24commands_from_json_value
FNF:27
FNH:22
DA:29,5
DA:59,5
DA:63,1
DA:64,1
DA:65,1
DA:66,1
DA:67,1
DA:111,1
DA:115,2
DA:116,2
DA:117,2
DA:118,2
DA:119,2
DA:175,2
DA:179,0
DA:180,0
DA:181,0
DA:182,0
DA:229,0
DA:233,0
DA:272,0
DA:276,1
DA:277,1
DA:278,1
DA:279,1
DA:280,1
DA:312,0
DA:330,1
DA:334,2
DA:335,2
DA:336,2
DA:337,2
DA:338,2
DA:339,2
DA:351,2
DA:356,1
DA:367,1
DA:377,2
DA:381,2
DA:385,2
DA:389,2
DA:403,2
DA:406,8
DA:407,8
DA:408,3
DA:409,3
DA:410,3
DA:411,9
DA:412,6
DA:413,6
DA:414,6
DA:415,0
DA:416,0
DA:417,0
DA:418,0
DA:419,0
DA:420,0
DA:421,0
DA:422,0
DA:423,0
DA:426,3
DA:428,2
DA:429,2
DA:430,2
DA:431,2
DA:432,2
DA:433,2
DA:434,2
DA:435,2
DA:436,2
DA:438,8
DA:442,1
DA:443,1
DA:444,1
DA:445,1
DA:475,1
DA:485,2
DA:486,2
DA:487,2
DA:488,2
DA:489,2
DA:490,2
DA:491,2
DA:492,2
DA:493,2
DA:495,2
DA:496,2
DA:497,2
DA:498,2
DA:499,2
DA:500,2
DA:501,2
DA:504,2
DA:505,2
DA:506,2
DA:507,2
DA:508,2
DA:511,2
DA:512,2
DA:513,2
DA:514,2
DA:515,2
DA:518,2
DA:519,2
DA:520,2
DA:521,2
DA:522,2
DA:525,2
DA:526,2
DA:527,2
DA:528,2
DA:529,2
DA:530,2
DA:531,2
DA:532,2
DA:533,2
DA:535,2
DA:536,2
DA:537,2
DA:538,2
DA:539,2
DA:542,2
DA:543,2
DA:544,2
DA:545,2
DA:546,2
DA:547,2
DA:548,2
DA:549,2
DA:550,2
DA:551,2
DA:552,2
DA:553,2
DA:554,2
DA:555,2
DA:556,2
DA:557,2
DA:558,2
DA:559,2
DA:560,2
DA:561,2
DA:562,2
DA:563,2
DA:564,2
DA:565,2
DA:566,2
DA:567,2
DA:568,2
DA:569,2
DA:570,2
DA:571,2
DA:572,2
DA:573,2
DA:574,2
DA:575,2
DA:577,2
DA:578,2
DA:579,2
DA:582,2
DA:583,2
DA:584,2
DA:585,2
DA:586,2
DA:587,2
DA:588,2
DA:589,2
DA:590,2
DA:591,2
DA:592,2
DA:593,2
DA:594,2
DA:595,2
DA:596,2
DA:597,2
DA:598,2
DA:599,2
DA:600,2
DA:601,2
DA:602,2
DA:603,2
DA:604,2
DA:605,2
DA:606,2
DA:607,2
DA:608,2
DA:609,2
DA:610,2
DA:611,2
DA:612,2
DA:613,2
DA:614,2
DA:615,2
DA:617,2
DA:618,2
DA:619,2
BRF:0
BRH:0
LF:203
LH:184
end_of_record
SF:/home/runner/work/deacon/deacon/crates/deacon/src/main.rs
FN:8,_RNvCsgueokGkgs2b_6deacon4main
FN:8,_RNCNvCsgueokGkgs2b_6deacon4main0B3_
FN:8,_RNCNvCs3h5i2ndpMQu_6deacon4main0B3_
FN:8,_RNvCs3h5i2ndpMQu_6deacon4main
FNDA:41,_RNvCsgueokGkgs2b_6deacon4main
FNDA:41,_RNCNvCsgueokGkgs2b_6deacon4main0B3_
FNDA:0,_RNCNvCs3h5i2ndpMQu_6deacon4main0B3_
FNDA:0,_RNvCs3h5i2ndpMQu_6deacon4main
FNF:2
FNH:2
DA:8,41
DA:10,41
DA:13,41
DA:14,41
DA:15,41
DA:16,41
DA:17,41
DA:18,41
DA:19,41
DA:20,41
DA:21,41
DA:22,41
DA:23,41
DA:24,41
DA:25,41
DA:26,41
DA:27,41
DA:28,41
DA:29,41
DA:30,41
DA:31,41
DA:32,41
DA:33,41
BRF:0
BRH:0
LF:35
LH:33
end_of_record